TN:
SF:/workspace/cpp/include/givp/config.hpp
FN:49,68,_ZNK4givp10GivpConfig8validateEv
FNDA:168,_ZNK4givp10GivpConfig8validateEv
FNF:1
FNH:1
DA:49,168
DA:50,168
DA:51,12
DA:52,164
DA:53,12
DA:54,160
DA:55,12
DA:56,156
DA:57,12
DA:58,152
DA:59,12
DA:60,148
DA:61,24
DA:62,140
DA:63,24
DA:64,132
DA:65,24
DA:66,124
DA:67,12
DA:68,120
LF:20
LH:20
end_of_record
TN:
SF:/workspace/cpp/include/givp/detail/cache.hpp
FN:22,38,_ZN4givp6detail15EvaluationCache13hash_solutionERKSt6vectorIdSaIdEEm
FN:41,44,_ZN4givp6detail15EvaluationCacheC2Em
FN:46,56,_ZN4givp6detail15EvaluationCache3getERKSt6vectorIdSaIdEEm
FN:58,67,_ZN4givp6detail15EvaluationCache3putERKSt6vectorIdSaIdEEmd
FN:69,72,_ZN4givp6detail15EvaluationCache5clearEv
FN:80,84,_ZNK4givp6detail15EvaluationCache5statsEv
FNDA:514996400,_ZN4givp6detail15EvaluationCache13hash_solutionERKSt6vectorIdSaIdEEm
FNDA:120,_ZN4givp6detail15EvaluationCacheC2Em
FNDA:284935706,_ZN4givp6detail15EvaluationCache3getERKSt6vectorIdSaIdEEm
FNDA:230060694,_ZN4givp6detail15EvaluationCache3putERKSt6vectorIdSaIdEEmd
FNDA:4,_ZN4givp6detail15EvaluationCache5clearEv
FNDA:12,_ZNK4givp6detail15EvaluationCache5statsEv
FNF:6
FNH:6
DA:22,514996400
DA:25,514996400
DA:26,3868279561
DA:29,3353283161
DA:30,176476640
DA:31,3353283161
DA:32,30179548449
DA:33,26826265288
DA:34,26826265288
DA:37,514996400
DA:41,120
DA:42,120
DA:43,120
DA:44,120
DA:46,284935706
DA:48,284935706
DA:49,284935706
DA:50,284935706
DA:51,54875028
DA:52,54875028
DA:54,230060678
DA:55,230060678
DA:58,230060694
DA:59,230060694
DA:60,230060694
DA:61,230060690
DA:62,229343474
DA:63,229343474
DA:65,230060690
DA:66,230060690
DA:69,4
DA:70,4
DA:71,4
DA:72,4
DA:80,12
DA:81,12
DA:82,12
DA:83,12
LF:38
LH:38
end_of_record
TN:
SF:/workspace/cpp/include/givp/detail/convergence.hpp
FN:30,47,_ZN4givp6detail18ConvergenceMonitor17compute_diversityERKNS0_9ElitePoolE
FN:50,51,_ZN4givp6detail18ConvergenceMonitorC2Emm
FN:53,74,_ZN4givp6detail18ConvergenceMonitor6updateEdPKNS0_9ElitePoolE
FN:76,76,_ZN4givp6detail18ConvergenceMonitor16reset_no_improveEv
FNDA:1628,_ZN4givp6detail18ConvergenceMonitor17compute_diversityERKNS0_9ElitePoolE
FNDA:88,_ZN4givp6detail18ConvergenceMonitorC2Emm
FNDA:1668,_ZN4givp6detail18ConvergenceMonitor6updateEdPKNS0_9ElitePoolE
FNDA:4,_ZN4givp6detail18ConvergenceMonitor16reset_no_improveEv
FNF:4
FNH:4
DA:30,1628
DA:31,1628
DA:32,1628
DA:33,1379
DA:34,1379
DA:35,6097
DA:36,12805
DA:37,8087
DA:38,44600
DA:39,36513
DA:40,36513
DA:42,8087
DA:43,8087
DA:46,1379
DA:50,88
DA:51,88
DA:53,1668
DA:55,1668
DA:56,179
DA:57,179
DA:59,1489
DA:62,1668
DA:63,1668
DA:64,560
DA:66,1668
DA:67,1668
DA:69,1668
DA:70,1668
DA:71,1668
DA:73,1668
DA:76,4
LF:31
LH:31
end_of_record
TN:
SF:/workspace/cpp/include/givp/detail/elite.hpp
FN:21,28,_ZNK4givp6detail9ElitePool17relative_distanceERKSt6vectorIdSaIdEES6_
FN:31,39,_ZN4givp6detail9ElitePoolC2EmdRKSt6vectorIdSaIdEES6_
FN:41,67,_ZN4givp6detail9ElitePool3addESt6vectorIdSaIdEEd
FN:50,52,_ZZN4givp6detail9ElitePool3addESt6vectorIdSaIdEEdENKUlRKT_RKT0_E_clISt4pairIS4_dESE_EEDaS7_SA_
FN:61,63,_ZZN4givp6detail9ElitePool3addESt6vectorIdSaIdEEdENKUlRKT_RKT0_E0_clISt4pairIS4_dESE_EEDaS7_SA_
FN:69,72,_ZNK4givp6detail9ElitePool8get_bestEv
FN:74,76,_ZNK4givp6detail9ElitePool7get_allEv
FN:78,78,_ZNK4givp6detail9ElitePool3lenEv
FN:79,79,_ZNK4givp6detail9ElitePool5emptyEv
FN:80,80,_ZN4givp6detail9ElitePool5clearEv
FN:82,84,_ZN4givp6detail9ElitePool8keep_topEm
FNDA:3700,_ZNK4givp6detail9ElitePool17relative_distanceERKSt6vectorIdSaIdEES6_
FNDA:128,_ZN4givp6detail9ElitePoolC2EmdRKSt6vectorIdSaIdEES6_
FNDA:2156,_ZN4givp6detail9ElitePool3addESt6vectorIdSaIdEEd
FNDA:895,_ZZN4givp6detail9ElitePool3addESt6vectorIdSaIdEEdENKUlRKT_RKT0_E_clISt4pairIS4_dESE_EEDaS7_SA_
FNDA:92,_ZZN4givp6detail9ElitePool3addESt6vectorIdSaIdEEdENKUlRKT_RKT0_E0_clISt4pairIS4_dESE_EEDaS7_SA_
FNDA:12,_ZNK4givp6detail9ElitePool8get_bestEv
FNDA:1972,_ZNK4givp6detail9ElitePool7get_allEv
FNDA:408,_ZNK4givp6detail9ElitePool3lenEv
FNDA:4,_ZNK4givp6detail9ElitePool5emptyEv
FNDA:4,_ZN4givp6detail9ElitePool5clearEv
FNDA:4,_ZN4givp6detail9ElitePool8keep_topEm
FNF:11
FNH:11
DA:21,3700
DA:23,3700
DA:24,3700
DA:25,21140
DA:26,17440
DA:27,3700
DA:31,128
DA:34,128
DA:35,128
DA:36,688
DA:37,560
DA:38,128
DA:39,128
DA:41,2156
DA:42,4243
DA:43,3700
DA:44,1613
DA:47,543
DA:48,331
DA:49,331
DA:50,895
DA:51,895
DA:53,331
DA:57,212
DA:58,12
DA:59,12
DA:60,12
DA:61,92
DA:62,92
DA:64,12
DA:66,200
DA:69,12
DA:70,20
DA:71,8
DA:74,1972
DA:75,1972
DA:78,408
DA:79,4
DA:80,4
DA:82,4
DA:83,4
DA:84,4
LF:42
LH:42
end_of_record
TN:
SF:/workspace/cpp/include/givp/detail/grasp.hpp
FN:107,153,_ZN4givp6detail15construct_graspIZNS0_3runIRFdRKSt6vectorIdSaIdEEEEENS_14OptimizeResultEOT_RKS3_ISt4pairIddESaISE_EENS_10GivpConfigEEUlS7_E_NS0_3RngEEESD_IS5_dEmS7_S7_RKSB_PS6_dmmRSt8optionalINS0_15EvaluationCacheEERT0_RKSQ_INSt6chrono10time_pointINSW_3_V212steady_clockENSW_8durationIlSt5ratioILl1ELl1000000000EEEEEEE
FN:107,153,_ZN4givp6detail15construct_graspIZNS0_3runIRZL22CATCH2_INTERNAL_TEST_6vEUlRKSt6vectorIdSaIdEEE_EENS_14OptimizeResultEOT_RKS3_ISt4pairIddESaISE_EENS_10GivpConfigEEUlS7_E_NS0_3RngEEESD_IS5_dEmS7_S7_RKSB_PS6_dmmRSt8optionalINS0_15EvaluationCacheEERT0_RKSQ_INSt6chrono10time_pointINSW_3_V212steady_clockENSW_8durationIlSt5ratioILl1ELl1000000000EEEEEEE
FN:107,153,_ZN4givp6detail15construct_graspIZNS0_3runIRZL22CATCH2_INTERNAL_TEST_8vEUlRKSt6vectorIdSaIdEEE_EENS_14OptimizeResultEOT_RKS3_ISt4pairIddESaISE_EENS_10GivpConfigEEUlS7_E_NS0_3RngEEESD_IS5_dEmS7_S7_RKSB_PS6_dmmRSt8optionalINS0_15EvaluationCacheEERT0_RKSQ_INSt6chrono10time_pointINSW_3_V212steady_clockENSW_8durationIlSt5ratioILl1ELl1000000000EEEEEEE
FN:107,153,_ZN4givp6detail15construct_graspIZNS0_3runIRZL23CATCH2_INTERNAL_TEST_12vEUlRKSt6vectorIdSaIdEEE_EENS_14OptimizeResultEOT_RKS3_ISt4pairIddESaISE_EENS_10GivpConfigEEUlS7_E_NS0_3RngEEESD_IS5_dEmS7_S7_RKSB_PS6_dmmRSt8optionalINS0_15EvaluationCacheEERT0_RKSQ_INSt6chrono10time_pointINSW_3_V212steady_clockENSW_8durationIlSt5ratioILl1ELl1000000000EEEEEEE
FN:107,153,_ZN4givp6detail15construct_graspIZNS0_3runIRZL23CATCH2_INTERNAL_TEST_14vEUlRKSt6vectorIdSaIdEEE_EENS_14OptimizeResultEOT_RKS3_ISt4pairIddESaISE_EENS_10GivpConfigEEUlS7_E_NS0_3RngEEESD_IS5_dEmS7_S7_RKSB_PS6_dmmRSt8optionalINS0_15EvaluationCacheEERT0_RKSQ_INSt6chrono10time_pointINSW_3_V212steady_clockENSW_8durationIlSt5ratioILl1ELl1000000000EEEEEEE
FN:107,153,_ZN4givp6detail15construct_graspIZNS0_3runIRZL23CATCH2_INTERNAL_TEST_16vEUlRKSt6vectorIdSaIdEEE_EENS_14OptimizeResultEOT_RKS3_ISt4pairIddESaISE_EENS_10GivpConfigEEUlS7_E_NS0_3RngEEESD_IS5_dEmS7_S7_RKSB_PS6_dmmRSt8optionalINS0_15EvaluationCacheEERT0_RKSQ_INSt6chrono10time_pointINSW_3_V212steady_clockENSW_8durationIlSt5ratioILl1ELl1000000000EEEEEEE
FN:107,153,_ZN4givp6detail15construct_graspIZNS0_3runIRZL23CATCH2_INTERNAL_TEST_28vEUlRKSt6vectorIdSaIdEEE_EENS_14OptimizeResultEOT_RKS3_ISt4pairIddESaISE_EENS_10GivpConfigEEUlS7_E_NS0_3RngEEESD_IS5_dEmS7_S7_RKSB_PS6_dmmRSt8optionalINS0_15EvaluationCacheEERT0_RKSQ_INSt6chrono10time_pointINSW_3_V212steady_clockENSW_8durationIlSt5ratioILl1ELl1000000000EEEEEEE
FN:107,153,_ZN4givp6detail15construct_graspIZNS0_3runIRZL23CATCH2_INTERNAL_TEST_42vEUlRKSt6vectorIdSaIdEEE_EENS_14OptimizeResultEOT_RKS3_ISt4pairIddESaISE_EENS_10GivpConfigEEUlS7_E_NS0_3RngEEESD_IS5_dEmS7_S7_RKSB_PS6_dmmRSt8optionalINS0_15EvaluationCacheEERT0_RKSQ_INSt6chrono10time_pointINSW_3_V212steady_clockENSW_8durationIlSt5ratioILl1ELl1000000000EEEEEEE
FN:107,153,_ZN4givp6detail15construct_graspIZNS0_3runIRZL23CATCH2_INTERNAL_TEST_44vEUlRKSt6vectorIdSaIdEEE_EENS_14OptimizeResultEOT_RKS3_ISt4pairIddESaISE_EENS_10GivpConfigEEUlS7_E_NS0_3RngEEESD_IS5_dEmS7_S7_RKSB_PS6_dmmRSt8optionalINS0_15EvaluationCacheEERT0_RKSQ_INSt6chrono10time_pointINSW_3_V212steady_clockENSW_8durationIlSt5ratioILl1ELl1000000000EEEEEEE
FN:107,153,_ZN4givp6detail15construct_graspIZNS0_3runIZL23CATCH2_INTERNAL_TEST_16vEUlRKSt6vectorIdSaIdEEE_EENS_14OptimizeResultEOT_RKS3_ISt4pairIddESaISD_EENS_10GivpConfigEEUlS7_E_NS0_3RngEEESC_IS5_dEmS7_S7_RKSA_PS6_dmmRSt8optionalINS0_15EvaluationCacheEERT0_RKSP_INSt6chrono10time_pointINSV_3_V212steady_clockENSV_8durationIlSt5ratioILl1ELl1000000000EEEEEEE
FN:107,153,_ZN4givp6detail15construct_graspIZNS0_3runIZL23CATCH2_INTERNAL_TEST_18vEUlRKSt6vectorIdSaIdEEE_EENS_14OptimizeResultEOT_RKS3_ISt4pairIddESaISD_EENS_10GivpConfigEEUlS7_E_NS0_3RngEEESC_IS5_dEmS7_S7_RKSA_PS6_dmmRSt8optionalINS0_15EvaluationCacheEERT0_RKSP_INSt6chrono10time_pointINSV_3_V212steady_clockENSV_8durationIlSt5ratioILl1ELl1000000000EEEEEEE
FN:107,153,_ZN4givp6detail15construct_graspIZNS0_3runIZL23CATCH2_INTERNAL_TEST_20vEUlRKSt6vectorIdSaIdEEE_EENS_14OptimizeResultEOT_RKS3_ISt4pairIddESaISD_EENS_10GivpConfigEEUlS7_E_NS0_3RngEEESC_IS5_dEmS7_S7_RKSA_PS6_dmmRSt8optionalINS0_15EvaluationCacheEERT0_RKSP_INSt6chrono10time_pointINSV_3_V212steady_clockENSV_8durationIlSt5ratioILl1ELl1000000000EEEEEEE
FN:107,153,_ZN4givp6detail15construct_graspIZNS0_3runIZL23CATCH2_INTERNAL_TEST_22vEUlRKSt6vectorIdSaIdEEE_EENS_14OptimizeResultEOT_RKS3_ISt4pairIddESaISD_EENS_10GivpConfigEEUlS7_E_NS0_3RngEEESC_IS5_dEmS7_S7_RKSA_PS6_dmmRSt8optionalINS0_15EvaluationCacheEERT0_RKSP_INSt6chrono10time_pointINSV_3_V212steady_clockENSV_8durationIlSt5ratioILl1ELl1000000000EEEEEEE
FN:107,153,_ZN4givp6detail15construct_graspIZNS0_3runIZL23CATCH2_INTERNAL_TEST_24vEUlRKSt6vectorIdSaIdEEE_EENS_14OptimizeResultEOT_RKS3_ISt4pairIddESaISD_EENS_10GivpConfigEEUlS7_E_NS0_3RngEEESC_IS5_dEmS7_S7_RKSA_PS6_dmmRSt8optionalINS0_15EvaluationCacheEERT0_RKSP_INSt6chrono10time_pointINSV_3_V212steady_clockENSV_8durationIlSt5ratioILl1ELl1000000000EEEEEEE
FN:19,28,_ZN4givp6detail17get_current_alphaEmmddbd
FN:33,45,_ZN4givp6detail19evaluate_with_cacheIZL23CATCH2_INTERNAL_TEST_38vEUlRKSt6vectorIdSaIdEEE_EEdS6_RKT_RSt8optionalINS0_15EvaluationCacheEEm
FN:33,45,_ZN4givp6detail19evaluate_with_cacheIZL23CATCH2_INTERNAL_TEST_40vEUlRKSt6vectorIdSaIdEEE_EEdS6_RKT_RSt8optionalINS0_15EvaluationCacheEEm
FN:33,45,_ZN4givp6detail19evaluate_with_cacheIZNS0_3runIRFdRKSt6vectorIdSaIdEEEEENS_14OptimizeResultEOT_RKS3_ISt4pairIddESaISE_EENS_10GivpConfigEEUlS7_E_EEdS7_RKSB_RSt8optionalINS0_15EvaluationCacheEEm
FN:33,45,_ZN4givp6detail19evaluate_with_cacheIZNS0_3runIRZL22CATCH2_INTERNAL_TEST_6vEUlRKSt6vectorIdSaIdEEE_EENS_14OptimizeResultEOT_RKS3_ISt4pairIddESaISE_EENS_10GivpConfigEEUlS7_E_EEdS7_RKSB_RSt8optionalINS0_15EvaluationCacheEEm
FN:33,45,_ZN4givp6detail19evaluate_with_cacheIZNS0_3runIRZL22CATCH2_INTERNAL_TEST_8vEUlRKSt6vectorIdSaIdEEE_EENS_14OptimizeResultEOT_RKS3_ISt4pairIddESaISE_EENS_10GivpConfigEEUlS7_E_EEdS7_RKSB_RSt8optionalINS0_15EvaluationCacheEEm
FN:33,45,_ZN4givp6detail19evaluate_with_cacheIZNS0_3runIRZL23CATCH2_INTERNAL_TEST_12vEUlRKSt6vectorIdSaIdEEE_EENS_14OptimizeResultEOT_RKS3_ISt4pairIddESaISE_EENS_10GivpConfigEEUlS7_E_EEdS7_RKSB_RSt8optionalINS0_15EvaluationCacheEEm
FN:33,45,_ZN4givp6detail19evaluate_with_cacheIZNS0_3runIRZL23CATCH2_INTERNAL_TEST_14vEUlRKSt6vectorIdSaIdEEE_EENS_14OptimizeResultEOT_RKS3_ISt4pairIddESaISE_EENS_10GivpConfigEEUlS7_E_EEdS7_RKSB_RSt8optionalINS0_15EvaluationCacheEEm
FN:33,45,_ZN4givp6detail19evaluate_with_cacheIZNS0_3runIRZL23CATCH2_INTERNAL_TEST_16vEUlRKSt6vectorIdSaIdEEE_EENS_14OptimizeResultEOT_RKS3_ISt4pairIddESaISE_EENS_10GivpConfigEEUlS7_E_EEdS7_RKSB_RSt8optionalINS0_15EvaluationCacheEEm
FN:33,45,_ZN4givp6detail19evaluate_with_cacheIZNS0_3runIRZL23CATCH2_INTERNAL_TEST_28vEUlRKSt6vectorIdSaIdEEE_EENS_14OptimizeResultEOT_RKS3_ISt4pairIddESaISE_EENS_10GivpConfigEEUlS7_E_EEdS7_RKSB_RSt8optionalINS0_15EvaluationCacheEEm
FN:33,45,_ZN4givp6detail19evaluate_with_cacheIZNS0_3runIRZL23CATCH2_INTERNAL_TEST_42vEUlRKSt6vectorIdSaIdEEE_EENS_14OptimizeResultEOT_RKS3_ISt4pairIddESaISE_EENS_10GivpConfigEEUlS7_E_EEdS7_RKSB_RSt8optionalINS0_15EvaluationCacheEEm
FN:33,45,_ZN4givp6detail19evaluate_with_cacheIZNS0_3runIRZL23CATCH2_INTERNAL_TEST_44vEUlRKSt6vectorIdSaIdEEE_EENS_14OptimizeResultEOT_RKS3_ISt4pairIddESaISE_EENS_10GivpConfigEEUlS7_E_EEdS7_RKSB_RSt8optionalINS0_15EvaluationCacheEEm
FN:33,45,_ZN4givp6detail19evaluate_with_cacheIZNS0_3runIZL23CATCH2_INTERNAL_TEST_16vEUlRKSt6vectorIdSaIdEEE_EENS_14OptimizeResultEOT_RKS3_ISt4pairIddESaISD_EENS_10GivpConfigEEUlS7_E_EEdS7_RKSA_RSt8optionalINS0_15EvaluationCacheEEm
FN:33,45,_ZN4givp6detail19evaluate_with_cacheIZNS0_3runIZL23CATCH2_INTERNAL_TEST_18vEUlRKSt6vectorIdSaIdEEE_EENS_14OptimizeResultEOT_RKS3_ISt4pairIddESaISD_EENS_10GivpConfigEEUlS7_E_EEdS7_RKSA_RSt8optionalINS0_15EvaluationCacheEEm
FN:33,45,_ZN4givp6detail19evaluate_with_cacheIZNS0_3runIZL23CATCH2_INTERNAL_TEST_20vEUlRKSt6vectorIdSaIdEEE_EENS_14OptimizeResultEOT_RKS3_ISt4pairIddESaISD_EENS_10GivpConfigEEUlS7_E_EEdS7_RKSA_RSt8optionalINS0_15EvaluationCacheEEm
FN:33,45,_ZN4givp6detail19evaluate_with_cacheIZNS0_3runIZL23CATCH2_INTERNAL_TEST_22vEUlRKSt6vectorIdSaIdEEE_EENS_14OptimizeResultEOT_RKS3_ISt4pairIddESaISD_EENS_10GivpConfigEEUlS7_E_EEdS7_RKSA_RSt8optionalINS0_15EvaluationCacheEEm
FN:33,45,_ZN4givp6detail19evaluate_with_cacheIZNS0_3runIZL23CATCH2_INTERNAL_TEST_24vEUlRKSt6vectorIdSaIdEEE_EENS_14OptimizeResultEOT_RKS3_ISt4pairIddESaISD_EENS_10GivpConfigEEUlS7_E_EEdS7_RKSA_RSt8optionalINS0_15EvaluationCacheEEm
FN:50,62,_ZN4givp6detailL15select_from_rclINS0_3RngEEEmRKSt6vectorIdSaIdEEdRT_
FN:67,72,_ZN4givp6detailL26sample_integer_from_boundsINS0_3RngEEEdddRT_
FN:75,85,_ZN4givp6detailL22build_random_candidateINS0_3RngEEESt6vectorIdSaIdEEmmRKS5_S7_RT_
FN:88,102,_ZN4givp6detailL25build_heuristic_candidateINS0_3RngEEESt6vectorIdSaIdEEmmRKS5_S7_RT_
FNDA:1727,_ZN4givp6detail15construct_graspIZNS0_3runIRFdRKSt6vectorIdSaIdEEEEENS_14OptimizeResultEOT_RKS3_ISt4pairIddESaISE_EENS_10GivpConfigEEUlS7_E_NS0_3RngEEESD_IS5_dEmS7_S7_RKSB_PS6_dmmRSt8optionalINS0_15EvaluationCacheEERT0_RKSQ_INSt6chrono10time_pointINSW_3_V212steady_clockENSW_8durationIlSt5ratioILl1ELl1000000000EEEEEEE
FNDA:96,_ZN4givp6detail15construct_graspIZNS0_3runIRZL22CATCH2_INTERNAL_TEST_6vEUlRKSt6vectorIdSaIdEEE_EENS_14OptimizeResultEOT_RKS3_ISt4pairIddESaISE_EENS_10GivpConfigEEUlS7_E_NS0_3RngEEESD_IS5_dEmS7_S7_RKSB_PS6_dmmRSt8optionalINS0_15EvaluationCacheEERT0_RKSQ_INSt6chrono10time_pointINSW_3_V212steady_clockENSW_8durationIlSt5ratioILl1ELl1000000000EEEEEEE
FNDA:136,_ZN4givp6detail15construct_graspIZNS0_3runIRZL22CATCH2_INTERNAL_TEST_8vEUlRKSt6vectorIdSaIdEEE_EENS_14OptimizeResultEOT_RKS3_ISt4pairIddESaISE_EENS_10GivpConfigEEUlS7_E_NS0_3RngEEESD_IS5_dEmS7_S7_RKSB_PS6_dmmRSt8optionalINS0_15EvaluationCacheEERT0_RKSQ_INSt6chrono10time_pointINSW_3_V212steady_clockENSW_8durationIlSt5ratioILl1ELl1000000000EEEEEEE
FNDA:64,_ZN4givp6detail15construct_graspIZNS0_3runIRZL23CATCH2_INTERNAL_TEST_12vEUlRKSt6vectorIdSaIdEEE_EENS_14OptimizeResultEOT_RKS3_ISt4pairIddESaISE_EENS_10GivpConfigEEUlS7_E_NS0_3RngEEESD_IS5_dEmS7_S7_RKSB_PS6_dmmRSt8optionalINS0_15EvaluationCacheEERT0_RKSQ_INSt6chrono10time_pointINSW_3_V212steady_clockENSW_8durationIlSt5ratioILl1ELl1000000000EEEEEEE
FNDA:96,_ZN4givp6detail15construct_graspIZNS0_3runIRZL23CATCH2_INTERNAL_TEST_14vEUlRKSt6vectorIdSaIdEEE_EENS_14OptimizeResultEOT_RKS3_ISt4pairIddESaISE_EENS_10GivpConfigEEUlS7_E_NS0_3RngEEESD_IS5_dEmS7_S7_RKSB_PS6_dmmRSt8optionalINS0_15EvaluationCacheEERT0_RKSQ_INSt6chrono10time_pointINSW_3_V212steady_clockENSW_8durationIlSt5ratioILl1ELl1000000000EEEEEEE
FNDA:96,_ZN4givp6detail15construct_graspIZNS0_3runIRZL23CATCH2_INTERNAL_TEST_16vEUlRKSt6vectorIdSaIdEEE_EENS_14OptimizeResultEOT_RKS3_ISt4pairIddESaISE_EENS_10GivpConfigEEUlS7_E_NS0_3RngEEESD_IS5_dEmS7_S7_RKSB_PS6_dmmRSt8optionalINS0_15EvaluationCacheEERT0_RKSQ_INSt6chrono10time_pointINSW_3_V212steady_clockENSW_8durationIlSt5ratioILl1ELl1000000000EEEEEEE
FNDA:32,_ZN4givp6detail15construct_graspIZNS0_3runIRZL23CATCH2_INTERNAL_TEST_28vEUlRKSt6vectorIdSaIdEEE_EENS_14OptimizeResultEOT_RKS3_ISt4pairIddESaISE_EENS_10GivpConfigEEUlS7_E_NS0_3RngEEESD_IS5_dEmS7_S7_RKSB_PS6_dmmRSt8optionalINS0_15EvaluationCacheEERT0_RKSQ_INSt6chrono10time_pointINSW_3_V212steady_clockENSW_8durationIlSt5ratioILl1ELl1000000000EEEEEEE
FNDA:20,_ZN4givp6detail15construct_graspIZNS0_3runIRZL23CATCH2_INTERNAL_TEST_42vEUlRKSt6vectorIdSaIdEEE_EENS_14OptimizeResultEOT_RKS3_ISt4pairIddESaISE_EENS_10GivpConfigEEUlS7_E_NS0_3RngEEESD_IS5_dEmS7_S7_RKSB_PS6_dmmRSt8optionalINS0_15EvaluationCacheEERT0_RKSQ_INSt6chrono10time_pointINSW_3_V212steady_clockENSW_8durationIlSt5ratioILl1ELl1000000000EEEEEEE
FNDA:52,_ZN4givp6detail15construct_graspIZNS0_3runIRZL23CATCH2_INTERNAL_TEST_44vEUlRKSt6vectorIdSaIdEEE_EENS_14OptimizeResultEOT_RKS3_ISt4pairIddESaISE_EENS_10GivpConfigEEUlS7_E_NS0_3RngEEESD_IS5_dEmS7_S7_RKSB_PS6_dmmRSt8optionalINS0_15EvaluationCacheEERT0_RKSQ_INSt6chrono10time_pointINSW_3_V212steady_clockENSW_8durationIlSt5ratioILl1ELl1000000000EEEEEEE
FNDA:0,_ZN4givp6detail15construct_graspIZNS0_3runIZL23CATCH2_INTERNAL_TEST_16vEUlRKSt6vectorIdSaIdEEE_EENS_14OptimizeResultEOT_RKS3_ISt4pairIddESaISD_EENS_10GivpConfigEEUlS7_E_NS0_3RngEEESC_IS5_dEmS7_S7_RKSA_PS6_dmmRSt8optionalINS0_15EvaluationCacheEERT0_RKSP_INSt6chrono10time_pointINSV_3_V212steady_clockENSV_8durationIlSt5ratioILl1ELl1000000000EEEEEEE
FNDA:0,_ZN4givp6detail15construct_graspIZNS0_3runIZL23CATCH2_INTERNAL_TEST_18vEUlRKSt6vectorIdSaIdEEE_EENS_14OptimizeResultEOT_RKS3_ISt4pairIddESaISD_EENS_10GivpConfigEEUlS7_E_NS0_3RngEEESC_IS5_dEmS7_S7_RKSA_PS6_dmmRSt8optionalINS0_15EvaluationCacheEERT0_RKSP_INSt6chrono10time_pointINSV_3_V212steady_clockENSV_8durationIlSt5ratioILl1ELl1000000000EEEEEEE
FNDA:0,_ZN4givp6detail15construct_graspIZNS0_3runIZL23CATCH2_INTERNAL_TEST_20vEUlRKSt6vectorIdSaIdEEE_EENS_14OptimizeResultEOT_RKS3_ISt4pairIddESaISD_EENS_10GivpConfigEEUlS7_E_NS0_3RngEEESC_IS5_dEmS7_S7_RKSA_PS6_dmmRSt8optionalINS0_15EvaluationCacheEERT0_RKSP_INSt6chrono10time_pointINSV_3_V212steady_clockENSV_8durationIlSt5ratioILl1ELl1000000000EEEEEEE
FNDA:0,_ZN4givp6detail15construct_graspIZNS0_3runIZL23CATCH2_INTERNAL_TEST_22vEUlRKSt6vectorIdSaIdEEE_EENS_14OptimizeResultEOT_RKS3_ISt4pairIddESaISD_EENS_10GivpConfigEEUlS7_E_NS0_3RngEEESC_IS5_dEmS7_S7_RKSA_PS6_dmmRSt8optionalINS0_15EvaluationCacheEERT0_RKSP_INSt6chrono10time_pointINSV_3_V212steady_clockENSV_8durationIlSt5ratioILl1ELl1000000000EEEEEEE
FNDA:0,_ZN4givp6detail15construct_graspIZNS0_3runIZL23CATCH2_INTERNAL_TEST_24vEUlRKSt6vectorIdSaIdEEE_EENS_14OptimizeResultEOT_RKS3_ISt4pairIddESaISD_EENS_10GivpConfigEEUlS7_E_NS0_3RngEEESC_IS5_dEmS7_S7_RKSA_PS6_dmmRSt8optionalINS0_15EvaluationCacheEERT0_RKSP_INSt6chrono10time_pointINSV_3_V212steady_clockENSV_8durationIlSt5ratioILl1ELl1000000000EEEEEEE
FNDA:2004,_ZN4givp6detail17get_current_alphaEmmddbd
FNDA:88,_ZN4givp6detail19evaluate_with_cacheIZL23CATCH2_INTERNAL_TEST_38vEUlRKSt6vectorIdSaIdEEE_EEdS6_RKT_RSt8optionalINS0_15EvaluationCacheEEm
FNDA:8,_ZN4givp6detail19evaluate_with_cacheIZL23CATCH2_INTERNAL_TEST_40vEUlRKSt6vectorIdSaIdEEE_EEdS6_RKT_RSt8optionalINS0_15EvaluationCacheEEm
FNDA:228257598,_ZN4givp6detail19evaluate_with_cacheIZNS0_3runIRFdRKSt6vectorIdSaIdEEEEENS_14OptimizeResultEOT_RKS3_ISt4pairIddESaISE_EENS_10GivpConfigEEUlS7_E_EEdS7_RKSB_RSt8optionalINS0_15EvaluationCacheEEm
FNDA:12993024,_ZN4givp6detail19evaluate_with_cacheIZNS0_3runIRZL22CATCH2_INTERNAL_TEST_6vEUlRKSt6vectorIdSaIdEEE_EENS_14OptimizeResultEOT_RKS3_ISt4pairIddESaISE_EENS_10GivpConfigEEUlS7_E_EEdS7_RKSB_RSt8optionalINS0_15EvaluationCacheEEm
FNDA:18671004,_ZN4givp6detail19evaluate_with_cacheIZNS0_3runIRZL22CATCH2_INTERNAL_TEST_8vEUlRKSt6vectorIdSaIdEEE_EENS_14OptimizeResultEOT_RKS3_ISt4pairIddESaISE_EENS_10GivpConfigEEUlS7_E_EEdS7_RKSB_RSt8optionalINS0_15EvaluationCacheEEm
FNDA:6896168,_ZN4givp6detail19evaluate_with_cacheIZNS0_3runIRZL23CATCH2_INTERNAL_TEST_12vEUlRKSt6vectorIdSaIdEEE_EENS_14OptimizeResultEOT_RKS3_ISt4pairIddESaISE_EENS_10GivpConfigEEUlS7_E_EEdS7_RKSB_RSt8optionalINS0_15EvaluationCacheEEm
FNDA:10141184,_ZN4givp6detail19evaluate_with_cacheIZNS0_3runIRZL23CATCH2_INTERNAL_TEST_14vEUlRKSt6vectorIdSaIdEEE_EENS_14OptimizeResultEOT_RKS3_ISt4pairIddESaISE_EENS_10GivpConfigEEUlS7_E_EEdS7_RKSB_RSt8optionalINS0_15EvaluationCacheEEm
FNDA:10007752,_ZN4givp6detail19evaluate_with_cacheIZNS0_3runIRZL23CATCH2_INTERNAL_TEST_16vEUlRKSt6vectorIdSaIdEEE_EENS_14OptimizeResultEOT_RKS3_ISt4pairIddESaISE_EENS_10GivpConfigEEUlS7_E_EEdS7_RKSB_RSt8optionalINS0_15EvaluationCacheEEm
FNDA:119448,_ZN4givp6detail19evaluate_with_cacheIZNS0_3runIRZL23CATCH2_INTERNAL_TEST_28vEUlRKSt6vectorIdSaIdEEE_EENS_14OptimizeResultEOT_RKS3_ISt4pairIddESaISE_EENS_10GivpConfigEEUlS7_E_EEdS7_RKSB_RSt8optionalINS0_15EvaluationCacheEEm
FNDA:22296,_ZN4givp6detail19evaluate_with_cacheIZNS0_3runIRZL23CATCH2_INTERNAL_TEST_42vEUlRKSt6vectorIdSaIdEEE_EENS_14OptimizeResultEOT_RKS3_ISt4pairIddESaISE_EENS_10GivpConfigEEUlS7_E_EEdS7_RKSB_RSt8optionalINS0_15EvaluationCacheEEm
FNDA:10540,_ZN4givp6detail19evaluate_with_cacheIZNS0_3runIRZL23CATCH2_INTERNAL_TEST_44vEUlRKSt6vectorIdSaIdEEE_EENS_14OptimizeResultEOT_RKS3_ISt4pairIddESaISE_EENS_10GivpConfigEEUlS7_E_EEdS7_RKSB_RSt8optionalINS0_15EvaluationCacheEEm
FNDA:0,_ZN4givp6detail19evaluate_with_cacheIZNS0_3runIZL23CATCH2_INTERNAL_TEST_16vEUlRKSt6vectorIdSaIdEEE_EENS_14OptimizeResultEOT_RKS3_ISt4pairIddESaISD_EENS_10GivpConfigEEUlS7_E_EEdS7_RKSA_RSt8optionalINS0_15EvaluationCacheEEm
FNDA:0,_ZN4givp6detail19evaluate_with_cacheIZNS0_3runIZL23CATCH2_INTERNAL_TEST_18vEUlRKSt6vectorIdSaIdEEE_EENS_14OptimizeResultEOT_RKS3_ISt4pairIddESaISD_EENS_10GivpConfigEEUlS7_E_EEdS7_RKSA_RSt8optionalINS0_15EvaluationCacheEEm
FNDA:0,_ZN4givp6detail19evaluate_with_cacheIZNS0_3runIZL23CATCH2_INTERNAL_TEST_20vEUlRKSt6vectorIdSaIdEEE_EENS_14OptimizeResultEOT_RKS3_ISt4pairIddESaISD_EENS_10GivpConfigEEUlS7_E_EEdS7_RKSA_RSt8optionalINS0_15EvaluationCacheEEm
FNDA:0,_ZN4givp6detail19evaluate_with_cacheIZNS0_3runIZL23CATCH2_INTERNAL_TEST_22vEUlRKSt6vectorIdSaIdEEE_EENS_14OptimizeResultEOT_RKS3_ISt4pairIddESaISD_EENS_10GivpConfigEEUlS7_E_EEdS7_RKSA_RSt8optionalINS0_15EvaluationCacheEEm
FNDA:0,_ZN4givp6detail19evaluate_with_cacheIZNS0_3runIZL23CATCH2_INTERNAL_TEST_24vEUlRKSt6vectorIdSaIdEEE_EENS_14OptimizeResultEOT_RKS3_ISt4pairIddESaISD_EENS_10GivpConfigEEUlS7_E_EEdS7_RKSA_RSt8optionalINS0_15EvaluationCacheEEm
FNDA:2319,_ZN4givp6detailL15select_from_rclINS0_3RngEEEmRKSt6vectorIdSaIdEEdRT_
FNDA:19832,_ZN4givp6detailL26sample_integer_from_boundsINS0_3RngEEEdddRT_
FNDA:44049,_ZN4givp6detailL22build_random_candidateINS0_3RngEEESt6vectorIdSaIdEEmmRKS5_S7_RT_
FNDA:2319,_ZN4givp6detailL25build_heuristic_candidateINS0_3RngEEESt6vectorIdSaIdEEmmRKS5_S7_RT_
FNF:35
FNH:25
DA:19,2004
DA:23,2004
DA:25,1964
DA:26,1964
DA:27,1964
DA:33,287119110
DA:37,287119110
DA:38,284935674
DA:39,284935674
DA:40,230060662
DA:41,230060662
DA:42,230060662
DA:44,2183436
DA:50,2319
DA:52,2319
DA:53,2319
DA:54,2319
DA:56,2319
DA:57,48699
DA:58,46380
DA:60,2319
DA:61,2319
DA:62,2319
DA:67,19832
DA:68,19832
DA:69,19832
DA:70,19832
DA:71,18712
DA:75,44049
DA:79,44049
DA:80,251212
DA:81,207163
DA:82,62889
DA:83,18840
DA:84,44049
DA:85,0
DA:88,4638
DA:92,2319
DA:93,13224
DA:94,10905
DA:95,10905
DA:96,10905
DA:97,10905
DA:99,3311
DA:100,992
DA:101,2319
DA:102,0
DA:107,2319
DA:116,2319
DA:117,2319
DA:118,2319
DA:119,2319
DA:122,2319
DA:123,12
DA:124,12
DA:125,12
DA:126,12
DA:127,12
DA:128,12
DA:131,2319
DA:132,2319
DA:133,2319
DA:134,2319
DA:135,2319
DA:136,2319
DA:137,2319
DA:140,90417
DA:141,44049
DA:142,44049
DA:143,44049
DA:144,44049
DA:145,44049
DA:146,44049
DA:149,2319
DA:150,2319
DA:151,2319
DA:152,4638
DA:153,2319
LF:78
LH:76
end_of_record
TN:
SF:/workspace/cpp/include/givp/detail/helpers.hpp
FN:24,24,_ZN4givp6detail3RngC2Em
FN:26,32,_ZN4givp6detail3Rng9from_seedESt8optionalImE
FN:35,38,_ZN4givp6detail3Rng5childEv
FN:40,43,_ZN4givp6detail3Rng7uniformEdd
FN:45,48,_ZN4givp6detail3Rng11uniform_intEll
FN:50,53,_ZN4givp6detail3Rng13uniform_indexEmm
FN:55,55,_ZN4givp6detail3Rng13random_doubleEv
FN:60,63,_ZN4givp6detail8get_halfEmSt8optionalImE
FN:65,68,_ZN4givp6detail7expiredERKSt8optionalINSt6chrono10time_pointINS2_3_V212steady_clockENS2_8durationIlSt5ratioILl1ELl1000000000EEEEEEE
FN:71,78,_ZN4givp6detail13safe_evaluateIZL23CATCH2_INTERNAL_TEST_38vEUlRKSt6vectorIdSaIdEEE_EEdRKT_S6_
FN:71,78,_ZN4givp6detail13safe_evaluateIZL23CATCH2_INTERNAL_TEST_40vEUlRKSt6vectorIdSaIdEEE_EEdRKT_S6_
FN:71,78,_ZN4givp6detail13safe_evaluateIZNS0_3runIRFdRKSt6vectorIdSaIdEEEEENS_14OptimizeResultEOT_RKS3_ISt4pairIddESaISE_EENS_10GivpConfigEEUlS7_E_EEdRKSB_S7_
FN:71,78,_ZN4givp6detail13safe_evaluateIZNS0_3runIRZL22CATCH2_INTERNAL_TEST_6vEUlRKSt6vectorIdSaIdEEE_EENS_14OptimizeResultEOT_RKS3_ISt4pairIddESaISE_EENS_10GivpConfigEEUlS7_E_EEdRKSB_S7_
FN:71,78,_ZN4givp6detail13safe_evaluateIZNS0_3runIRZL22CATCH2_INTERNAL_TEST_8vEUlRKSt6vectorIdSaIdEEE_EENS_14OptimizeResultEOT_RKS3_ISt4pairIddESaISE_EENS_10GivpConfigEEUlS7_E_EEdRKSB_S7_
FN:71,78,_ZN4givp6detail13safe_evaluateIZNS0_3runIRZL23CATCH2_INTERNAL_TEST_12vEUlRKSt6vectorIdSaIdEEE_EENS_14OptimizeResultEOT_RKS3_ISt4pairIddESaISE_EENS_10GivpConfigEEUlS7_E_EEdRKSB_S7_
FN:71,78,_ZN4givp6detail13safe_evaluateIZNS0_3runIRZL23CATCH2_INTERNAL_TEST_14vEUlRKSt6vectorIdSaIdEEE_EENS_14OptimizeResultEOT_RKS3_ISt4pairIddESaISE_EENS_10GivpConfigEEUlS7_E_EEdRKSB_S7_
FN:71,78,_ZN4givp6detail13safe_evaluateIZNS0_3runIRZL23CATCH2_INTERNAL_TEST_16vEUlRKSt6vectorIdSaIdEEE_EENS_14OptimizeResultEOT_RKS3_ISt4pairIddESaISE_EENS_10GivpConfigEEUlS7_E_EEdRKSB_S7_
FN:71,78,_ZN4givp6detail13safe_evaluateIZNS0_3runIRZL23CATCH2_INTERNAL_TEST_28vEUlRKSt6vectorIdSaIdEEE_EENS_14OptimizeResultEOT_RKS3_ISt4pairIddESaISE_EENS_10GivpConfigEEUlS7_E_EEdRKSB_S7_
FN:71,78,_ZN4givp6detail13safe_evaluateIZNS0_3runIRZL23CATCH2_INTERNAL_TEST_42vEUlRKSt6vectorIdSaIdEEE_EENS_14OptimizeResultEOT_RKS3_ISt4pairIddESaISE_EENS_10GivpConfigEEUlS7_E_EEdRKSB_S7_
FN:71,78,_ZN4givp6detail13safe_evaluateIZNS0_3runIRZL23CATCH2_INTERNAL_TEST_44vEUlRKSt6vectorIdSaIdEEE_EENS_14OptimizeResultEOT_RKS3_ISt4pairIddESaISE_EENS_10GivpConfigEEUlS7_E_EEdRKSB_S7_
FN:71,78,_ZN4givp6detail13safe_evaluateIZNS0_3runIZL23CATCH2_INTERNAL_TEST_16vEUlRKSt6vectorIdSaIdEEE_EENS_14OptimizeResultEOT_RKS3_ISt4pairIddESaISD_EENS_10GivpConfigEEUlS7_E_EEdRKSA_S7_
FN:71,78,_ZN4givp6detail13safe_evaluateIZNS0_3runIZL23CATCH2_INTERNAL_TEST_18vEUlRKSt6vectorIdSaIdEEE_EENS_14OptimizeResultEOT_RKS3_ISt4pairIddESaISD_EENS_10GivpConfigEEUlS7_E_EEdRKSA_S7_
FN:71,78,_ZN4givp6detail13safe_evaluateIZNS0_3runIZL23CATCH2_INTERNAL_TEST_20vEUlRKSt6vectorIdSaIdEEE_EENS_14OptimizeResultEOT_RKS3_ISt4pairIddESaISD_EENS_10GivpConfigEEUlS7_E_EEdRKSA_S7_
FN:71,78,_ZN4givp6detail13safe_evaluateIZNS0_3runIZL23CATCH2_INTERNAL_TEST_22vEUlRKSt6vectorIdSaIdEEE_EENS_14OptimizeResultEOT_RKS3_ISt4pairIddESaISD_EENS_10GivpConfigEEUlS7_E_EEdRKSA_S7_
FN:71,78,_ZN4givp6detail13safe_evaluateIZNS0_3runIZL23CATCH2_INTERNAL_TEST_24vEUlRKSt6vectorIdSaIdEEE_EENS_14OptimizeResultEOT_RKS3_ISt4pairIddESaISD_EENS_10GivpConfigEEUlS7_E_EEdRKSA_S7_
FN:80,84,_ZN4givp6detail22normalize_integer_tailERSt6vectorIdSaIdEEm
FN:86,88,_ZN4givp6detail9clamp_valEddd
FNDA:2423,_ZN4givp6detail3RngC2Em
FNDA:104,_ZN4givp6detail3Rng9from_seedESt8optionalImE
FNDA:2319,_ZN4givp6detail3Rng5childEv
FNDA:713124377,_ZN4givp6detail3Rng7uniformEdd
FNDA:18712,_ZN4givp6detail3Rng11uniform_intEll
FNDA:705160391,_ZN4givp6detail3Rng13uniform_indexEmm
FNDA:5917,_ZN4givp6detail3Rng13random_doubleEv
FNDA:96,_ZN4givp6detail8get_halfEmSt8optionalImE
FNDA:298233657,_ZN4givp6detail7expiredERKSt8optionalINSt6chrono10time_pointINS2_3_V212steady_clockENS2_8durationIlSt5ratioILl1ELl1000000000EEEEEEE
FNDA:88,_ZN4givp6detail13safe_evaluateIZL23CATCH2_INTERNAL_TEST_38vEUlRKSt6vectorIdSaIdEEE_EEdRKT_S6_
FNDA:8,_ZN4givp6detail13safe_evaluateIZL23CATCH2_INTERNAL_TEST_40vEUlRKSt6vectorIdSaIdEEE_EEdRKT_S6_
FNDA:200719142,_ZN4givp6detail13safe_evaluateIZNS0_3runIRFdRKSt6vectorIdSaIdEEEEENS_14OptimizeResultEOT_RKS3_ISt4pairIddESaISE_EENS_10GivpConfigEEUlS7_E_EEdRKSB_S7_
FNDA:12856836,_ZN4givp6detail13safe_evaluateIZNS0_3runIRZL22CATCH2_INTERNAL_TEST_6vEUlRKSt6vectorIdSaIdEEE_EENS_14OptimizeResultEOT_RKS3_ISt4pairIddESaISE_EENS_10GivpConfigEEUlS7_E_EEdRKSB_S7_
FNDA:18476456,_ZN4givp6detail13safe_evaluateIZNS0_3runIRZL22CATCH2_INTERNAL_TEST_8vEUlRKSt6vectorIdSaIdEEE_EENS_14OptimizeResultEOT_RKS3_ISt4pairIddESaISE_EENS_10GivpConfigEEUlS7_E_EEdRKSB_S7_
FNDA:4004,_ZN4givp6detail13safe_evaluateIZNS0_3runIRZL23CATCH2_INTERNAL_TEST_12vEUlRKSt6vectorIdSaIdEEE_EENS_14OptimizeResultEOT_RKS3_ISt4pairIddESaISE_EENS_10GivpConfigEEUlS7_E_EEdRKSB_S7_
FNDA:27596,_ZN4givp6detail13safe_evaluateIZNS0_3runIRZL23CATCH2_INTERNAL_TEST_14vEUlRKSt6vectorIdSaIdEEE_EENS_14OptimizeResultEOT_RKS3_ISt4pairIddESaISE_EENS_10GivpConfigEEUlS7_E_EEdRKSB_S7_
FNDA:20904,_ZN4givp6detail13safe_evaluateIZNS0_3runIRZL23CATCH2_INTERNAL_TEST_16vEUlRKSt6vectorIdSaIdEEE_EENS_14OptimizeResultEOT_RKS3_ISt4pairIddESaISE_EENS_10GivpConfigEEUlS7_E_EEdRKSB_S7_
FNDA:118716,_ZN4givp6detail13safe_evaluateIZNS0_3runIRZL23CATCH2_INTERNAL_TEST_28vEUlRKSt6vectorIdSaIdEEE_EENS_14OptimizeResultEOT_RKS3_ISt4pairIddESaISE_EENS_10GivpConfigEEUlS7_E_EEdRKSB_S7_
FNDA:16060,_ZN4givp6detail13safe_evaluateIZNS0_3runIRZL23CATCH2_INTERNAL_TEST_42vEUlRKSt6vectorIdSaIdEEE_EENS_14OptimizeResultEOT_RKS3_ISt4pairIddESaISE_EENS_10GivpConfigEEUlS7_E_EEdRKSB_S7_
FNDA:4288,_ZN4givp6detail13safe_evaluateIZNS0_3runIRZL23CATCH2_INTERNAL_TEST_44vEUlRKSt6vectorIdSaIdEEE_EENS_14OptimizeResultEOT_RKS3_ISt4pairIddESaISE_EENS_10GivpConfigEEUlS7_E_EEdRKSB_S7_
FNDA:0,_ZN4givp6detail13safe_evaluateIZNS0_3runIZL23CATCH2_INTERNAL_TEST_16vEUlRKSt6vectorIdSaIdEEE_EENS_14OptimizeResultEOT_RKS3_ISt4pairIddESaISD_EENS_10GivpConfigEEUlS7_E_EEdRKSA_S7_
FNDA:0,_ZN4givp6detail13safe_evaluateIZNS0_3runIZL23CATCH2_INTERNAL_TEST_18vEUlRKSt6vectorIdSaIdEEE_EENS_14OptimizeResultEOT_RKS3_ISt4pairIddESaISD_EENS_10GivpConfigEEUlS7_E_EEdRKSA_S7_
FNDA:0,_ZN4givp6detail13safe_evaluateIZNS0_3runIZL23CATCH2_INTERNAL_TEST_20vEUlRKSt6vectorIdSaIdEEE_EENS_14OptimizeResultEOT_RKS3_ISt4pairIddESaISD_EENS_10GivpConfigEEUlS7_E_EEdRKSA_S7_
FNDA:0,_ZN4givp6detail13safe_evaluateIZNS0_3runIZL23CATCH2_INTERNAL_TEST_22vEUlRKSt6vectorIdSaIdEEE_EENS_14OptimizeResultEOT_RKS3_ISt4pairIddESaISD_EENS_10GivpConfigEEUlS7_E_EEdRKSA_S7_
FNDA:0,_ZN4givp6detail13safe_evaluateIZNS0_3runIZL23CATCH2_INTERNAL_TEST_24vEUlRKSt6vectorIdSaIdEEE_EENS_14OptimizeResultEOT_RKS3_ISt4pairIddESaISD_EENS_10GivpConfigEEUlS7_E_EEdRKSA_S7_
FNDA:261320638,_ZN4givp6detail22normalize_integer_tailERSt6vectorIdSaIdEEm
FNDA:719246097,_ZN4givp6detail9clamp_valEddd
FNF:27
FNH:22
DA:24,2423
DA:26,104
DA:27,104
DA:28,4
DA:29,4
DA:30,4
DA:31,4
DA:32,4
DA:35,2319
DA:36,2319
DA:37,4638
DA:40,713124377
DA:41,713124377
DA:42,1426248754
DA:45,18712
DA:46,18712
DA:47,37424
DA:50,705160391
DA:51,705160391
DA:52,1410320782
DA:55,5917
DA:60,96
DA:62,96
DA:65,298233657
DA:66,298233657
DA:67,111302
DA:71,232244098
DA:73,232244098
DA:74,232237378
DA:75,6720
DA:76,6720
DA:80,261320638
DA:82,373825198
DA:83,112504560
DA:84,261320638
DA:86,719246097
DA:87,719246097
LF:37
LH:37
end_of_record
TN:
SF:/workspace/cpp/include/givp/detail/ils.hpp
FN:19,54,_ZN4givp6detailL16perturb_solutionINS0_3RngEEESt6vectorIdSaIdEERKS5_mmS7_S7_RT_
FN:58,102,_ZN4givp6detail10ils_searchIZNS0_3runIRFdRKSt6vectorIdSaIdEEEEENS_14OptimizeResultEOT_RKS3_ISt4pairIddESaISE_EENS_10GivpConfigEEUlS7_E_NS0_3RngEEEdRKSB_RS5_dmS7_S7_mmmRSt8optionalINS0_15EvaluationCacheEERT0_RKSP_INSt6chrono10time_pointINSV_3_V212steady_clockENSV_8durationIlSt5ratioILl1ELl1000000000EEEEEEE
FN:58,102,_ZN4givp6detail10ils_searchIZNS0_3runIRZL22CATCH2_INTERNAL_TEST_6vEUlRKSt6vectorIdSaIdEEE_EENS_14OptimizeResultEOT_RKS3_ISt4pairIddESaISE_EENS_10GivpConfigEEUlS7_E_NS0_3RngEEEdRKSB_RS5_dmS7_S7_mmmRSt8optionalINS0_15EvaluationCacheEERT0_RKSP_INSt6chrono10time_pointINSV_3_V212steady_clockENSV_8durationIlSt5ratioILl1ELl1000000000EEEEEEE
FN:58,102,_ZN4givp6detail10ils_searchIZNS0_3runIRZL22CATCH2_INTERNAL_TEST_8vEUlRKSt6vectorIdSaIdEEE_EENS_14OptimizeResultEOT_RKS3_ISt4pairIddESaISE_EENS_10GivpConfigEEUlS7_E_NS0_3RngEEEdRKSB_RS5_dmS7_S7_mmmRSt8optionalINS0_15EvaluationCacheEERT0_RKSP_INSt6chrono10time_pointINSV_3_V212steady_clockENSV_8durationIlSt5ratioILl1ELl1000000000EEEEEEE
FN:58,102,_ZN4givp6detail10ils_searchIZNS0_3runIRZL23CATCH2_INTERNAL_TEST_12vEUlRKSt6vectorIdSaIdEEE_EENS_14OptimizeResultEOT_RKS3_ISt4pairIddESaISE_EENS_10GivpConfigEEUlS7_E_NS0_3RngEEEdRKSB_RS5_dmS7_S7_mmmRSt8optionalINS0_15EvaluationCacheEERT0_RKSP_INSt6chrono10time_pointINSV_3_V212steady_clockENSV_8durationIlSt5ratioILl1ELl1000000000EEEEEEE
FN:58,102,_ZN4givp6detail10ils_searchIZNS0_3runIRZL23CATCH2_INTERNAL_TEST_14vEUlRKSt6vectorIdSaIdEEE_EENS_14OptimizeResultEOT_RKS3_ISt4pairIddESaISE_EENS_10GivpConfigEEUlS7_E_NS0_3RngEEEdRKSB_RS5_dmS7_S7_mmmRSt8optionalINS0_15EvaluationCacheEERT0_RKSP_INSt6chrono10time_pointINSV_3_V212steady_clockENSV_8durationIlSt5ratioILl1ELl1000000000EEEEEEE
FN:58,102,_ZN4givp6detail10ils_searchIZNS0_3runIRZL23CATCH2_INTERNAL_TEST_16vEUlRKSt6vectorIdSaIdEEE_EENS_14OptimizeResultEOT_RKS3_ISt4pairIddESaISE_EENS_10GivpConfigEEUlS7_E_NS0_3RngEEEdRKSB_RS5_dmS7_S7_mmmRSt8optionalINS0_15EvaluationCacheEERT0_RKSP_INSt6chrono10time_pointINSV_3_V212steady_clockENSV_8durationIlSt5ratioILl1ELl1000000000EEEEEEE
FN:58,102,_ZN4givp6detail10ils_searchIZNS0_3runIRZL23CATCH2_INTERNAL_TEST_28vEUlRKSt6vectorIdSaIdEEE_EENS_14OptimizeResultEOT_RKS3_ISt4pairIddESaISE_EENS_10GivpConfigEEUlS7_E_NS0_3RngEEEdRKSB_RS5_dmS7_S7_mmmRSt8optionalINS0_15EvaluationCacheEERT0_RKSP_INSt6chrono10time_pointINSV_3_V212steady_clockENSV_8durationIlSt5ratioILl1ELl1000000000EEEEEEE
FN:58,102,_ZN4givp6detail10ils_searchIZNS0_3runIRZL23CATCH2_INTERNAL_TEST_42vEUlRKSt6vectorIdSaIdEEE_EENS_14OptimizeResultEOT_RKS3_ISt4pairIddESaISE_EENS_10GivpConfigEEUlS7_E_NS0_3RngEEEdRKSB_RS5_dmS7_S7_mmmRSt8optionalINS0_15EvaluationCacheEERT0_RKSP_INSt6chrono10time_pointINSV_3_V212steady_clockENSV_8durationIlSt5ratioILl1ELl1000000000EEEEEEE
FN:58,102,_ZN4givp6detail10ils_searchIZNS0_3runIRZL23CATCH2_INTERNAL_TEST_44vEUlRKSt6vectorIdSaIdEEE_EENS_14OptimizeResultEOT_RKS3_ISt4pairIddESaISE_EENS_10GivpConfigEEUlS7_E_NS0_3RngEEEdRKSB_RS5_dmS7_S7_mmmRSt8optionalINS0_15EvaluationCacheEERT0_RKSP_INSt6chrono10time_pointINSV_3_V212steady_clockENSV_8durationIlSt5ratioILl1ELl1000000000EEEEEEE
FN:58,102,_ZN4givp6detail10ils_searchIZNS0_3runIZL23CATCH2_INTERNAL_TEST_16vEUlRKSt6vectorIdSaIdEEE_EENS_14OptimizeResultEOT_RKS3_ISt4pairIddESaISD_EENS_10GivpConfigEEUlS7_E_NS0_3RngEEEdRKSA_RS5_dmS7_S7_mmmRSt8optionalINS0_15EvaluationCacheEERT0_RKSO_INSt6chrono10time_pointINSU_3_V212steady_clockENSU_8durationIlSt5ratioILl1ELl1000000000EEEEEEE
FN:58,102,_ZN4givp6detail10ils_searchIZNS0_3runIZL23CATCH2_INTERNAL_TEST_18vEUlRKSt6vectorIdSaIdEEE_EENS_14OptimizeResultEOT_RKS3_ISt4pairIddESaISD_EENS_10GivpConfigEEUlS7_E_NS0_3RngEEEdRKSA_RS5_dmS7_S7_mmmRSt8optionalINS0_15EvaluationCacheEERT0_RKSO_INSt6chrono10time_pointINSU_3_V212steady_clockENSU_8durationIlSt5ratioILl1ELl1000000000EEEEEEE
FN:58,102,_ZN4givp6detail10ils_searchIZNS0_3runIZL23CATCH2_INTERNAL_TEST_20vEUlRKSt6vectorIdSaIdEEE_EENS_14OptimizeResultEOT_RKS3_ISt4pairIddESaISD_EENS_10GivpConfigEEUlS7_E_NS0_3RngEEEdRKSA_RS5_dmS7_S7_mmmRSt8optionalINS0_15EvaluationCacheEERT0_RKSO_INSt6chrono10time_pointINSU_3_V212steady_clockENSU_8durationIlSt5ratioILl1ELl1000000000EEEEEEE
FN:58,102,_ZN4givp6detail10ils_searchIZNS0_3runIZL23CATCH2_INTERNAL_TEST_22vEUlRKSt6vectorIdSaIdEEE_EENS_14OptimizeResultEOT_RKS3_ISt4pairIddESaISD_EENS_10GivpConfigEEUlS7_E_NS0_3RngEEEdRKSA_RS5_dmS7_S7_mmmRSt8optionalINS0_15EvaluationCacheEERT0_RKSO_INSt6chrono10time_pointINSU_3_V212steady_clockENSU_8durationIlSt5ratioILl1ELl1000000000EEEEEEE
FN:58,102,_ZN4givp6detail10ils_searchIZNS0_3runIZL23CATCH2_INTERNAL_TEST_24vEUlRKSt6vectorIdSaIdEEE_EENS_14OptimizeResultEOT_RKS3_ISt4pairIddESaISD_EENS_10GivpConfigEEUlS7_E_NS0_3RngEEEdRKSA_RS5_dmS7_S7_mmmRSt8optionalINS0_15EvaluationCacheEERT0_RKSO_INSt6chrono10time_pointINSU_3_V212steady_clockENSU_8durationIlSt5ratioILl1ELl1000000000EEEEEEE
FNDA:21702,_ZN4givp6detailL16perturb_solutionINS0_3RngEEESt6vectorIdSaIdEERKS5_mmS7_S7_RT_
FNDA:1671,_ZN4givp6detail10ils_searchIZNS0_3runIRFdRKSt6vectorIdSaIdEEEEENS_14OptimizeResultEOT_RKS3_ISt4pairIddESaISE_EENS_10GivpConfigEEUlS7_E_NS0_3RngEEEdRKSB_RS5_dmS7_S7_mmmRSt8optionalINS0_15EvaluationCacheEERT0_RKSP_INSt6chrono10time_pointINSV_3_V212steady_clockENSV_8durationIlSt5ratioILl1ELl1000000000EEEEEEE
FNDA:92,_ZN4givp6detail10ils_searchIZNS0_3runIRZL22CATCH2_INTERNAL_TEST_6vEUlRKSt6vectorIdSaIdEEE_EENS_14OptimizeResultEOT_RKS3_ISt4pairIddESaISE_EENS_10GivpConfigEEUlS7_E_NS0_3RngEEEdRKSB_RS5_dmS7_S7_mmmRSt8optionalINS0_15EvaluationCacheEERT0_RKSP_INSt6chrono10time_pointINSV_3_V212steady_clockENSV_8durationIlSt5ratioILl1ELl1000000000EEEEEEE
FNDA:132,_ZN4givp6detail10ils_searchIZNS0_3runIRZL22CATCH2_INTERNAL_TEST_8vEUlRKSt6vectorIdSaIdEEE_EENS_14OptimizeResultEOT_RKS3_ISt4pairIddESaISE_EENS_10GivpConfigEEUlS7_E_NS0_3RngEEEdRKSB_RS5_dmS7_S7_mmmRSt8optionalINS0_15EvaluationCacheEERT0_RKSP_INSt6chrono10time_pointINSV_3_V212steady_clockENSV_8durationIlSt5ratioILl1ELl1000000000EEEEEEE
FNDA:60,_ZN4givp6detail10ils_searchIZNS0_3runIRZL23CATCH2_INTERNAL_TEST_12vEUlRKSt6vectorIdSaIdEEE_EENS_14OptimizeResultEOT_RKS3_ISt4pairIddESaISE_EENS_10GivpConfigEEUlS7_E_NS0_3RngEEEdRKSB_RS5_dmS7_S7_mmmRSt8optionalINS0_15EvaluationCacheEERT0_RKSP_INSt6chrono10time_pointINSV_3_V212steady_clockENSV_8durationIlSt5ratioILl1ELl1000000000EEEEEEE
FNDA:92,_ZN4givp6detail10ils_searchIZNS0_3runIRZL23CATCH2_INTERNAL_TEST_14vEUlRKSt6vectorIdSaIdEEE_EENS_14OptimizeResultEOT_RKS3_ISt4pairIddESaISE_EENS_10GivpConfigEEUlS7_E_NS0_3RngEEEdRKSB_RS5_dmS7_S7_mmmRSt8optionalINS0_15EvaluationCacheEERT0_RKSP_INSt6chrono10time_pointINSV_3_V212steady_clockENSV_8durationIlSt5ratioILl1ELl1000000000EEEEEEE
FNDA:92,_ZN4givp6detail10ils_searchIZNS0_3runIRZL23CATCH2_INTERNAL_TEST_16vEUlRKSt6vectorIdSaIdEEE_EENS_14OptimizeResultEOT_RKS3_ISt4pairIddESaISE_EENS_10GivpConfigEEUlS7_E_NS0_3RngEEEdRKSB_RS5_dmS7_S7_mmmRSt8optionalINS0_15EvaluationCacheEERT0_RKSP_INSt6chrono10time_pointINSV_3_V212steady_clockENSV_8durationIlSt5ratioILl1ELl1000000000EEEEEEE
FNDA:28,_ZN4givp6detail10ils_searchIZNS0_3runIRZL23CATCH2_INTERNAL_TEST_28vEUlRKSt6vectorIdSaIdEEE_EENS_14OptimizeResultEOT_RKS3_ISt4pairIddESaISE_EENS_10GivpConfigEEUlS7_E_NS0_3RngEEEdRKSB_RS5_dmS7_S7_mmmRSt8optionalINS0_15EvaluationCacheEERT0_RKSP_INSt6chrono10time_pointINSV_3_V212steady_clockENSV_8durationIlSt5ratioILl1ELl1000000000EEEEEEE
FNDA:20,_ZN4givp6detail10ils_searchIZNS0_3runIRZL23CATCH2_INTERNAL_TEST_42vEUlRKSt6vectorIdSaIdEEE_EENS_14OptimizeResultEOT_RKS3_ISt4pairIddESaISE_EENS_10GivpConfigEEUlS7_E_NS0_3RngEEEdRKSB_RS5_dmS7_S7_mmmRSt8optionalINS0_15EvaluationCacheEERT0_RKSP_INSt6chrono10time_pointINSV_3_V212steady_clockENSV_8durationIlSt5ratioILl1ELl1000000000EEEEEEE
FNDA:48,_ZN4givp6detail10ils_searchIZNS0_3runIRZL23CATCH2_INTERNAL_TEST_44vEUlRKSt6vectorIdSaIdEEE_EENS_14OptimizeResultEOT_RKS3_ISt4pairIddESaISE_EENS_10GivpConfigEEUlS7_E_NS0_3RngEEEdRKSB_RS5_dmS7_S7_mmmRSt8optionalINS0_15EvaluationCacheEERT0_RKSP_INSt6chrono10time_pointINSV_3_V212steady_clockENSV_8durationIlSt5ratioILl1ELl1000000000EEEEEEE
FNDA:0,_ZN4givp6detail10ils_searchIZNS0_3runIZL23CATCH2_INTERNAL_TEST_16vEUlRKSt6vectorIdSaIdEEE_EENS_14OptimizeResultEOT_RKS3_ISt4pairIddESaISD_EENS_10GivpConfigEEUlS7_E_NS0_3RngEEEdRKSA_RS5_dmS7_S7_mmmRSt8optionalINS0_15EvaluationCacheEERT0_RKSO_INSt6chrono10time_pointINSU_3_V212steady_clockENSU_8durationIlSt5ratioILl1ELl1000000000EEEEEEE
FNDA:0,_ZN4givp6detail10ils_searchIZNS0_3runIZL23CATCH2_INTERNAL_TEST_18vEUlRKSt6vectorIdSaIdEEE_EENS_14OptimizeResultEOT_RKS3_ISt4pairIddESaISD_EENS_10GivpConfigEEUlS7_E_NS0_3RngEEEdRKSA_RS5_dmS7_S7_mmmRSt8optionalINS0_15EvaluationCacheEERT0_RKSO_INSt6chrono10time_pointINSU_3_V212steady_clockENSU_8durationIlSt5ratioILl1ELl1000000000EEEEEEE
FNDA:0,_ZN4givp6detail10ils_searchIZNS0_3runIZL23CATCH2_INTERNAL_TEST_20vEUlRKSt6vectorIdSaIdEEE_EENS_14OptimizeResultEOT_RKS3_ISt4pairIddESaISD_EENS_10GivpConfigEEUlS7_E_NS0_3RngEEEdRKSA_RS5_dmS7_S7_mmmRSt8optionalINS0_15EvaluationCacheEERT0_RKSO_INSt6chrono10time_pointINSU_3_V212steady_clockENSU_8durationIlSt5ratioILl1ELl1000000000EEEEEEE
FNDA:0,_ZN4givp6detail10ils_searchIZNS0_3runIZL23CATCH2_INTERNAL_TEST_22vEUlRKSt6vectorIdSaIdEEE_EENS_14OptimizeResultEOT_RKS3_ISt4pairIddESaISD_EENS_10GivpConfigEEUlS7_E_NS0_3RngEEEdRKSA_RS5_dmS7_S7_mmmRSt8optionalINS0_15EvaluationCacheEERT0_RKSO_INSt6chrono10time_pointINSU_3_V212steady_clockENSU_8durationIlSt5ratioILl1ELl1000000000EEEEEEE
FNDA:0,_ZN4givp6detail10ils_searchIZNS0_3runIZL23CATCH2_INTERNAL_TEST_24vEUlRKSt6vectorIdSaIdEEE_EENS_14OptimizeResultEOT_RKS3_ISt4pairIddESaISD_EENS_10GivpConfigEEUlS7_E_NS0_3RngEEEdRKSA_RS5_dmS7_S7_mmmRSt8optionalINS0_15EvaluationCacheEERT0_RKSO_INSt6chrono10time_pointINSU_3_V212steady_clockENSU_8durationIlSt5ratioILl1ELl1000000000EEEEEEE
FNF:15
FNH:10
DA:19,21702
DA:25,21702
DA:26,21702
DA:27,21702
DA:28,21702
DA:29,21702
DA:30,21702
DA:32,47752
DA:33,26050
DA:34,26050
DA:37,47752
DA:38,26050
DA:39,26050
DA:40,2368
DA:41,2368
DA:42,2368
DA:43,2368
DA:45,23682
DA:46,23682
DA:47,23682
DA:52,21702
DA:53,43404
DA:54,21702
DA:58,2235
DA:68,2235
DA:69,2235
DA:71,23937
DA:72,21706
DA:75,43404
DA:76,21702
DA:77,43404
DA:79,43404
DA:80,21702
DA:82,21702
DA:85,21702
DA:87,21702
DA:90,21702
DA:91,4634
DA:92,4634
DA:93,17068
DA:95,606
DA:96,606
DA:100,2235
DA:101,2235
DA:102,2235
LF:45
LH:45
end_of_record
TN:
SF:/workspace/cpp/include/givp/detail/impl_core.hpp
FN:112,316,_ZN4givp6detail3runIRFdRKSt6vectorIdSaIdEEEEENS_14OptimizeResultEOT_RKS2_ISt4pairIddESaISD_EENS_10GivpConfigE
FN:112,316,_ZN4givp6detail3runIRZL22CATCH2_INTERNAL_TEST_6vEUlRKSt6vectorIdSaIdEEE_EENS_14OptimizeResultEOT_RKS2_ISt4pairIddESaISD_EENS_10GivpConfigE
FN:112,316,_ZN4givp6detail3runIRZL22CATCH2_INTERNAL_TEST_8vEUlRKSt6vectorIdSaIdEEE_EENS_14OptimizeResultEOT_RKS2_ISt4pairIddESaISD_EENS_10GivpConfigE
FN:112,316,_ZN4givp6detail3runIRZL23CATCH2_INTERNAL_TEST_12vEUlRKSt6vectorIdSaIdEEE_EENS_14OptimizeResultEOT_RKS2_ISt4pairIddESaISD_EENS_10GivpConfigE
FN:112,316,_ZN4givp6detail3runIRZL23CATCH2_INTERNAL_TEST_14vEUlRKSt6vectorIdSaIdEEE_EENS_14OptimizeResultEOT_RKS2_ISt4pairIddESaISD_EENS_10GivpConfigE
FN:112,316,_ZN4givp6detail3runIRZL23CATCH2_INTERNAL_TEST_16vEUlRKSt6vectorIdSaIdEEE_EENS_14OptimizeResultEOT_RKS2_ISt4pairIddESaISD_EENS_10GivpConfigE
FN:112,316,_ZN4givp6detail3runIRZL23CATCH2_INTERNAL_TEST_28vEUlRKSt6vectorIdSaIdEEE_EENS_14OptimizeResultEOT_RKS2_ISt4pairIddESaISD_EENS_10GivpConfigE
FN:112,316,_ZN4givp6detail3runIRZL23CATCH2_INTERNAL_TEST_42vEUlRKSt6vectorIdSaIdEEE_EENS_14OptimizeResultEOT_RKS2_ISt4pairIddESaISD_EENS_10GivpConfigE
FN:112,316,_ZN4givp6detail3runIRZL23CATCH2_INTERNAL_TEST_44vEUlRKSt6vectorIdSaIdEEE_EENS_14OptimizeResultEOT_RKS2_ISt4pairIddESaISD_EENS_10GivpConfigE
FN:112,316,_ZN4givp6detail3runIZL23CATCH2_INTERNAL_TEST_16vEUlRKSt6vectorIdSaIdEEE_EENS_14OptimizeResultEOT_RKS2_ISt4pairIddESaISC_EENS_10GivpConfigE
FN:112,316,_ZN4givp6detail3runIZL23CATCH2_INTERNAL_TEST_18vEUlRKSt6vectorIdSaIdEEE_EENS_14OptimizeResultEOT_RKS2_ISt4pairIddESaISC_EENS_10GivpConfigE
FN:112,316,_ZN4givp6detail3runIZL23CATCH2_INTERNAL_TEST_20vEUlRKSt6vectorIdSaIdEEE_EENS_14OptimizeResultEOT_RKS2_ISt4pairIddESaISC_EENS_10GivpConfigE
FN:112,316,_ZN4givp6detail3runIZL23CATCH2_INTERNAL_TEST_22vEUlRKSt6vectorIdSaIdEEE_EENS_14OptimizeResultEOT_RKS2_ISt4pairIddESaISC_EENS_10GivpConfigE
FN:112,316,_ZN4givp6detail3runIZL23CATCH2_INTERNAL_TEST_24vEUlRKSt6vectorIdSaIdEEE_EENS_14OptimizeResultEOT_RKS2_ISt4pairIddESaISC_EENS_10GivpConfigE
FN:133,133,_ZZN4givp6detail3runIRFdRKSt6vectorIdSaIdEEEEENS_14OptimizeResultEOT_RKS2_ISt4pairIddESaISD_EENS_10GivpConfigEENKUlS6_E_clES6_
FN:133,133,_ZZN4givp6detail3runIRZL22CATCH2_INTERNAL_TEST_6vEUlRKSt6vectorIdSaIdEEE_EENS_14OptimizeResultEOT_RKS2_ISt4pairIddESaISD_EENS_10GivpConfigEENKUlS6_E_clES6_
FN:133,133,_ZZN4givp6detail3runIRZL22CATCH2_INTERNAL_TEST_8vEUlRKSt6vectorIdSaIdEEE_EENS_14OptimizeResultEOT_RKS2_ISt4pairIddESaISD_EENS_10GivpConfigEENKUlS6_E_clES6_
FN:133,133,_ZZN4givp6detail3runIRZL23CATCH2_INTERNAL_TEST_12vEUlRKSt6vectorIdSaIdEEE_EENS_14OptimizeResultEOT_RKS2_ISt4pairIddESaISD_EENS_10GivpConfigEENKUlS6_E_clES6_
FN:133,133,_ZZN4givp6detail3runIRZL23CATCH2_INTERNAL_TEST_14vEUlRKSt6vectorIdSaIdEEE_EENS_14OptimizeResultEOT_RKS2_ISt4pairIddESaISD_EENS_10GivpConfigEENKUlS6_E_clES6_
FN:133,133,_ZZN4givp6detail3runIRZL23CATCH2_INTERNAL_TEST_16vEUlRKSt6vectorIdSaIdEEE_EENS_14OptimizeResultEOT_RKS2_ISt4pairIddESaISD_EENS_10GivpConfigEENKUlS6_E_clES6_
FN:133,133,_ZZN4givp6detail3runIRZL23CATCH2_INTERNAL_TEST_28vEUlRKSt6vectorIdSaIdEEE_EENS_14OptimizeResultEOT_RKS2_ISt4pairIddESaISD_EENS_10GivpConfigEENKUlS6_E_clES6_
FN:133,133,_ZZN4givp6detail3runIRZL23CATCH2_INTERNAL_TEST_42vEUlRKSt6vectorIdSaIdEEE_EENS_14OptimizeResultEOT_RKS2_ISt4pairIddESaISD_EENS_10GivpConfigEENKUlS6_E_clES6_
FN:133,133,_ZZN4givp6detail3runIRZL23CATCH2_INTERNAL_TEST_44vEUlRKSt6vectorIdSaIdEEE_EENS_14OptimizeResultEOT_RKS2_ISt4pairIddESaISD_EENS_10GivpConfigEENKUlS6_E_clES6_
FN:133,133,_ZZN4givp6detail3runIZL23CATCH2_INTERNAL_TEST_16vEUlRKSt6vectorIdSaIdEEE_EENS_14OptimizeResultEOT_RKS2_ISt4pairIddESaISC_EENS_10GivpConfigEENKUlS6_E_clES6_
FN:133,133,_ZZN4givp6detail3runIZL23CATCH2_INTERNAL_TEST_18vEUlRKSt6vectorIdSaIdEEE_EENS_14OptimizeResultEOT_RKS2_ISt4pairIddESaISC_EENS_10GivpConfigEENKUlS6_E_clES6_
FN:133,133,_ZZN4givp6detail3runIZL23CATCH2_INTERNAL_TEST_20vEUlRKSt6vectorIdSaIdEEE_EENS_14OptimizeResultEOT_RKS2_ISt4pairIddESaISC_EENS_10GivpConfigEENKUlS6_E_clES6_
FN:133,133,_ZZN4givp6detail3runIZL23CATCH2_INTERNAL_TEST_22vEUlRKSt6vectorIdSaIdEEE_EENS_14OptimizeResultEOT_RKS2_ISt4pairIddESaISC_EENS_10GivpConfigEENKUlS6_E_clES6_
FN:133,133,_ZZN4givp6detail3runIZL23CATCH2_INTERNAL_TEST_24vEUlRKSt6vectorIdSaIdEEE_EENS_14OptimizeResultEOT_RKS2_ISt4pairIddESaISC_EENS_10GivpConfigEENKUlS6_E_clES6_
FN:27,70,_ZN4givp6detail15validate_boundsERKSt6vectorISt4pairIddESaIS3_EERKSt8optionalIS1_IdSaIdEEE
FN:73,108,_ZN4givp6detailL17do_path_relinkingIZNS0_3runIRFdRKSt6vectorIdSaIdEEEEENS_14OptimizeResultEOT_RKS3_ISt4pairIddESaISE_EENS_10GivpConfigEEUlS7_E_EEvRKSB_RKNS0_9ElitePoolERS5_RdmS7_S7_mRSt8optionalINS0_15EvaluationCacheEERNS0_3RngERKSS_INSt6chrono10time_pointINSY_3_V212steady_clockENSY_8durationIlSt5ratioILl1ELl1000000000EEEEEEE
FN:73,108,_ZN4givp6detailL17do_path_relinkingIZNS0_3runIRZL22CATCH2_INTERNAL_TEST_6vEUlRKSt6vectorIdSaIdEEE_EENS_14OptimizeResultEOT_RKS3_ISt4pairIddESaISE_EENS_10GivpConfigEEUlS7_E_EEvRKSB_RKNS0_9ElitePoolERS5_RdmS7_S7_mRSt8optionalINS0_15EvaluationCacheEERNS0_3RngERKSS_INSt6chrono10time_pointINSY_3_V212steady_clockENSY_8durationIlSt5ratioILl1ELl1000000000EEEEEEE
FN:73,108,_ZN4givp6detailL17do_path_relinkingIZNS0_3runIRZL22CATCH2_INTERNAL_TEST_8vEUlRKSt6vectorIdSaIdEEE_EENS_14OptimizeResultEOT_RKS3_ISt4pairIddESaISE_EENS_10GivpConfigEEUlS7_E_EEvRKSB_RKNS0_9ElitePoolERS5_RdmS7_S7_mRSt8optionalINS0_15EvaluationCacheEERNS0_3RngERKSS_INSt6chrono10time_pointINSY_3_V212steady_clockENSY_8durationIlSt5ratioILl1ELl1000000000EEEEEEE
FN:73,108,_ZN4givp6detailL17do_path_relinkingIZNS0_3runIRZL23CATCH2_INTERNAL_TEST_12vEUlRKSt6vectorIdSaIdEEE_EENS_14OptimizeResultEOT_RKS3_ISt4pairIddESaISE_EENS_10GivpConfigEEUlS7_E_EEvRKSB_RKNS0_9ElitePoolERS5_RdmS7_S7_mRSt8optionalINS0_15EvaluationCacheEERNS0_3RngERKSS_INSt6chrono10time_pointINSY_3_V212steady_clockENSY_8durationIlSt5ratioILl1ELl1000000000EEEEEEE
FN:73,108,_ZN4givp6detailL17do_path_relinkingIZNS0_3runIRZL23CATCH2_INTERNAL_TEST_14vEUlRKSt6vectorIdSaIdEEE_EENS_14OptimizeResultEOT_RKS3_ISt4pairIddESaISE_EENS_10GivpConfigEEUlS7_E_EEvRKSB_RKNS0_9ElitePoolERS5_RdmS7_S7_mRSt8optionalINS0_15EvaluationCacheEERNS0_3RngERKSS_INSt6chrono10time_pointINSY_3_V212steady_clockENSY_8durationIlSt5ratioILl1ELl1000000000EEEEEEE
FN:73,108,_ZN4givp6detailL17do_path_relinkingIZNS0_3runIRZL23CATCH2_INTERNAL_TEST_16vEUlRKSt6vectorIdSaIdEEE_EENS_14OptimizeResultEOT_RKS3_ISt4pairIddESaISE_EENS_10GivpConfigEEUlS7_E_EEvRKSB_RKNS0_9ElitePoolERS5_RdmS7_S7_mRSt8optionalINS0_15EvaluationCacheEERNS0_3RngERKSS_INSt6chrono10time_pointINSY_3_V212steady_clockENSY_8durationIlSt5ratioILl1ELl1000000000EEEEEEE
FN:73,108,_ZN4givp6detailL17do_path_relinkingIZNS0_3runIRZL23CATCH2_INTERNAL_TEST_28vEUlRKSt6vectorIdSaIdEEE_EENS_14OptimizeResultEOT_RKS3_ISt4pairIddESaISE_EENS_10GivpConfigEEUlS7_E_EEvRKSB_RKNS0_9ElitePoolERS5_RdmS7_S7_mRSt8optionalINS0_15EvaluationCacheEERNS0_3RngERKSS_INSt6chrono10time_pointINSY_3_V212steady_clockENSY_8durationIlSt5ratioILl1ELl1000000000EEEEEEE
FN:73,108,_ZN4givp6detailL17do_path_relinkingIZNS0_3runIRZL23CATCH2_INTERNAL_TEST_42vEUlRKSt6vectorIdSaIdEEE_EENS_14OptimizeResultEOT_RKS3_ISt4pairIddESaISE_EENS_10GivpConfigEEUlS7_E_EEvRKSB_RKNS0_9ElitePoolERS5_RdmS7_S7_mRSt8optionalINS0_15EvaluationCacheEERNS0_3RngERKSS_INSt6chrono10time_pointINSY_3_V212steady_clockENSY_8durationIlSt5ratioILl1ELl1000000000EEEEEEE
FN:73,108,_ZN4givp6detailL17do_path_relinkingIZNS0_3runIRZL23CATCH2_INTERNAL_TEST_44vEUlRKSt6vectorIdSaIdEEE_EENS_14OptimizeResultEOT_RKS3_ISt4pairIddESaISE_EENS_10GivpConfigEEUlS7_E_EEvRKSB_RKNS0_9ElitePoolERS5_RdmS7_S7_mRSt8optionalINS0_15EvaluationCacheEERNS0_3RngERKSS_INSt6chrono10time_pointINSY_3_V212steady_clockENSY_8durationIlSt5ratioILl1ELl1000000000EEEEEEE
FN:73,108,_ZN4givp6detailL17do_path_relinkingIZNS0_3runIZL23CATCH2_INTERNAL_TEST_16vEUlRKSt6vectorIdSaIdEEE_EENS_14OptimizeResultEOT_RKS3_ISt4pairIddESaISD_EENS_10GivpConfigEEUlS7_E_EEvRKSA_RKNS0_9ElitePoolERS5_RdmS7_S7_mRSt8optionalINS0_15EvaluationCacheEERNS0_3RngERKSR_INSt6chrono10time_pointINSX_3_V212steady_clockENSX_8durationIlSt5ratioILl1ELl1000000000EEEEEEE
FN:73,108,_ZN4givp6detailL17do_path_relinkingIZNS0_3runIZL23CATCH2_INTERNAL_TEST_18vEUlRKSt6vectorIdSaIdEEE_EENS_14OptimizeResultEOT_RKS3_ISt4pairIddESaISD_EENS_10GivpConfigEEUlS7_E_EEvRKSA_RKNS0_9ElitePoolERS5_RdmS7_S7_mRSt8optionalINS0_15EvaluationCacheEERNS0_3RngERKSR_INSt6chrono10time_pointINSX_3_V212steady_clockENSX_8durationIlSt5ratioILl1ELl1000000000EEEEEEE
FN:73,108,_ZN4givp6detailL17do_path_relinkingIZNS0_3runIZL23CATCH2_INTERNAL_TEST_20vEUlRKSt6vectorIdSaIdEEE_EENS_14OptimizeResultEOT_RKS3_ISt4pairIddESaISD_EENS_10GivpConfigEEUlS7_E_EEvRKSA_RKNS0_9ElitePoolERS5_RdmS7_S7_mRSt8optionalINS0_15EvaluationCacheEERNS0_3RngERKSR_INSt6chrono10time_pointINSX_3_V212steady_clockENSX_8durationIlSt5ratioILl1ELl1000000000EEEEEEE
FN:73,108,_ZN4givp6detailL17do_path_relinkingIZNS0_3runIZL23CATCH2_INTERNAL_TEST_22vEUlRKSt6vectorIdSaIdEEE_EENS_14OptimizeResultEOT_RKS3_ISt4pairIddESaISD_EENS_10GivpConfigEEUlS7_E_EEvRKSA_RKNS0_9ElitePoolERS5_RdmS7_S7_mRSt8optionalINS0_15EvaluationCacheEERNS0_3RngERKSR_INSt6chrono10time_pointINSX_3_V212steady_clockENSX_8durationIlSt5ratioILl1ELl1000000000EEEEEEE
FN:73,108,_ZN4givp6detailL17do_path_relinkingIZNS0_3runIZL23CATCH2_INTERNAL_TEST_24vEUlRKSt6vectorIdSaIdEEE_EENS_14OptimizeResultEOT_RKS3_ISt4pairIddESaISD_EENS_10GivpConfigEEUlS7_E_EEvRKSA_RKNS0_9ElitePoolERS5_RdmS7_S7_mRSt8optionalINS0_15EvaluationCacheEERNS0_3RngERKSR_INSt6chrono10time_pointINSX_3_V212steady_clockENSX_8durationIlSt5ratioILl1ELl1000000000EEEEEEE
FNDA:64,_ZN4givp6detail3runIRFdRKSt6vectorIdSaIdEEEEENS_14OptimizeResultEOT_RKS2_ISt4pairIddESaISD_EENS_10GivpConfigE
FNDA:4,_ZN4givp6detail3runIRZL22CATCH2_INTERNAL_TEST_6vEUlRKSt6vectorIdSaIdEEE_EENS_14OptimizeResultEOT_RKS2_ISt4pairIddESaISD_EENS_10GivpConfigE
FNDA:4,_ZN4givp6detail3runIRZL22CATCH2_INTERNAL_TEST_8vEUlRKSt6vectorIdSaIdEEE_EENS_14OptimizeResultEOT_RKS2_ISt4pairIddESaISD_EENS_10GivpConfigE
FNDA:4,_ZN4givp6detail3runIRZL23CATCH2_INTERNAL_TEST_12vEUlRKSt6vectorIdSaIdEEE_EENS_14OptimizeResultEOT_RKS2_ISt4pairIddESaISD_EENS_10GivpConfigE
FNDA:4,_ZN4givp6detail3runIRZL23CATCH2_INTERNAL_TEST_14vEUlRKSt6vectorIdSaIdEEE_EENS_14OptimizeResultEOT_RKS2_ISt4pairIddESaISD_EENS_10GivpConfigE
FNDA:4,_ZN4givp6detail3runIRZL23CATCH2_INTERNAL_TEST_16vEUlRKSt6vectorIdSaIdEEE_EENS_14OptimizeResultEOT_RKS2_ISt4pairIddESaISD_EENS_10GivpConfigE
FNDA:4,_ZN4givp6detail3runIRZL23CATCH2_INTERNAL_TEST_28vEUlRKSt6vectorIdSaIdEEE_EENS_14OptimizeResultEOT_RKS2_ISt4pairIddESaISD_EENS_10GivpConfigE
FNDA:4,_ZN4givp6detail3runIRZL23CATCH2_INTERNAL_TEST_42vEUlRKSt6vectorIdSaIdEEE_EENS_14OptimizeResultEOT_RKS2_ISt4pairIddESaISD_EENS_10GivpConfigE
FNDA:4,_ZN4givp6detail3runIRZL23CATCH2_INTERNAL_TEST_44vEUlRKSt6vectorIdSaIdEEE_EENS_14OptimizeResultEOT_RKS2_ISt4pairIddESaISD_EENS_10GivpConfigE
FNDA:4,_ZN4givp6detail3runIZL23CATCH2_INTERNAL_TEST_16vEUlRKSt6vectorIdSaIdEEE_EENS_14OptimizeResultEOT_RKS2_ISt4pairIddESaISC_EENS_10GivpConfigE
FNDA:4,_ZN4givp6detail3runIZL23CATCH2_INTERNAL_TEST_18vEUlRKSt6vectorIdSaIdEEE_EENS_14OptimizeResultEOT_RKS2_ISt4pairIddESaISC_EENS_10GivpConfigE
FNDA:4,_ZN4givp6detail3runIZL23CATCH2_INTERNAL_TEST_20vEUlRKSt6vectorIdSaIdEEE_EENS_14OptimizeResultEOT_RKS2_ISt4pairIddESaISC_EENS_10GivpConfigE
FNDA:4,_ZN4givp6detail3runIZL23CATCH2_INTERNAL_TEST_22vEUlRKSt6vectorIdSaIdEEE_EENS_14OptimizeResultEOT_RKS2_ISt4pairIddESaISC_EENS_10GivpConfigE
FNDA:4,_ZN4givp6detail3runIZL23CATCH2_INTERNAL_TEST_24vEUlRKSt6vectorIdSaIdEEE_EENS_14OptimizeResultEOT_RKS2_ISt4pairIddESaISC_EENS_10GivpConfigE
FNDA:200719142,_ZZN4givp6detail3runIRFdRKSt6vectorIdSaIdEEEEENS_14OptimizeResultEOT_RKS2_ISt4pairIddESaISD_EENS_10GivpConfigEENKUlS6_E_clES6_
FNDA:12856836,_ZZN4givp6detail3runIRZL22CATCH2_INTERNAL_TEST_6vEUlRKSt6vectorIdSaIdEEE_EENS_14OptimizeResultEOT_RKS2_ISt4pairIddESaISD_EENS_10GivpConfigEENKUlS6_E_clES6_
FNDA:18476456,_ZZN4givp6detail3runIRZL22CATCH2_INTERNAL_TEST_8vEUlRKSt6vectorIdSaIdEEE_EENS_14OptimizeResultEOT_RKS2_ISt4pairIddESaISD_EENS_10GivpConfigEENKUlS6_E_clES6_
FNDA:4004,_ZZN4givp6detail3runIRZL23CATCH2_INTERNAL_TEST_12vEUlRKSt6vectorIdSaIdEEE_EENS_14OptimizeResultEOT_RKS2_ISt4pairIddESaISD_EENS_10GivpConfigEENKUlS6_E_clES6_
FNDA:27596,_ZZN4givp6detail3runIRZL23CATCH2_INTERNAL_TEST_14vEUlRKSt6vectorIdSaIdEEE_EENS_14OptimizeResultEOT_RKS2_ISt4pairIddESaISD_EENS_10GivpConfigEENKUlS6_E_clES6_
FNDA:20904,_ZZN4givp6detail3runIRZL23CATCH2_INTERNAL_TEST_16vEUlRKSt6vectorIdSaIdEEE_EENS_14OptimizeResultEOT_RKS2_ISt4pairIddESaISD_EENS_10GivpConfigEENKUlS6_E_clES6_
FNDA:118716,_ZZN4givp6detail3runIRZL23CATCH2_INTERNAL_TEST_28vEUlRKSt6vectorIdSaIdEEE_EENS_14OptimizeResultEOT_RKS2_ISt4pairIddESaISD_EENS_10GivpConfigEENKUlS6_E_clES6_
FNDA:16060,_ZZN4givp6detail3runIRZL23CATCH2_INTERNAL_TEST_42vEUlRKSt6vectorIdSaIdEEE_EENS_14OptimizeResultEOT_RKS2_ISt4pairIddESaISD_EENS_10GivpConfigEENKUlS6_E_clES6_
FNDA:4288,_ZZN4givp6detail3runIRZL23CATCH2_INTERNAL_TEST_44vEUlRKSt6vectorIdSaIdEEE_EENS_14OptimizeResultEOT_RKS2_ISt4pairIddESaISD_EENS_10GivpConfigEENKUlS6_E_clES6_
FNDA:0,_ZZN4givp6detail3runIZL23CATCH2_INTERNAL_TEST_16vEUlRKSt6vectorIdSaIdEEE_EENS_14OptimizeResultEOT_RKS2_ISt4pairIddESaISC_EENS_10GivpConfigEENKUlS6_E_clES6_
FNDA:0,_ZZN4givp6detail3runIZL23CATCH2_INTERNAL_TEST_18vEUlRKSt6vectorIdSaIdEEE_EENS_14OptimizeResultEOT_RKS2_ISt4pairIddESaISC_EENS_10GivpConfigEENKUlS6_E_clES6_
FNDA:0,_ZZN4givp6detail3runIZL23CATCH2_INTERNAL_TEST_20vEUlRKSt6vectorIdSaIdEEE_EENS_14OptimizeResultEOT_RKS2_ISt4pairIddESaISC_EENS_10GivpConfigEENKUlS6_E_clES6_
FNDA:0,_ZZN4givp6detail3runIZL23CATCH2_INTERNAL_TEST_22vEUlRKSt6vectorIdSaIdEEE_EENS_14OptimizeResultEOT_RKS2_ISt4pairIddESaISC_EENS_10GivpConfigEENKUlS6_E_clES6_
FNDA:0,_ZZN4givp6detail3runIZL23CATCH2_INTERNAL_TEST_24vEUlRKSt6vectorIdSaIdEEE_EENS_14OptimizeResultEOT_RKS2_ISt4pairIddESaISC_EENS_10GivpConfigEENKUlS6_E_clES6_
FNDA:116,_ZN4givp6detail15validate_boundsERKSt6vectorISt4pairIddESaIS3_EERKSt8optionalIS1_IdSaIdEEE
FNDA:252,_ZN4givp6detailL17do_path_relinkingIZNS0_3runIRFdRKSt6vectorIdSaIdEEEEENS_14OptimizeResultEOT_RKS3_ISt4pairIddESaISE_EENS_10GivpConfigEEUlS7_E_EEvRKSB_RKNS0_9ElitePoolERS5_RdmS7_S7_mRSt8optionalINS0_15EvaluationCacheEERNS0_3RngERKSS_INSt6chrono10time_pointINSY_3_V212steady_clockENSY_8durationIlSt5ratioILl1ELl1000000000EEEEEEE
FNDA:8,_ZN4givp6detailL17do_path_relinkingIZNS0_3runIRZL22CATCH2_INTERNAL_TEST_6vEUlRKSt6vectorIdSaIdEEE_EENS_14OptimizeResultEOT_RKS3_ISt4pairIddESaISE_EENS_10GivpConfigEEUlS7_E_EEvRKSB_RKNS0_9ElitePoolERS5_RdmS7_S7_mRSt8optionalINS0_15EvaluationCacheEERNS0_3RngERKSS_INSt6chrono10time_pointINSY_3_V212steady_clockENSY_8durationIlSt5ratioILl1ELl1000000000EEEEEEE
FNDA:12,_ZN4givp6detailL17do_path_relinkingIZNS0_3runIRZL22CATCH2_INTERNAL_TEST_8vEUlRKSt6vectorIdSaIdEEE_EENS_14OptimizeResultEOT_RKS3_ISt4pairIddESaISE_EENS_10GivpConfigEEUlS7_E_EEvRKSB_RKNS0_9ElitePoolERS5_RdmS7_S7_mRSt8optionalINS0_15EvaluationCacheEERNS0_3RngERKSS_INSt6chrono10time_pointINSY_3_V212steady_clockENSY_8durationIlSt5ratioILl1ELl1000000000EEEEEEE
FNDA:20,_ZN4givp6detailL17do_path_relinkingIZNS0_3runIRZL23CATCH2_INTERNAL_TEST_12vEUlRKSt6vectorIdSaIdEEE_EENS_14OptimizeResultEOT_RKS3_ISt4pairIddESaISE_EENS_10GivpConfigEEUlS7_E_EEvRKSB_RKNS0_9ElitePoolERS5_RdmS7_S7_mRSt8optionalINS0_15EvaluationCacheEERNS0_3RngERKSS_INSt6chrono10time_pointINSY_3_V212steady_clockENSY_8durationIlSt5ratioILl1ELl1000000000EEEEEEE
FNDA:8,_ZN4givp6detailL17do_path_relinkingIZNS0_3runIRZL23CATCH2_INTERNAL_TEST_14vEUlRKSt6vectorIdSaIdEEE_EENS_14OptimizeResultEOT_RKS3_ISt4pairIddESaISE_EENS_10GivpConfigEEUlS7_E_EEvRKSB_RKNS0_9ElitePoolERS5_RdmS7_S7_mRSt8optionalINS0_15EvaluationCacheEERNS0_3RngERKSS_INSt6chrono10time_pointINSY_3_V212steady_clockENSY_8durationIlSt5ratioILl1ELl1000000000EEEEEEE
FNDA:8,_ZN4givp6detailL17do_path_relinkingIZNS0_3runIRZL23CATCH2_INTERNAL_TEST_16vEUlRKSt6vectorIdSaIdEEE_EENS_14OptimizeResultEOT_RKS3_ISt4pairIddESaISE_EENS_10GivpConfigEEUlS7_E_EEvRKSB_RKNS0_9ElitePoolERS5_RdmS7_S7_mRSt8optionalINS0_15EvaluationCacheEERNS0_3RngERKSS_INSt6chrono10time_pointINSY_3_V212steady_clockENSY_8durationIlSt5ratioILl1ELl1000000000EEEEEEE
FNDA:0,_ZN4givp6detailL17do_path_relinkingIZNS0_3runIRZL23CATCH2_INTERNAL_TEST_28vEUlRKSt6vectorIdSaIdEEE_EENS_14OptimizeResultEOT_RKS3_ISt4pairIddESaISE_EENS_10GivpConfigEEUlS7_E_EEvRKSB_RKNS0_9ElitePoolERS5_RdmS7_S7_mRSt8optionalINS0_15EvaluationCacheEERNS0_3RngERKSS_INSt6chrono10time_pointINSY_3_V212steady_clockENSY_8durationIlSt5ratioILl1ELl1000000000EEEEEEE
FNDA:0,_ZN4givp6detailL17do_path_relinkingIZNS0_3runIRZL23CATCH2_INTERNAL_TEST_42vEUlRKSt6vectorIdSaIdEEE_EENS_14OptimizeResultEOT_RKS3_ISt4pairIddESaISE_EENS_10GivpConfigEEUlS7_E_EEvRKSB_RKNS0_9ElitePoolERS5_RdmS7_S7_mRSt8optionalINS0_15EvaluationCacheEERNS0_3RngERKSS_INSt6chrono10time_pointINSY_3_V212steady_clockENSY_8durationIlSt5ratioILl1ELl1000000000EEEEEEE
FNDA:36,_ZN4givp6detailL17do_path_relinkingIZNS0_3runIRZL23CATCH2_INTERNAL_TEST_44vEUlRKSt6vectorIdSaIdEEE_EENS_14OptimizeResultEOT_RKS3_ISt4pairIddESaISE_EENS_10GivpConfigEEUlS7_E_EEvRKSB_RKNS0_9ElitePoolERS5_RdmS7_S7_mRSt8optionalINS0_15EvaluationCacheEERNS0_3RngERKSS_INSt6chrono10time_pointINSY_3_V212steady_clockENSY_8durationIlSt5ratioILl1ELl1000000000EEEEEEE
FNDA:0,_ZN4givp6detailL17do_path_relinkingIZNS0_3runIZL23CATCH2_INTERNAL_TEST_16vEUlRKSt6vectorIdSaIdEEE_EENS_14OptimizeResultEOT_RKS3_ISt4pairIddESaISD_EENS_10GivpConfigEEUlS7_E_EEvRKSA_RKNS0_9ElitePoolERS5_RdmS7_S7_mRSt8optionalINS0_15EvaluationCacheEERNS0_3RngERKSR_INSt6chrono10time_pointINSX_3_V212steady_clockENSX_8durationIlSt5ratioILl1ELl1000000000EEEEEEE
FNDA:0,_ZN4givp6detailL17do_path_relinkingIZNS0_3runIZL23CATCH2_INTERNAL_TEST_18vEUlRKSt6vectorIdSaIdEEE_EENS_14OptimizeResultEOT_RKS3_ISt4pairIddESaISD_EENS_10GivpConfigEEUlS7_E_EEvRKSA_RKNS0_9ElitePoolERS5_RdmS7_S7_mRSt8optionalINS0_15EvaluationCacheEERNS0_3RngERKSR_INSt6chrono10time_pointINSX_3_V212steady_clockENSX_8durationIlSt5ratioILl1ELl1000000000EEEEEEE
FNDA:0,_ZN4givp6detailL17do_path_relinkingIZNS0_3runIZL23CATCH2_INTERNAL_TEST_20vEUlRKSt6vectorIdSaIdEEE_EENS_14OptimizeResultEOT_RKS3_ISt4pairIddESaISD_EENS_10GivpConfigEEUlS7_E_EEvRKSA_RKNS0_9ElitePoolERS5_RdmS7_S7_mRSt8optionalINS0_15EvaluationCacheEERNS0_3RngERKSR_INSt6chrono10time_pointINSX_3_V212steady_clockENSX_8durationIlSt5ratioILl1ELl1000000000EEEEEEE
FNDA:0,_ZN4givp6detailL17do_path_relinkingIZNS0_3runIZL23CATCH2_INTERNAL_TEST_22vEUlRKSt6vectorIdSaIdEEE_EENS_14OptimizeResultEOT_RKS3_ISt4pairIddESaISD_EENS_10GivpConfigEEUlS7_E_EEvRKSA_RKNS0_9ElitePoolERS5_RdmS7_S7_mRSt8optionalINS0_15EvaluationCacheEERNS0_3RngERKSR_INSt6chrono10time_pointINSX_3_V212steady_clockENSX_8durationIlSt5ratioILl1ELl1000000000EEEEEEE
FNDA:0,_ZN4givp6detailL17do_path_relinkingIZNS0_3runIZL23CATCH2_INTERNAL_TEST_24vEUlRKSt6vectorIdSaIdEEE_EENS_14OptimizeResultEOT_RKS3_ISt4pairIddESaISD_EENS_10GivpConfigEEUlS7_E_EEvRKSA_RKNS0_9ElitePoolERS5_RdmS7_S7_mRSt8optionalINS0_15EvaluationCacheEERNS0_3RngERKSR_INSt6chrono10time_pointINSX_3_V212steady_clockENSX_8durationIlSt5ratioILl1ELl1000000000EEEEEEE
FNF:43
FNH:31
DA:27,116
DA:32,116
DA:33,12
DA:35,112
DA:36,112
DA:37,112
DA:39,632
DA:41,528
DA:42,528
DA:43,8
DA:44,16
DA:45,12
DA:46,524
DA:47,4
DA:48,520
DA:49,520
DA:52,104
DA:54,20
DA:56,8
DA:57,12
DA:58,60
DA:60,48
DA:61,48
DA:63,8
DA:64,16
DA:65,16
DA:66,12
DA:69,192
DA:70,128
DA:73,344
DA:84,344
DA:85,344
DA:87,1156
DA:89,1892
DA:91,1080
DA:92,0
DA:94,1080
DA:95,1080
DA:98,1080
DA:101,1080
DA:103,44
DA:104,44
DA:112,116
DA:116,116
DA:118,116
DA:119,96
DA:123,96
DA:125,96
DA:128,96
DA:132,96
DA:133,232244098
DA:135,200787990
DA:136,200787990
DA:137,232237282
DA:140,96
DA:141,96
DA:142,96
DA:143,92
DA:145,96
DA:146,96
DA:147,96
DA:148,68
DA:150,96
DA:151,96
DA:152,4
DA:153,4
DA:154,8
DA:157,96
DA:160,96
DA:162,12
DA:163,12
DA:164,12
DA:168,84
DA:169,84
DA:173,84
DA:174,84
DA:175,84
DA:177,96
DA:178,96
DA:180,96
DA:181,96
DA:182,96
DA:185,4104
DA:187,2008
DA:189,4
DA:190,4
DA:192,2004
DA:194,4008
DA:197,2004
DA:199,2004
DA:200,2004
DA:201,96
DA:202,2100
DA:206,2004
DA:209,2004
DA:213,2004
DA:215,2004
DA:221,2004
DA:227,2004
DA:229,163
DA:230,163
DA:231,163
DA:235,1841
DA:238,2004
DA:239,2004
DA:242,2004
DA:243,2004
DA:245,1624
DA:246,1624
DA:247,1624
DA:249,0
DA:250,0
DA:251,0
DA:252,0
DA:253,0
DA:254,0
DA:259,2004
DA:260,4404
DA:261,396
DA:263,344
DA:269,2004
DA:271,231
DA:272,231
DA:276,231
DA:279,231
DA:283,231
DA:285,4
DA:286,4
DA:288,231
DA:289,231
DA:292,3628
DA:293,1624
DA:295,0
DA:296,0
DA:299,2004
DA:300,92
DA:304,96
DA:306,96
DA:307,96
DA:308,96
DA:309,96
DA:310,96
DA:311,96
DA:312,96
DA:313,96
DA:314,96
DA:315,192
DA:316,96
LF:148
LH:139
end_of_record
TN:
SF:/workspace/cpp/include/givp/detail/pr.hpp
FN:21,63,_ZN4givp6detailL19path_relinking_bestIZL23CATCH2_INTERNAL_TEST_38vEUlRKSt6vectorIdSaIdEEE_EESt4pairIS4_dERKT_S6_S6_S2_ImSaImEERSt8optionalINS0_15EvaluationCacheEEmRKSF_INSt6chrono10time_pointINSJ_3_V212steady_clockENSJ_8durationIlSt5ratioILl1ELl1000000000EEEEEEE
FN:21,63,_ZN4givp6detailL19path_relinking_bestIZL23CATCH2_INTERNAL_TEST_40vEUlRKSt6vectorIdSaIdEEE_EESt4pairIS4_dERKT_S6_S6_S2_ImSaImEERSt8optionalINS0_15EvaluationCacheEEmRKSF_INSt6chrono10time_pointINSJ_3_V212steady_clockENSJ_8durationIlSt5ratioILl1ELl1000000000EEEEEEE
FN:21,63,_ZN4givp6detailL19path_relinking_bestIZNS0_3runIRFdRKSt6vectorIdSaIdEEEEENS_14OptimizeResultEOT_RKS3_ISt4pairIddESaISE_EENS_10GivpConfigEEUlS7_E_EESD_IS5_dERKSB_S7_S7_S3_ImSaImEERSt8optionalINS0_15EvaluationCacheEEmRKSQ_INSt6chrono10time_pointINSU_3_V212steady_clockENSU_8durationIlSt5ratioILl1ELl1000000000EEEEEEE
FN:21,63,_ZN4givp6detailL19path_relinking_bestIZNS0_3runIRZL22CATCH2_INTERNAL_TEST_6vEUlRKSt6vectorIdSaIdEEE_EENS_14OptimizeResultEOT_RKS3_ISt4pairIddESaISE_EENS_10GivpConfigEEUlS7_E_EESD_IS5_dERKSB_S7_S7_S3_ImSaImEERSt8optionalINS0_15EvaluationCacheEEmRKSQ_INSt6chrono10time_pointINSU_3_V212steady_clockENSU_8durationIlSt5ratioILl1ELl1000000000EEEEEEE
FN:21,63,_ZN4givp6detailL19path_relinking_bestIZNS0_3runIRZL22CATCH2_INTERNAL_TEST_8vEUlRKSt6vectorIdSaIdEEE_EENS_14OptimizeResultEOT_RKS3_ISt4pairIddESaISE_EENS_10GivpConfigEEUlS7_E_EESD_IS5_dERKSB_S7_S7_S3_ImSaImEERSt8optionalINS0_15EvaluationCacheEEmRKSQ_INSt6chrono10time_pointINSU_3_V212steady_clockENSU_8durationIlSt5ratioILl1ELl1000000000EEEEEEE
FN:21,63,_ZN4givp6detailL19path_relinking_bestIZNS0_3runIRZL23CATCH2_INTERNAL_TEST_12vEUlRKSt6vectorIdSaIdEEE_EENS_14OptimizeResultEOT_RKS3_ISt4pairIddESaISE_EENS_10GivpConfigEEUlS7_E_EESD_IS5_dERKSB_S7_S7_S3_ImSaImEERSt8optionalINS0_15EvaluationCacheEEmRKSQ_INSt6chrono10time_pointINSU_3_V212steady_clockENSU_8durationIlSt5ratioILl1ELl1000000000EEEEEEE
FN:21,63,_ZN4givp6detailL19path_relinking_bestIZNS0_3runIRZL23CATCH2_INTERNAL_TEST_14vEUlRKSt6vectorIdSaIdEEE_EENS_14OptimizeResultEOT_RKS3_ISt4pairIddESaISE_EENS_10GivpConfigEEUlS7_E_EESD_IS5_dERKSB_S7_S7_S3_ImSaImEERSt8optionalINS0_15EvaluationCacheEEmRKSQ_INSt6chrono10time_pointINSU_3_V212steady_clockENSU_8durationIlSt5ratioILl1ELl1000000000EEEEEEE
FN:21,63,_ZN4givp6detailL19path_relinking_bestIZNS0_3runIRZL23CATCH2_INTERNAL_TEST_16vEUlRKSt6vectorIdSaIdEEE_EENS_14OptimizeResultEOT_RKS3_ISt4pairIddESaISE_EENS_10GivpConfigEEUlS7_E_EESD_IS5_dERKSB_S7_S7_S3_ImSaImEERSt8optionalINS0_15EvaluationCacheEEmRKSQ_INSt6chrono10time_pointINSU_3_V212steady_clockENSU_8durationIlSt5ratioILl1ELl1000000000EEEEEEE
FN:21,63,_ZN4givp6detailL19path_relinking_bestIZNS0_3runIRZL23CATCH2_INTERNAL_TEST_28vEUlRKSt6vectorIdSaIdEEE_EENS_14OptimizeResultEOT_RKS3_ISt4pairIddESaISE_EENS_10GivpConfigEEUlS7_E_EESD_IS5_dERKSB_S7_S7_S3_ImSaImEERSt8optionalINS0_15EvaluationCacheEEmRKSQ_INSt6chrono10time_pointINSU_3_V212steady_clockENSU_8durationIlSt5ratioILl1ELl1000000000EEEEEEE
FN:21,63,_ZN4givp6detailL19path_relinking_bestIZNS0_3runIRZL23CATCH2_INTERNAL_TEST_42vEUlRKSt6vectorIdSaIdEEE_EENS_14OptimizeResultEOT_RKS3_ISt4pairIddESaISE_EENS_10GivpConfigEEUlS7_E_EESD_IS5_dERKSB_S7_S7_S3_ImSaImEERSt8optionalINS0_15EvaluationCacheEEmRKSQ_INSt6chrono10time_pointINSU_3_V212steady_clockENSU_8durationIlSt5ratioILl1ELl1000000000EEEEEEE
FN:21,63,_ZN4givp6detailL19path_relinking_bestIZNS0_3runIRZL23CATCH2_INTERNAL_TEST_44vEUlRKSt6vectorIdSaIdEEE_EENS_14OptimizeResultEOT_RKS3_ISt4pairIddESaISE_EENS_10GivpConfigEEUlS7_E_EESD_IS5_dERKSB_S7_S7_S3_ImSaImEERSt8optionalINS0_15EvaluationCacheEEmRKSQ_INSt6chrono10time_pointINSU_3_V212steady_clockENSU_8durationIlSt5ratioILl1ELl1000000000EEEEEEE
FN:21,63,_ZN4givp6detailL19path_relinking_bestIZNS0_3runIZL23CATCH2_INTERNAL_TEST_16vEUlRKSt6vectorIdSaIdEEE_EENS_14OptimizeResultEOT_RKS3_ISt4pairIddESaISD_EENS_10GivpConfigEEUlS7_E_EESC_IS5_dERKSA_S7_S7_S3_ImSaImEERSt8optionalINS0_15EvaluationCacheEEmRKSP_INSt6chrono10time_pointINST_3_V212steady_clockENST_8durationIlSt5ratioILl1ELl1000000000EEEEEEE
FN:21,63,_ZN4givp6detailL19path_relinking_bestIZNS0_3runIZL23CATCH2_INTERNAL_TEST_18vEUlRKSt6vectorIdSaIdEEE_EENS_14OptimizeResultEOT_RKS3_ISt4pairIddESaISD_EENS_10GivpConfigEEUlS7_E_EESC_IS5_dERKSA_S7_S7_S3_ImSaImEERSt8optionalINS0_15EvaluationCacheEEmRKSP_INSt6chrono10time_pointINST_3_V212steady_clockENST_8durationIlSt5ratioILl1ELl1000000000EEEEEEE
FN:21,63,_ZN4givp6detailL19path_relinking_bestIZNS0_3runIZL23CATCH2_INTERNAL_TEST_20vEUlRKSt6vectorIdSaIdEEE_EENS_14OptimizeResultEOT_RKS3_ISt4pairIddESaISD_EENS_10GivpConfigEEUlS7_E_EESC_IS5_dERKSA_S7_S7_S3_ImSaImEERSt8optionalINS0_15EvaluationCacheEEmRKSP_INSt6chrono10time_pointINST_3_V212steady_clockENST_8durationIlSt5ratioILl1ELl1000000000EEEEEEE
FN:21,63,_ZN4givp6detailL19path_relinking_bestIZNS0_3runIZL23CATCH2_INTERNAL_TEST_22vEUlRKSt6vectorIdSaIdEEE_EENS_14OptimizeResultEOT_RKS3_ISt4pairIddESaISD_EENS_10GivpConfigEEUlS7_E_EESC_IS5_dERKSA_S7_S7_S3_ImSaImEERSt8optionalINS0_15EvaluationCacheEEmRKSP_INSt6chrono10time_pointINST_3_V212steady_clockENST_8durationIlSt5ratioILl1ELl1000000000EEEEEEE
FN:21,63,_ZN4givp6detailL19path_relinking_bestIZNS0_3runIZL23CATCH2_INTERNAL_TEST_24vEUlRKSt6vectorIdSaIdEEE_EENS_14OptimizeResultEOT_RKS3_ISt4pairIddESaISD_EENS_10GivpConfigEEUlS7_E_EESC_IS5_dERKSA_S7_S7_S3_ImSaImEERSt8optionalINS0_15EvaluationCacheEEmRKSP_INSt6chrono10time_pointINST_3_V212steady_clockENST_8durationIlSt5ratioILl1ELl1000000000EEEEEEE
FN:67,109,_ZN4givp6detail28bidirectional_path_relinkingIZL23CATCH2_INTERNAL_TEST_38vEUlRKSt6vectorIdSaIdEEE_NS0_3RngEEESt4pairIS4_dERKT_S6_S6_mRSt8optionalINS0_15EvaluationCacheEERT0_RKSE_INSt6chrono10time_pointINSK_3_V212steady_clockENSK_8durationIlSt5ratioILl1ELl1000000000EEEEEEE
FN:67,109,_ZN4givp6detail28bidirectional_path_relinkingIZL23CATCH2_INTERNAL_TEST_40vEUlRKSt6vectorIdSaIdEEE_NS0_3RngEEESt4pairIS4_dERKT_S6_S6_mRSt8optionalINS0_15EvaluationCacheEERT0_RKSE_INSt6chrono10time_pointINSK_3_V212steady_clockENSK_8durationIlSt5ratioILl1ELl1000000000EEEEEEE
FN:67,109,_ZN4givp6detail28bidirectional_path_relinkingIZNS0_3runIRFdRKSt6vectorIdSaIdEEEEENS_14OptimizeResultEOT_RKS3_ISt4pairIddESaISE_EENS_10GivpConfigEEUlS7_E_NS0_3RngEEESD_IS5_dERKSB_S7_S7_mRSt8optionalINS0_15EvaluationCacheEERT0_RKSP_INSt6chrono10time_pointINSV_3_V212steady_clockENSV_8durationIlSt5ratioILl1ELl1000000000EEEEEEE
FN:67,109,_ZN4givp6detail28bidirectional_path_relinkingIZNS0_3runIRZL22CATCH2_INTERNAL_TEST_6vEUlRKSt6vectorIdSaIdEEE_EENS_14OptimizeResultEOT_RKS3_ISt4pairIddESaISE_EENS_10GivpConfigEEUlS7_E_NS0_3RngEEESD_IS5_dERKSB_S7_S7_mRSt8optionalINS0_15EvaluationCacheEERT0_RKSP_INSt6chrono10time_pointINSV_3_V212steady_clockENSV_8durationIlSt5ratioILl1ELl1000000000EEEEEEE
FN:67,109,_ZN4givp6detail28bidirectional_path_relinkingIZNS0_3runIRZL22CATCH2_INTERNAL_TEST_8vEUlRKSt6vectorIdSaIdEEE_EENS_14OptimizeResultEOT_RKS3_ISt4pairIddESaISE_EENS_10GivpConfigEEUlS7_E_NS0_3RngEEESD_IS5_dERKSB_S7_S7_mRSt8optionalINS0_15EvaluationCacheEERT0_RKSP_INSt6chrono10time_pointINSV_3_V212steady_clockENSV_8durationIlSt5ratioILl1ELl1000000000EEEEEEE
FN:67,109,_ZN4givp6detail28bidirectional_path_relinkingIZNS0_3runIRZL23CATCH2_INTERNAL_TEST_12vEUlRKSt6vectorIdSaIdEEE_EENS_14OptimizeResultEOT_RKS3_ISt4pairIddESaISE_EENS_10GivpConfigEEUlS7_E_NS0_3RngEEESD_IS5_dERKSB_S7_S7_mRSt8optionalINS0_15EvaluationCacheEERT0_RKSP_INSt6chrono10time_pointINSV_3_V212steady_clockENSV_8durationIlSt5ratioILl1ELl1000000000EEEEEEE
FN:67,109,_ZN4givp6detail28bidirectional_path_relinkingIZNS0_3runIRZL23CATCH2_INTERNAL_TEST_14vEUlRKSt6vectorIdSaIdEEE_EENS_14OptimizeResultEOT_RKS3_ISt4pairIddESaISE_EENS_10GivpConfigEEUlS7_E_NS0_3RngEEESD_IS5_dERKSB_S7_S7_mRSt8optionalINS0_15EvaluationCacheEERT0_RKSP_INSt6chrono10time_pointINSV_3_V212steady_clockENSV_8durationIlSt5ratioILl1ELl1000000000EEEEEEE
FN:67,109,_ZN4givp6detail28bidirectional_path_relinkingIZNS0_3runIRZL23CATCH2_INTERNAL_TEST_16vEUlRKSt6vectorIdSaIdEEE_EENS_14OptimizeResultEOT_RKS3_ISt4pairIddESaISE_EENS_10GivpConfigEEUlS7_E_NS0_3RngEEESD_IS5_dERKSB_S7_S7_mRSt8optionalINS0_15EvaluationCacheEERT0_RKSP_INSt6chrono10time_pointINSV_3_V212steady_clockENSV_8durationIlSt5ratioILl1ELl1000000000EEEEEEE
FN:67,109,_ZN4givp6detail28bidirectional_path_relinkingIZNS0_3runIRZL23CATCH2_INTERNAL_TEST_28vEUlRKSt6vectorIdSaIdEEE_EENS_14OptimizeResultEOT_RKS3_ISt4pairIddESaISE_EENS_10GivpConfigEEUlS7_E_NS0_3RngEEESD_IS5_dERKSB_S7_S7_mRSt8optionalINS0_15EvaluationCacheEERT0_RKSP_INSt6chrono10time_pointINSV_3_V212steady_clockENSV_8durationIlSt5ratioILl1ELl1000000000EEEEEEE
FN:67,109,_ZN4givp6detail28bidirectional_path_relinkingIZNS0_3runIRZL23CATCH2_INTERNAL_TEST_42vEUlRKSt6vectorIdSaIdEEE_EENS_14OptimizeResultEOT_RKS3_ISt4pairIddESaISE_EENS_10GivpConfigEEUlS7_E_NS0_3RngEEESD_IS5_dERKSB_S7_S7_mRSt8optionalINS0_15EvaluationCacheEERT0_RKSP_INSt6chrono10time_pointINSV_3_V212steady_clockENSV_8durationIlSt5ratioILl1ELl1000000000EEEEEEE
FN:67,109,_ZN4givp6detail28bidirectional_path_relinkingIZNS0_3runIRZL23CATCH2_INTERNAL_TEST_44vEUlRKSt6vectorIdSaIdEEE_EENS_14OptimizeResultEOT_RKS3_ISt4pairIddESaISE_EENS_10GivpConfigEEUlS7_E_NS0_3RngEEESD_IS5_dERKSB_S7_S7_mRSt8optionalINS0_15EvaluationCacheEERT0_RKSP_INSt6chrono10time_pointINSV_3_V212steady_clockENSV_8durationIlSt5ratioILl1ELl1000000000EEEEEEE
FN:67,109,_ZN4givp6detail28bidirectional_path_relinkingIZNS0_3runIZL23CATCH2_INTERNAL_TEST_16vEUlRKSt6vectorIdSaIdEEE_EENS_14OptimizeResultEOT_RKS3_ISt4pairIddESaISD_EENS_10GivpConfigEEUlS7_E_NS0_3RngEEESC_IS5_dERKSA_S7_S7_mRSt8optionalINS0_15EvaluationCacheEERT0_RKSO_INSt6chrono10time_pointINSU_3_V212steady_clockENSU_8durationIlSt5ratioILl1ELl1000000000EEEEEEE
FN:67,109,_ZN4givp6detail28bidirectional_path_relinkingIZNS0_3runIZL23CATCH2_INTERNAL_TEST_18vEUlRKSt6vectorIdSaIdEEE_EENS_14OptimizeResultEOT_RKS3_ISt4pairIddESaISD_EENS_10GivpConfigEEUlS7_E_NS0_3RngEEESC_IS5_dERKSA_S7_S7_mRSt8optionalINS0_15EvaluationCacheEERT0_RKSO_INSt6chrono10time_pointINSU_3_V212steady_clockENSU_8durationIlSt5ratioILl1ELl1000000000EEEEEEE
FN:67,109,_ZN4givp6detail28bidirectional_path_relinkingIZNS0_3runIZL23CATCH2_INTERNAL_TEST_20vEUlRKSt6vectorIdSaIdEEE_EENS_14OptimizeResultEOT_RKS3_ISt4pairIddESaISD_EENS_10GivpConfigEEUlS7_E_NS0_3RngEEESC_IS5_dERKSA_S7_S7_mRSt8optionalINS0_15EvaluationCacheEERT0_RKSO_INSt6chrono10time_pointINSU_3_V212steady_clockENSU_8durationIlSt5ratioILl1ELl1000000000EEEEEEE
FN:67,109,_ZN4givp6detail28bidirectional_path_relinkingIZNS0_3runIZL23CATCH2_INTERNAL_TEST_22vEUlRKSt6vectorIdSaIdEEE_EENS_14OptimizeResultEOT_RKS3_ISt4pairIddESaISD_EENS_10GivpConfigEEUlS7_E_NS0_3RngEEESC_IS5_dERKSA_S7_S7_mRSt8optionalINS0_15EvaluationCacheEERT0_RKSO_INSt6chrono10time_pointINSU_3_V212steady_clockENSU_8durationIlSt5ratioILl1ELl1000000000EEEEEEE
FN:67,109,_ZN4givp6detail28bidirectional_path_relinkingIZNS0_3runIZL23CATCH2_INTERNAL_TEST_24vEUlRKSt6vectorIdSaIdEEE_EENS_14OptimizeResultEOT_RKS3_ISt4pairIddESaISD_EENS_10GivpConfigEEUlS7_E_NS0_3RngEEESC_IS5_dERKSA_S7_S7_mRSt8optionalINS0_15EvaluationCacheEERT0_RKSO_INSt6chrono10time_pointINSU_3_V212steady_clockENSU_8durationIlSt5ratioILl1ELl1000000000EEEEEEE
FN:88,88,_ZZN4givp6detail28bidirectional_path_relinkingIZL23CATCH2_INTERNAL_TEST_38vEUlRKSt6vectorIdSaIdEEE_NS0_3RngEEESt4pairIS4_dERKT_S6_S6_mRSt8optionalINS0_15EvaluationCacheEERT0_RKSE_INSt6chrono10time_pointINSK_3_V212steady_clockENSK_8durationIlSt5ratioILl1ELl1000000000EEEEEEEENKUlmmE_clEmm
FN:88,88,_ZZN4givp6detail28bidirectional_path_relinkingIZL23CATCH2_INTERNAL_TEST_40vEUlRKSt6vectorIdSaIdEEE_NS0_3RngEEESt4pairIS4_dERKT_S6_S6_mRSt8optionalINS0_15EvaluationCacheEERT0_RKSE_INSt6chrono10time_pointINSK_3_V212steady_clockENSK_8durationIlSt5ratioILl1ELl1000000000EEEEEEEENKUlmmE_clEmm
FN:88,88,_ZZN4givp6detail28bidirectional_path_relinkingIZNS0_3runIRFdRKSt6vectorIdSaIdEEEEENS_14OptimizeResultEOT_RKS3_ISt4pairIddESaISE_EENS_10GivpConfigEEUlS7_E_NS0_3RngEEESD_IS5_dERKSB_S7_S7_mRSt8optionalINS0_15EvaluationCacheEERT0_RKSP_INSt6chrono10time_pointINSV_3_V212steady_clockENSV_8durationIlSt5ratioILl1ELl1000000000EEEEEEEENKUlmmE_clEmm
FN:88,88,_ZZN4givp6detail28bidirectional_path_relinkingIZNS0_3runIRZL22CATCH2_INTERNAL_TEST_6vEUlRKSt6vectorIdSaIdEEE_EENS_14OptimizeResultEOT_RKS3_ISt4pairIddESaISE_EENS_10GivpConfigEEUlS7_E_NS0_3RngEEESD_IS5_dERKSB_S7_S7_mRSt8optionalINS0_15EvaluationCacheEERT0_RKSP_INSt6chrono10time_pointINSV_3_V212steady_clockENSV_8durationIlSt5ratioILl1ELl1000000000EEEEEEEENKUlmmE_clEmm
FN:88,88,_ZZN4givp6detail28bidirectional_path_relinkingIZNS0_3runIRZL22CATCH2_INTERNAL_TEST_8vEUlRKSt6vectorIdSaIdEEE_EENS_14OptimizeResultEOT_RKS3_ISt4pairIddESaISE_EENS_10GivpConfigEEUlS7_E_NS0_3RngEEESD_IS5_dERKSB_S7_S7_mRSt8optionalINS0_15EvaluationCacheEERT0_RKSP_INSt6chrono10time_pointINSV_3_V212steady_clockENSV_8durationIlSt5ratioILl1ELl1000000000EEEEEEEENKUlmmE_clEmm
FN:88,88,_ZZN4givp6detail28bidirectional_path_relinkingIZNS0_3runIRZL23CATCH2_INTERNAL_TEST_12vEUlRKSt6vectorIdSaIdEEE_EENS_14OptimizeResultEOT_RKS3_ISt4pairIddESaISE_EENS_10GivpConfigEEUlS7_E_NS0_3RngEEESD_IS5_dERKSB_S7_S7_mRSt8optionalINS0_15EvaluationCacheEERT0_RKSP_INSt6chrono10time_pointINSV_3_V212steady_clockENSV_8durationIlSt5ratioILl1ELl1000000000EEEEEEEENKUlmmE_clEmm
FN:88,88,_ZZN4givp6detail28bidirectional_path_relinkingIZNS0_3runIRZL23CATCH2_INTERNAL_TEST_14vEUlRKSt6vectorIdSaIdEEE_EENS_14OptimizeResultEOT_RKS3_ISt4pairIddESaISE_EENS_10GivpConfigEEUlS7_E_NS0_3RngEEESD_IS5_dERKSB_S7_S7_mRSt8optionalINS0_15EvaluationCacheEERT0_RKSP_INSt6chrono10time_pointINSV_3_V212steady_clockENSV_8durationIlSt5ratioILl1ELl1000000000EEEEEEEENKUlmmE_clEmm
FN:88,88,_ZZN4givp6detail28bidirectional_path_relinkingIZNS0_3runIRZL23CATCH2_INTERNAL_TEST_16vEUlRKSt6vectorIdSaIdEEE_EENS_14OptimizeResultEOT_RKS3_ISt4pairIddESaISE_EENS_10GivpConfigEEUlS7_E_NS0_3RngEEESD_IS5_dERKSB_S7_S7_mRSt8optionalINS0_15EvaluationCacheEERT0_RKSP_INSt6chrono10time_pointINSV_3_V212steady_clockENSV_8durationIlSt5ratioILl1ELl1000000000EEEEEEEENKUlmmE_clEmm
FN:88,88,_ZZN4givp6detail28bidirectional_path_relinkingIZNS0_3runIRZL23CATCH2_INTERNAL_TEST_28vEUlRKSt6vectorIdSaIdEEE_EENS_14OptimizeResultEOT_RKS3_ISt4pairIddESaISE_EENS_10GivpConfigEEUlS7_E_NS0_3RngEEESD_IS5_dERKSB_S7_S7_mRSt8optionalINS0_15EvaluationCacheEERT0_RKSP_INSt6chrono10time_pointINSV_3_V212steady_clockENSV_8durationIlSt5ratioILl1ELl1000000000EEEEEEEENKUlmmE_clEmm
FN:88,88,_ZZN4givp6detail28bidirectional_path_relinkingIZNS0_3runIRZL23CATCH2_INTERNAL_TEST_42vEUlRKSt6vectorIdSaIdEEE_EENS_14OptimizeResultEOT_RKS3_ISt4pairIddESaISE_EENS_10GivpConfigEEUlS7_E_NS0_3RngEEESD_IS5_dERKSB_S7_S7_mRSt8optionalINS0_15EvaluationCacheEERT0_RKSP_INSt6chrono10time_pointINSV_3_V212steady_clockENSV_8durationIlSt5ratioILl1ELl1000000000EEEEEEEENKUlmmE_clEmm
FN:88,88,_ZZN4givp6detail28bidirectional_path_relinkingIZNS0_3runIRZL23CATCH2_INTERNAL_TEST_44vEUlRKSt6vectorIdSaIdEEE_EENS_14OptimizeResultEOT_RKS3_ISt4pairIddESaISE_EENS_10GivpConfigEEUlS7_E_NS0_3RngEEESD_IS5_dERKSB_S7_S7_mRSt8optionalINS0_15EvaluationCacheEERT0_RKSP_INSt6chrono10time_pointINSV_3_V212steady_clockENSV_8durationIlSt5ratioILl1ELl1000000000EEEEEEEENKUlmmE_clEmm
FN:88,88,_ZZN4givp6detail28bidirectional_path_relinkingIZNS0_3runIZL23CATCH2_INTERNAL_TEST_16vEUlRKSt6vectorIdSaIdEEE_EENS_14OptimizeResultEOT_RKS3_ISt4pairIddESaISD_EENS_10GivpConfigEEUlS7_E_NS0_3RngEEESC_IS5_dERKSA_S7_S7_mRSt8optionalINS0_15EvaluationCacheEERT0_RKSO_INSt6chrono10time_pointINSU_3_V212steady_clockENSU_8durationIlSt5ratioILl1ELl1000000000EEEEEEEENKUlmmE_clEmm
FN:88,88,_ZZN4givp6detail28bidirectional_path_relinkingIZNS0_3runIZL23CATCH2_INTERNAL_TEST_18vEUlRKSt6vectorIdSaIdEEE_EENS_14OptimizeResultEOT_RKS3_ISt4pairIddESaISD_EENS_10GivpConfigEEUlS7_E_NS0_3RngEEESC_IS5_dERKSA_S7_S7_mRSt8optionalINS0_15EvaluationCacheEERT0_RKSO_INSt6chrono10time_pointINSU_3_V212steady_clockENSU_8durationIlSt5ratioILl1ELl1000000000EEEEEEEENKUlmmE_clEmm
FN:88,88,_ZZN4givp6detail28bidirectional_path_relinkingIZNS0_3runIZL23CATCH2_INTERNAL_TEST_20vEUlRKSt6vectorIdSaIdEEE_EENS_14OptimizeResultEOT_RKS3_ISt4pairIddESaISD_EENS_10GivpConfigEEUlS7_E_NS0_3RngEEESC_IS5_dERKSA_S7_S7_mRSt8optionalINS0_15EvaluationCacheEERT0_RKSO_INSt6chrono10time_pointINSU_3_V212steady_clockENSU_8durationIlSt5ratioILl1ELl1000000000EEEEEEEENKUlmmE_clEmm
FN:88,88,_ZZN4givp6detail28bidirectional_path_relinkingIZNS0_3runIZL23CATCH2_INTERNAL_TEST_22vEUlRKSt6vectorIdSaIdEEE_EENS_14OptimizeResultEOT_RKS3_ISt4pairIddESaISD_EENS_10GivpConfigEEUlS7_E_NS0_3RngEEESC_IS5_dERKSA_S7_S7_mRSt8optionalINS0_15EvaluationCacheEERT0_RKSO_INSt6chrono10time_pointINSU_3_V212steady_clockENSU_8durationIlSt5ratioILl1ELl1000000000EEEEEEEENKUlmmE_clEmm
FN:88,88,_ZZN4givp6detail28bidirectional_path_relinkingIZNS0_3runIZL23CATCH2_INTERNAL_TEST_24vEUlRKSt6vectorIdSaIdEEE_EENS_14OptimizeResultEOT_RKS3_ISt4pairIddESaISD_EENS_10GivpConfigEEUlS7_E_NS0_3RngEEESC_IS5_dERKSA_S7_S7_mRSt8optionalINS0_15EvaluationCacheEERT0_RKSO_INSt6chrono10time_pointINSU_3_V212steady_clockENSU_8durationIlSt5ratioILl1ELl1000000000EEEEEEEENKUlmmE_clEmm
FNDA:8,_ZN4givp6detailL19path_relinking_bestIZL23CATCH2_INTERNAL_TEST_38vEUlRKSt6vectorIdSaIdEEE_EESt4pairIS4_dERKT_S6_S6_S2_ImSaImEERSt8optionalINS0_15EvaluationCacheEEmRKSF_INSt6chrono10time_pointINSJ_3_V212steady_clockENSJ_8durationIlSt5ratioILl1ELl1000000000EEEEEEE
FNDA:8,_ZN4givp6detailL19path_relinking_bestIZL23CATCH2_INTERNAL_TEST_40vEUlRKSt6vectorIdSaIdEEE_EESt4pairIS4_dERKT_S6_S6_S2_ImSaImEERSt8optionalINS0_15EvaluationCacheEEmRKSF_INSt6chrono10time_pointINSJ_3_V212steady_clockENSJ_8durationIlSt5ratioILl1ELl1000000000EEEEEEE
FNDA:1184,_ZN4givp6detailL19path_relinking_bestIZNS0_3runIRFdRKSt6vectorIdSaIdEEEEENS_14OptimizeResultEOT_RKS3_ISt4pairIddESaISE_EENS_10GivpConfigEEUlS7_E_EESD_IS5_dERKSB_S7_S7_S3_ImSaImEERSt8optionalINS0_15EvaluationCacheEEmRKSQ_INSt6chrono10time_pointINSU_3_V212steady_clockENSU_8durationIlSt5ratioILl1ELl1000000000EEEEEEE
FNDA:144,_ZN4givp6detailL19path_relinking_bestIZNS0_3runIRZL22CATCH2_INTERNAL_TEST_6vEUlRKSt6vectorIdSaIdEEE_EENS_14OptimizeResultEOT_RKS3_ISt4pairIddESaISE_EENS_10GivpConfigEEUlS7_E_EESD_IS5_dERKSB_S7_S7_S3_ImSaImEERSt8optionalINS0_15EvaluationCacheEEmRKSQ_INSt6chrono10time_pointINSU_3_V212steady_clockENSU_8durationIlSt5ratioILl1ELl1000000000EEEEEEE
FNDA:216,_ZN4givp6detailL19path_relinking_bestIZNS0_3runIRZL22CATCH2_INTERNAL_TEST_8vEUlRKSt6vectorIdSaIdEEE_EENS_14OptimizeResultEOT_RKS3_ISt4pairIddESaISE_EENS_10GivpConfigEEUlS7_E_EESD_IS5_dERKSB_S7_S7_S3_ImSaImEERSt8optionalINS0_15EvaluationCacheEEmRKSQ_INSt6chrono10time_pointINSU_3_V212steady_clockENSU_8durationIlSt5ratioILl1ELl1000000000EEEEEEE
FNDA:120,_ZN4givp6detailL19path_relinking_bestIZNS0_3runIRZL23CATCH2_INTERNAL_TEST_12vEUlRKSt6vectorIdSaIdEEE_EENS_14OptimizeResultEOT_RKS3_ISt4pairIddESaISE_EENS_10GivpConfigEEUlS7_E_EESD_IS5_dERKSB_S7_S7_S3_ImSaImEERSt8optionalINS0_15EvaluationCacheEEmRKSQ_INSt6chrono10time_pointINSU_3_V212steady_clockENSU_8durationIlSt5ratioILl1ELl1000000000EEEEEEE
FNDA:32,_ZN4givp6detailL19path_relinking_bestIZNS0_3runIRZL23CATCH2_INTERNAL_TEST_14vEUlRKSt6vectorIdSaIdEEE_EENS_14OptimizeResultEOT_RKS3_ISt4pairIddESaISE_EENS_10GivpConfigEEUlS7_E_EESD_IS5_dERKSB_S7_S7_S3_ImSaImEERSt8optionalINS0_15EvaluationCacheEEmRKSQ_INSt6chrono10time_pointINSU_3_V212steady_clockENSU_8durationIlSt5ratioILl1ELl1000000000EEEEEEE
FNDA:16,_ZN4givp6detailL19path_relinking_bestIZNS0_3runIRZL23CATCH2_INTERNAL_TEST_16vEUlRKSt6vectorIdSaIdEEE_EENS_14OptimizeResultEOT_RKS3_ISt4pairIddESaISE_EENS_10GivpConfigEEUlS7_E_EESD_IS5_dERKSB_S7_S7_S3_ImSaImEERSt8optionalINS0_15EvaluationCacheEEmRKSQ_INSt6chrono10time_pointINSU_3_V212steady_clockENSU_8durationIlSt5ratioILl1ELl1000000000EEEEEEE
FNDA:0,_ZN4givp6detailL19path_relinking_bestIZNS0_3runIRZL23CATCH2_INTERNAL_TEST_28vEUlRKSt6vectorIdSaIdEEE_EENS_14OptimizeResultEOT_RKS3_ISt4pairIddESaISE_EENS_10GivpConfigEEUlS7_E_EESD_IS5_dERKSB_S7_S7_S3_ImSaImEERSt8optionalINS0_15EvaluationCacheEEmRKSQ_INSt6chrono10time_pointINSU_3_V212steady_clockENSU_8durationIlSt5ratioILl1ELl1000000000EEEEEEE
FNDA:0,_ZN4givp6detailL19path_relinking_bestIZNS0_3runIRZL23CATCH2_INTERNAL_TEST_42vEUlRKSt6vectorIdSaIdEEE_EENS_14OptimizeResultEOT_RKS3_ISt4pairIddESaISE_EENS_10GivpConfigEEUlS7_E_EESD_IS5_dERKSB_S7_S7_S3_ImSaImEERSt8optionalINS0_15EvaluationCacheEEmRKSQ_INSt6chrono10time_pointINSU_3_V212steady_clockENSU_8durationIlSt5ratioILl1ELl1000000000EEEEEEE
FNDA:448,_ZN4givp6detailL19path_relinking_bestIZNS0_3runIRZL23CATCH2_INTERNAL_TEST_44vEUlRKSt6vectorIdSaIdEEE_EENS_14OptimizeResultEOT_RKS3_ISt4pairIddESaISE_EENS_10GivpConfigEEUlS7_E_EESD_IS5_dERKSB_S7_S7_S3_ImSaImEERSt8optionalINS0_15EvaluationCacheEEmRKSQ_INSt6chrono10time_pointINSU_3_V212steady_clockENSU_8durationIlSt5ratioILl1ELl1000000000EEEEEEE
FNDA:0,_ZN4givp6detailL19path_relinking_bestIZNS0_3runIZL23CATCH2_INTERNAL_TEST_16vEUlRKSt6vectorIdSaIdEEE_EENS_14OptimizeResultEOT_RKS3_ISt4pairIddESaISD_EENS_10GivpConfigEEUlS7_E_EESC_IS5_dERKSA_S7_S7_S3_ImSaImEERSt8optionalINS0_15EvaluationCacheEEmRKSP_INSt6chrono10time_pointINST_3_V212steady_clockENST_8durationIlSt5ratioILl1ELl1000000000EEEEEEE
FNDA:0,_ZN4givp6detailL19path_relinking_bestIZNS0_3runIZL23CATCH2_INTERNAL_TEST_18vEUlRKSt6vectorIdSaIdEEE_EENS_14OptimizeResultEOT_RKS3_ISt4pairIddESaISD_EENS_10GivpConfigEEUlS7_E_EESC_IS5_dERKSA_S7_S7_S3_ImSaImEERSt8optionalINS0_15EvaluationCacheEEmRKSP_INSt6chrono10time_pointINST_3_V212steady_clockENST_8durationIlSt5ratioILl1ELl1000000000EEEEEEE
FNDA:0,_ZN4givp6detailL19path_relinking_bestIZNS0_3runIZL23CATCH2_INTERNAL_TEST_20vEUlRKSt6vectorIdSaIdEEE_EENS_14OptimizeResultEOT_RKS3_ISt4pairIddESaISD_EENS_10GivpConfigEEUlS7_E_EESC_IS5_dERKSA_S7_S7_S3_ImSaImEERSt8optionalINS0_15EvaluationCacheEEmRKSP_INSt6chrono10time_pointINST_3_V212steady_clockENST_8durationIlSt5ratioILl1ELl1000000000EEEEEEE
FNDA:0,_ZN4givp6detailL19path_relinking_bestIZNS0_3runIZL23CATCH2_INTERNAL_TEST_22vEUlRKSt6vectorIdSaIdEEE_EENS_14OptimizeResultEOT_RKS3_ISt4pairIddESaISD_EENS_10GivpConfigEEUlS7_E_EESC_IS5_dERKSA_S7_S7_S3_ImSaImEERSt8optionalINS0_15EvaluationCacheEEmRKSP_INSt6chrono10time_pointINST_3_V212steady_clockENST_8durationIlSt5ratioILl1ELl1000000000EEEEEEE
FNDA:0,_ZN4givp6detailL19path_relinking_bestIZNS0_3runIZL23CATCH2_INTERNAL_TEST_24vEUlRKSt6vectorIdSaIdEEE_EENS_14OptimizeResultEOT_RKS3_ISt4pairIddESaISD_EENS_10GivpConfigEEUlS7_E_EESC_IS5_dERKSA_S7_S7_S3_ImSaImEERSt8optionalINS0_15EvaluationCacheEEmRKSP_INSt6chrono10time_pointINST_3_V212steady_clockENST_8durationIlSt5ratioILl1ELl1000000000EEEEEEE
FNDA:4,_ZN4givp6detail28bidirectional_path_relinkingIZL23CATCH2_INTERNAL_TEST_38vEUlRKSt6vectorIdSaIdEEE_NS0_3RngEEESt4pairIS4_dERKT_S6_S6_mRSt8optionalINS0_15EvaluationCacheEERT0_RKSE_INSt6chrono10time_pointINSK_3_V212steady_clockENSK_8durationIlSt5ratioILl1ELl1000000000EEEEEEE
FNDA:4,_ZN4givp6detail28bidirectional_path_relinkingIZL23CATCH2_INTERNAL_TEST_40vEUlRKSt6vectorIdSaIdEEE_NS0_3RngEEESt4pairIS4_dERKT_S6_S6_mRSt8optionalINS0_15EvaluationCacheEERT0_RKSE_INSt6chrono10time_pointINSK_3_V212steady_clockENSK_8durationIlSt5ratioILl1ELl1000000000EEEEEEE
FNDA:592,_ZN4givp6detail28bidirectional_path_relinkingIZNS0_3runIRFdRKSt6vectorIdSaIdEEEEENS_14OptimizeResultEOT_RKS3_ISt4pairIddESaISE_EENS_10GivpConfigEEUlS7_E_NS0_3RngEEESD_IS5_dERKSB_S7_S7_mRSt8optionalINS0_15EvaluationCacheEERT0_RKSP_INSt6chrono10time_pointINSV_3_V212steady_clockENSV_8durationIlSt5ratioILl1ELl1000000000EEEEEEE
FNDA:72,_ZN4givp6detail28bidirectional_path_relinkingIZNS0_3runIRZL22CATCH2_INTERNAL_TEST_6vEUlRKSt6vectorIdSaIdEEE_EENS_14OptimizeResultEOT_RKS3_ISt4pairIddESaISE_EENS_10GivpConfigEEUlS7_E_NS0_3RngEEESD_IS5_dERKSB_S7_S7_mRSt8optionalINS0_15EvaluationCacheEERT0_RKSP_INSt6chrono10time_pointINSV_3_V212steady_clockENSV_8durationIlSt5ratioILl1ELl1000000000EEEEEEE
FNDA:108,_ZN4givp6detail28bidirectional_path_relinkingIZNS0_3runIRZL22CATCH2_INTERNAL_TEST_8vEUlRKSt6vectorIdSaIdEEE_EENS_14OptimizeResultEOT_RKS3_ISt4pairIddESaISE_EENS_10GivpConfigEEUlS7_E_NS0_3RngEEESD_IS5_dERKSB_S7_S7_mRSt8optionalINS0_15EvaluationCacheEERT0_RKSP_INSt6chrono10time_pointINSV_3_V212steady_clockENSV_8durationIlSt5ratioILl1ELl1000000000EEEEEEE
FNDA:60,_ZN4givp6detail28bidirectional_path_relinkingIZNS0_3runIRZL23CATCH2_INTERNAL_TEST_12vEUlRKSt6vectorIdSaIdEEE_EENS_14OptimizeResultEOT_RKS3_ISt4pairIddESaISE_EENS_10GivpConfigEEUlS7_E_NS0_3RngEEESD_IS5_dERKSB_S7_S7_mRSt8optionalINS0_15EvaluationCacheEERT0_RKSP_INSt6chrono10time_pointINSV_3_V212steady_clockENSV_8durationIlSt5ratioILl1ELl1000000000EEEEEEE
FNDA:16,_ZN4givp6detail28bidirectional_path_relinkingIZNS0_3runIRZL23CATCH2_INTERNAL_TEST_14vEUlRKSt6vectorIdSaIdEEE_EENS_14OptimizeResultEOT_RKS3_ISt4pairIddESaISE_EENS_10GivpConfigEEUlS7_E_NS0_3RngEEESD_IS5_dERKSB_S7_S7_mRSt8optionalINS0_15EvaluationCacheEERT0_RKSP_INSt6chrono10time_pointINSV_3_V212steady_clockENSV_8durationIlSt5ratioILl1ELl1000000000EEEEEEE
FNDA:8,_ZN4givp6detail28bidirectional_path_relinkingIZNS0_3runIRZL23CATCH2_INTERNAL_TEST_16vEUlRKSt6vectorIdSaIdEEE_EENS_14OptimizeResultEOT_RKS3_ISt4pairIddESaISE_EENS_10GivpConfigEEUlS7_E_NS0_3RngEEESD_IS5_dERKSB_S7_S7_mRSt8optionalINS0_15EvaluationCacheEERT0_RKSP_INSt6chrono10time_pointINSV_3_V212steady_clockENSV_8durationIlSt5ratioILl1ELl1000000000EEEEEEE
FNDA:0,_ZN4givp6detail28bidirectional_path_relinkingIZNS0_3runIRZL23CATCH2_INTERNAL_TEST_28vEUlRKSt6vectorIdSaIdEEE_EENS_14OptimizeResultEOT_RKS3_ISt4pairIddESaISE_EENS_10GivpConfigEEUlS7_E_NS0_3RngEEESD_IS5_dERKSB_S7_S7_mRSt8optionalINS0_15EvaluationCacheEERT0_RKSP_INSt6chrono10time_pointINSV_3_V212steady_clockENSV_8durationIlSt5ratioILl1ELl1000000000EEEEEEE
FNDA:0,_ZN4givp6detail28bidirectional_path_relinkingIZNS0_3runIRZL23CATCH2_INTERNAL_TEST_42vEUlRKSt6vectorIdSaIdEEE_EENS_14OptimizeResultEOT_RKS3_ISt4pairIddESaISE_EENS_10GivpConfigEEUlS7_E_NS0_3RngEEESD_IS5_dERKSB_S7_S7_mRSt8optionalINS0_15EvaluationCacheEERT0_RKSP_INSt6chrono10time_pointINSV_3_V212steady_clockENSV_8durationIlSt5ratioILl1ELl1000000000EEEEEEE
FNDA:224,_ZN4givp6detail28bidirectional_path_relinkingIZNS0_3runIRZL23CATCH2_INTERNAL_TEST_44vEUlRKSt6vectorIdSaIdEEE_EENS_14OptimizeResultEOT_RKS3_ISt4pairIddESaISE_EENS_10GivpConfigEEUlS7_E_NS0_3RngEEESD_IS5_dERKSB_S7_S7_mRSt8optionalINS0_15EvaluationCacheEERT0_RKSP_INSt6chrono10time_pointINSV_3_V212steady_clockENSV_8durationIlSt5ratioILl1ELl1000000000EEEEEEE
FNDA:0,_ZN4givp6detail28bidirectional_path_relinkingIZNS0_3runIZL23CATCH2_INTERNAL_TEST_16vEUlRKSt6vectorIdSaIdEEE_EENS_14OptimizeResultEOT_RKS3_ISt4pairIddESaISD_EENS_10GivpConfigEEUlS7_E_NS0_3RngEEESC_IS5_dERKSA_S7_S7_mRSt8optionalINS0_15EvaluationCacheEERT0_RKSO_INSt6chrono10time_pointINSU_3_V212steady_clockENSU_8durationIlSt5ratioILl1ELl1000000000EEEEEEE
FNDA:0,_ZN4givp6detail28bidirectional_path_relinkingIZNS0_3runIZL23CATCH2_INTERNAL_TEST_18vEUlRKSt6vectorIdSaIdEEE_EENS_14OptimizeResultEOT_RKS3_ISt4pairIddESaISD_EENS_10GivpConfigEEUlS7_E_NS0_3RngEEESC_IS5_dERKSA_S7_S7_mRSt8optionalINS0_15EvaluationCacheEERT0_RKSO_INSt6chrono10time_pointINSU_3_V212steady_clockENSU_8durationIlSt5ratioILl1ELl1000000000EEEEEEE
FNDA:0,_ZN4givp6detail28bidirectional_path_relinkingIZNS0_3runIZL23CATCH2_INTERNAL_TEST_20vEUlRKSt6vectorIdSaIdEEE_EENS_14OptimizeResultEOT_RKS3_ISt4pairIddESaISD_EENS_10GivpConfigEEUlS7_E_NS0_3RngEEESC_IS5_dERKSA_S7_S7_mRSt8optionalINS0_15EvaluationCacheEERT0_RKSO_INSt6chrono10time_pointINSU_3_V212steady_clockENSU_8durationIlSt5ratioILl1ELl1000000000EEEEEEE
FNDA:0,_ZN4givp6detail28bidirectional_path_relinkingIZNS0_3runIZL23CATCH2_INTERNAL_TEST_22vEUlRKSt6vectorIdSaIdEEE_EENS_14OptimizeResultEOT_RKS3_ISt4pairIddESaISD_EENS_10GivpConfigEEUlS7_E_NS0_3RngEEESC_IS5_dERKSA_S7_S7_mRSt8optionalINS0_15EvaluationCacheEERT0_RKSO_INSt6chrono10time_pointINSU_3_V212steady_clockENSU_8durationIlSt5ratioILl1ELl1000000000EEEEEEE
FNDA:0,_ZN4givp6detail28bidirectional_path_relinkingIZNS0_3runIZL23CATCH2_INTERNAL_TEST_24vEUlRKSt6vectorIdSaIdEEE_EENS_14OptimizeResultEOT_RKS3_ISt4pairIddESaISD_EENS_10GivpConfigEEUlS7_E_NS0_3RngEEESC_IS5_dERKSA_S7_S7_mRSt8optionalINS0_15EvaluationCacheEERT0_RKSO_INSt6chrono10time_pointINSU_3_V212steady_clockENSU_8durationIlSt5ratioILl1ELl1000000000EEEEEEE
FNDA:0,_ZZN4givp6detail28bidirectional_path_relinkingIZL23CATCH2_INTERNAL_TEST_38vEUlRKSt6vectorIdSaIdEEE_NS0_3RngEEESt4pairIS4_dERKT_S6_S6_mRSt8optionalINS0_15EvaluationCacheEERT0_RKSE_INSt6chrono10time_pointINSK_3_V212steady_clockENSK_8durationIlSt5ratioILl1ELl1000000000EEEEEEEENKUlmmE_clEmm
FNDA:0,_ZZN4givp6detail28bidirectional_path_relinkingIZL23CATCH2_INTERNAL_TEST_40vEUlRKSt6vectorIdSaIdEEE_NS0_3RngEEESt4pairIS4_dERKT_S6_S6_mRSt8optionalINS0_15EvaluationCacheEERT0_RKSE_INSt6chrono10time_pointINSK_3_V212steady_clockENSK_8durationIlSt5ratioILl1ELl1000000000EEEEEEEENKUlmmE_clEmm
FNDA:4844,_ZZN4givp6detail28bidirectional_path_relinkingIZNS0_3runIRFdRKSt6vectorIdSaIdEEEEENS_14OptimizeResultEOT_RKS3_ISt4pairIddESaISE_EENS_10GivpConfigEEUlS7_E_NS0_3RngEEESD_IS5_dERKSB_S7_S7_mRSt8optionalINS0_15EvaluationCacheEERT0_RKSP_INSt6chrono10time_pointINSV_3_V212steady_clockENSV_8durationIlSt5ratioILl1ELl1000000000EEEEEEEENKUlmmE_clEmm
FNDA:0,_ZZN4givp6detail28bidirectional_path_relinkingIZNS0_3runIRZL22CATCH2_INTERNAL_TEST_6vEUlRKSt6vectorIdSaIdEEE_EENS_14OptimizeResultEOT_RKS3_ISt4pairIddESaISE_EENS_10GivpConfigEEUlS7_E_NS0_3RngEEESD_IS5_dERKSB_S7_S7_mRSt8optionalINS0_15EvaluationCacheEERT0_RKSP_INSt6chrono10time_pointINSV_3_V212steady_clockENSV_8durationIlSt5ratioILl1ELl1000000000EEEEEEEENKUlmmE_clEmm
FNDA:0,_ZZN4givp6detail28bidirectional_path_relinkingIZNS0_3runIRZL22CATCH2_INTERNAL_TEST_8vEUlRKSt6vectorIdSaIdEEE_EENS_14OptimizeResultEOT_RKS3_ISt4pairIddESaISE_EENS_10GivpConfigEEUlS7_E_NS0_3RngEEESD_IS5_dERKSB_S7_S7_mRSt8optionalINS0_15EvaluationCacheEERT0_RKSP_INSt6chrono10time_pointINSV_3_V212steady_clockENSV_8durationIlSt5ratioILl1ELl1000000000EEEEEEEENKUlmmE_clEmm
FNDA:0,_ZZN4givp6detail28bidirectional_path_relinkingIZNS0_3runIRZL23CATCH2_INTERNAL_TEST_12vEUlRKSt6vectorIdSaIdEEE_EENS_14OptimizeResultEOT_RKS3_ISt4pairIddESaISE_EENS_10GivpConfigEEUlS7_E_NS0_3RngEEESD_IS5_dERKSB_S7_S7_mRSt8optionalINS0_15EvaluationCacheEERT0_RKSP_INSt6chrono10time_pointINSV_3_V212steady_clockENSV_8durationIlSt5ratioILl1ELl1000000000EEEEEEEENKUlmmE_clEmm
FNDA:0,_ZZN4givp6detail28bidirectional_path_relinkingIZNS0_3runIRZL23CATCH2_INTERNAL_TEST_14vEUlRKSt6vectorIdSaIdEEE_EENS_14OptimizeResultEOT_RKS3_ISt4pairIddESaISE_EENS_10GivpConfigEEUlS7_E_NS0_3RngEEESD_IS5_dERKSB_S7_S7_mRSt8optionalINS0_15EvaluationCacheEERT0_RKSP_INSt6chrono10time_pointINSV_3_V212steady_clockENSV_8durationIlSt5ratioILl1ELl1000000000EEEEEEEENKUlmmE_clEmm
FNDA:0,_ZZN4givp6detail28bidirectional_path_relinkingIZNS0_3runIRZL23CATCH2_INTERNAL_TEST_16vEUlRKSt6vectorIdSaIdEEE_EENS_14OptimizeResultEOT_RKS3_ISt4pairIddESaISE_EENS_10GivpConfigEEUlS7_E_NS0_3RngEEESD_IS5_dERKSB_S7_S7_mRSt8optionalINS0_15EvaluationCacheEERT0_RKSP_INSt6chrono10time_pointINSV_3_V212steady_clockENSV_8durationIlSt5ratioILl1ELl1000000000EEEEEEEENKUlmmE_clEmm
FNDA:0,_ZZN4givp6detail28bidirectional_path_relinkingIZNS0_3runIRZL23CATCH2_INTERNAL_TEST_28vEUlRKSt6vectorIdSaIdEEE_EENS_14OptimizeResultEOT_RKS3_ISt4pairIddESaISE_EENS_10GivpConfigEEUlS7_E_NS0_3RngEEESD_IS5_dERKSB_S7_S7_mRSt8optionalINS0_15EvaluationCacheEERT0_RKSP_INSt6chrono10time_pointINSV_3_V212steady_clockENSV_8durationIlSt5ratioILl1ELl1000000000EEEEEEEENKUlmmE_clEmm
FNDA:0,_ZZN4givp6detail28bidirectional_path_relinkingIZNS0_3runIRZL23CATCH2_INTERNAL_TEST_42vEUlRKSt6vectorIdSaIdEEE_EENS_14OptimizeResultEOT_RKS3_ISt4pairIddESaISE_EENS_10GivpConfigEEUlS7_E_NS0_3RngEEESD_IS5_dERKSB_S7_S7_mRSt8optionalINS0_15EvaluationCacheEERT0_RKSP_INSt6chrono10time_pointINSV_3_V212steady_clockENSV_8durationIlSt5ratioILl1ELl1000000000EEEEEEEENKUlmmE_clEmm
FNDA:0,_ZZN4givp6detail28bidirectional_path_relinkingIZNS0_3runIRZL23CATCH2_INTERNAL_TEST_44vEUlRKSt6vectorIdSaIdEEE_EENS_14OptimizeResultEOT_RKS3_ISt4pairIddESaISE_EENS_10GivpConfigEEUlS7_E_NS0_3RngEEESD_IS5_dERKSB_S7_S7_mRSt8optionalINS0_15EvaluationCacheEERT0_RKSP_INSt6chrono10time_pointINSV_3_V212steady_clockENSV_8durationIlSt5ratioILl1ELl1000000000EEEEEEEENKUlmmE_clEmm
FNDA:0,_ZZN4givp6detail28bidirectional_path_relinkingIZNS0_3runIZL23CATCH2_INTERNAL_TEST_16vEUlRKSt6vectorIdSaIdEEE_EENS_14OptimizeResultEOT_RKS3_ISt4pairIddESaISD_EENS_10GivpConfigEEUlS7_E_NS0_3RngEEESC_IS5_dERKSA_S7_S7_mRSt8optionalINS0_15EvaluationCacheEERT0_RKSO_INSt6chrono10time_pointINSU_3_V212steady_clockENSU_8durationIlSt5ratioILl1ELl1000000000EEEEEEEENKUlmmE_clEmm
FNDA:0,_ZZN4givp6detail28bidirectional_path_relinkingIZNS0_3runIZL23CATCH2_INTERNAL_TEST_18vEUlRKSt6vectorIdSaIdEEE_EENS_14OptimizeResultEOT_RKS3_ISt4pairIddESaISD_EENS_10GivpConfigEEUlS7_E_NS0_3RngEEESC_IS5_dERKSA_S7_S7_mRSt8optionalINS0_15EvaluationCacheEERT0_RKSO_INSt6chrono10time_pointINSU_3_V212steady_clockENSU_8durationIlSt5ratioILl1ELl1000000000EEEEEEEENKUlmmE_clEmm
FNDA:0,_ZZN4givp6detail28bidirectional_path_relinkingIZNS0_3runIZL23CATCH2_INTERNAL_TEST_20vEUlRKSt6vectorIdSaIdEEE_EENS_14OptimizeResultEOT_RKS3_ISt4pairIddESaISD_EENS_10GivpConfigEEUlS7_E_NS0_3RngEEESC_IS5_dERKSA_S7_S7_mRSt8optionalINS0_15EvaluationCacheEERT0_RKSO_INSt6chrono10time_pointINSU_3_V212steady_clockENSU_8durationIlSt5ratioILl1ELl1000000000EEEEEEEENKUlmmE_clEmm
FNDA:0,_ZZN4givp6detail28bidirectional_path_relinkingIZNS0_3runIZL23CATCH2_INTERNAL_TEST_22vEUlRKSt6vectorIdSaIdEEE_EENS_14OptimizeResultEOT_RKS3_ISt4pairIddESaISD_EENS_10GivpConfigEEUlS7_E_NS0_3RngEEESC_IS5_dERKSA_S7_S7_mRSt8optionalINS0_15EvaluationCacheEERT0_RKSO_INSt6chrono10time_pointINSU_3_V212steady_clockENSU_8durationIlSt5ratioILl1ELl1000000000EEEEEEEENKUlmmE_clEmm
FNDA:0,_ZZN4givp6detail28bidirectional_path_relinkingIZNS0_3runIZL23CATCH2_INTERNAL_TEST_24vEUlRKSt6vectorIdSaIdEEE_EENS_14OptimizeResultEOT_RKS3_ISt4pairIddESaISD_EENS_10GivpConfigEEUlS7_E_NS0_3RngEEESC_IS5_dERKSA_S7_S7_mRSt8optionalINS0_15EvaluationCacheEERT0_RKSO_INSt6chrono10time_pointINSU_3_V212steady_clockENSU_8durationIlSt5ratioILl1ELl1000000000EEEEEEEENKUlmmE_clEmm
FNF:48
FNH:19
DA:21,2176
DA:28,2176
DA:29,2176
DA:30,2176
DA:32,16040
DA:33,11696
DA:35,11688
DA:36,11688
DA:37,11688
DA:39,65520
DA:40,53832
DA:41,53832
DA:42,53832
DA:43,53832
DA:44,53832
DA:45,21436
DA:46,21436
DA:47,21436
DA:49,53832
DA:52,11688
DA:53,11688
DA:55,11688
DA:57,11688
DA:58,3844
DA:59,3844
DA:62,4352
DA:63,2176
DA:67,1088
DA:74,1088
DA:75,1088
DA:76,7220
DA:77,6132
DA:78,5996
DA:80,1088
DA:81,0
DA:82,0
DA:86,1088
DA:87,28
DA:88,4844
DA:89,0
DA:90,0
DA:92,28
DA:96,5856
DA:97,4768
DA:98,4768
DA:101,1088
DA:103,1088
DA:106,1088
DA:107,1088
DA:108,232
DA:109,1088
LF:51
LH:47
end_of_record
TN:
SF:/workspace/cpp/include/givp/detail/vnd.hpp
FN:122,153,_ZN4givp6detailL17neighborhood_swapIZNS0_3runIRFdRKSt6vectorIdSaIdEEEEENS_14OptimizeResultEOT_RKS3_ISt4pairIddESaISE_EENS_10GivpConfigEEUlS7_E_NS0_3RngEEESD_IdbERS5_dRKSB_RT0_S7_S7_RSt8optionalINS0_15EvaluationCacheEEmRKSS_INSt6chrono10time_pointINSW_3_V212steady_clockENSW_8durationIlSt5ratioILl1ELl1000000000EEEEEEE
FN:122,153,_ZN4givp6detailL17neighborhood_swapIZNS0_3runIRZL22CATCH2_INTERNAL_TEST_6vEUlRKSt6vectorIdSaIdEEE_EENS_14OptimizeResultEOT_RKS3_ISt4pairIddESaISE_EENS_10GivpConfigEEUlS7_E_NS0_3RngEEESD_IdbERS5_dRKSB_RT0_S7_S7_RSt8optionalINS0_15EvaluationCacheEEmRKSS_INSt6chrono10time_pointINSW_3_V212steady_clockENSW_8durationIlSt5ratioILl1ELl1000000000EEEEEEE
FN:122,153,_ZN4givp6detailL17neighborhood_swapIZNS0_3runIRZL22CATCH2_INTERNAL_TEST_8vEUlRKSt6vectorIdSaIdEEE_EENS_14OptimizeResultEOT_RKS3_ISt4pairIddESaISE_EENS_10GivpConfigEEUlS7_E_NS0_3RngEEESD_IdbERS5_dRKSB_RT0_S7_S7_RSt8optionalINS0_15EvaluationCacheEEmRKSS_INSt6chrono10time_pointINSW_3_V212steady_clockENSW_8durationIlSt5ratioILl1ELl1000000000EEEEEEE
FN:122,153,_ZN4givp6detailL17neighborhood_swapIZNS0_3runIRZL23CATCH2_INTERNAL_TEST_12vEUlRKSt6vectorIdSaIdEEE_EENS_14OptimizeResultEOT_RKS3_ISt4pairIddESaISE_EENS_10GivpConfigEEUlS7_E_NS0_3RngEEESD_IdbERS5_dRKSB_RT0_S7_S7_RSt8optionalINS0_15EvaluationCacheEEmRKSS_INSt6chrono10time_pointINSW_3_V212steady_clockENSW_8durationIlSt5ratioILl1ELl1000000000EEEEEEE
FN:122,153,_ZN4givp6detailL17neighborhood_swapIZNS0_3runIRZL23CATCH2_INTERNAL_TEST_14vEUlRKSt6vectorIdSaIdEEE_EENS_14OptimizeResultEOT_RKS3_ISt4pairIddESaISE_EENS_10GivpConfigEEUlS7_E_NS0_3RngEEESD_IdbERS5_dRKSB_RT0_S7_S7_RSt8optionalINS0_15EvaluationCacheEEmRKSS_INSt6chrono10time_pointINSW_3_V212steady_clockENSW_8durationIlSt5ratioILl1ELl1000000000EEEEEEE
FN:122,153,_ZN4givp6detailL17neighborhood_swapIZNS0_3runIRZL23CATCH2_INTERNAL_TEST_16vEUlRKSt6vectorIdSaIdEEE_EENS_14OptimizeResultEOT_RKS3_ISt4pairIddESaISE_EENS_10GivpConfigEEUlS7_E_NS0_3RngEEESD_IdbERS5_dRKSB_RT0_S7_S7_RSt8optionalINS0_15EvaluationCacheEEmRKSS_INSt6chrono10time_pointINSW_3_V212steady_clockENSW_8durationIlSt5ratioILl1ELl1000000000EEEEEEE
FN:122,153,_ZN4givp6detailL17neighborhood_swapIZNS0_3runIRZL23CATCH2_INTERNAL_TEST_28vEUlRKSt6vectorIdSaIdEEE_EENS_14OptimizeResultEOT_RKS3_ISt4pairIddESaISE_EENS_10GivpConfigEEUlS7_E_NS0_3RngEEESD_IdbERS5_dRKSB_RT0_S7_S7_RSt8optionalINS0_15EvaluationCacheEEmRKSS_INSt6chrono10time_pointINSW_3_V212steady_clockENSW_8durationIlSt5ratioILl1ELl1000000000EEEEEEE
FN:122,153,_ZN4givp6detailL17neighborhood_swapIZNS0_3runIRZL23CATCH2_INTERNAL_TEST_42vEUlRKSt6vectorIdSaIdEEE_EENS_14OptimizeResultEOT_RKS3_ISt4pairIddESaISE_EENS_10GivpConfigEEUlS7_E_NS0_3RngEEESD_IdbERS5_dRKSB_RT0_S7_S7_RSt8optionalINS0_15EvaluationCacheEEmRKSS_INSt6chrono10time_pointINSW_3_V212steady_clockENSW_8durationIlSt5ratioILl1ELl1000000000EEEEEEE
FN:122,153,_ZN4givp6detailL17neighborhood_swapIZNS0_3runIRZL23CATCH2_INTERNAL_TEST_44vEUlRKSt6vectorIdSaIdEEE_EENS_14OptimizeResultEOT_RKS3_ISt4pairIddESaISE_EENS_10GivpConfigEEUlS7_E_NS0_3RngEEESD_IdbERS5_dRKSB_RT0_S7_S7_RSt8optionalINS0_15EvaluationCacheEEmRKSS_INSt6chrono10time_pointINSW_3_V212steady_clockENSW_8durationIlSt5ratioILl1ELl1000000000EEEEEEE
FN:122,153,_ZN4givp6detailL17neighborhood_swapIZNS0_3runIZL23CATCH2_INTERNAL_TEST_16vEUlRKSt6vectorIdSaIdEEE_EENS_14OptimizeResultEOT_RKS3_ISt4pairIddESaISD_EENS_10GivpConfigEEUlS7_E_NS0_3RngEEESC_IdbERS5_dRKSA_RT0_S7_S7_RSt8optionalINS0_15EvaluationCacheEEmRKSR_INSt6chrono10time_pointINSV_3_V212steady_clockENSV_8durationIlSt5ratioILl1ELl1000000000EEEEEEE
FN:122,153,_ZN4givp6detailL17neighborhood_swapIZNS0_3runIZL23CATCH2_INTERNAL_TEST_18vEUlRKSt6vectorIdSaIdEEE_EENS_14OptimizeResultEOT_RKS3_ISt4pairIddESaISD_EENS_10GivpConfigEEUlS7_E_NS0_3RngEEESC_IdbERS5_dRKSA_RT0_S7_S7_RSt8optionalINS0_15EvaluationCacheEEmRKSR_INSt6chrono10time_pointINSV_3_V212steady_clockENSV_8durationIlSt5ratioILl1ELl1000000000EEEEEEE
FN:122,153,_ZN4givp6detailL17neighborhood_swapIZNS0_3runIZL23CATCH2_INTERNAL_TEST_20vEUlRKSt6vectorIdSaIdEEE_EENS_14OptimizeResultEOT_RKS3_ISt4pairIddESaISD_EENS_10GivpConfigEEUlS7_E_NS0_3RngEEESC_IdbERS5_dRKSA_RT0_S7_S7_RSt8optionalINS0_15EvaluationCacheEEmRKSR_INSt6chrono10time_pointINSV_3_V212steady_clockENSV_8durationIlSt5ratioILl1ELl1000000000EEEEEEE
FN:122,153,_ZN4givp6detailL17neighborhood_swapIZNS0_3runIZL23CATCH2_INTERNAL_TEST_22vEUlRKSt6vectorIdSaIdEEE_EENS_14OptimizeResultEOT_RKS3_ISt4pairIddESaISD_EENS_10GivpConfigEEUlS7_E_NS0_3RngEEESC_IdbERS5_dRKSA_RT0_S7_S7_RSt8optionalINS0_15EvaluationCacheEEmRKSR_INSt6chrono10time_pointINSV_3_V212steady_clockENSV_8durationIlSt5ratioILl1ELl1000000000EEEEEEE
FN:122,153,_ZN4givp6detailL17neighborhood_swapIZNS0_3runIZL23CATCH2_INTERNAL_TEST_24vEUlRKSt6vectorIdSaIdEEE_EENS_14OptimizeResultEOT_RKS3_ISt4pairIddESaISD_EENS_10GivpConfigEEUlS7_E_NS0_3RngEEESC_IdbERS5_dRKSA_RT0_S7_S7_RSt8optionalINS0_15EvaluationCacheEEmRKSR_INSt6chrono10time_pointINSV_3_V212steady_clockENSV_8durationIlSt5ratioILl1ELl1000000000EEEEEEE
FN:156,190,_ZN4givp6detailL22neighborhood_multiflipIZNS0_3runIRFdRKSt6vectorIdSaIdEEEEENS_14OptimizeResultEOT_RKS3_ISt4pairIddESaISE_EENS_10GivpConfigEEUlS7_E_NS0_3RngEEESD_IdbERS5_dRKSB_RT0_S7_S7_RSt8optionalINS0_15EvaluationCacheEEmRKSS_INSt6chrono10time_pointINSW_3_V212steady_clockENSW_8durationIlSt5ratioILl1ELl1000000000EEEEEEE
FN:156,190,_ZN4givp6detailL22neighborhood_multiflipIZNS0_3runIRZL22CATCH2_INTERNAL_TEST_6vEUlRKSt6vectorIdSaIdEEE_EENS_14OptimizeResultEOT_RKS3_ISt4pairIddESaISE_EENS_10GivpConfigEEUlS7_E_NS0_3RngEEESD_IdbERS5_dRKSB_RT0_S7_S7_RSt8optionalINS0_15EvaluationCacheEEmRKSS_INSt6chrono10time_pointINSW_3_V212steady_clockENSW_8durationIlSt5ratioILl1ELl1000000000EEEEEEE
FN:156,190,_ZN4givp6detailL22neighborhood_multiflipIZNS0_3runIRZL22CATCH2_INTERNAL_TEST_8vEUlRKSt6vectorIdSaIdEEE_EENS_14OptimizeResultEOT_RKS3_ISt4pairIddESaISE_EENS_10GivpConfigEEUlS7_E_NS0_3RngEEESD_IdbERS5_dRKSB_RT0_S7_S7_RSt8optionalINS0_15EvaluationCacheEEmRKSS_INSt6chrono10time_pointINSW_3_V212steady_clockENSW_8durationIlSt5ratioILl1ELl1000000000EEEEEEE
FN:156,190,_ZN4givp6detailL22neighborhood_multiflipIZNS0_3runIRZL23CATCH2_INTERNAL_TEST_12vEUlRKSt6vectorIdSaIdEEE_EENS_14OptimizeResultEOT_RKS3_ISt4pairIddESaISE_EENS_10GivpConfigEEUlS7_E_NS0_3RngEEESD_IdbERS5_dRKSB_RT0_S7_S7_RSt8optionalINS0_15EvaluationCacheEEmRKSS_INSt6chrono10time_pointINSW_3_V212steady_clockENSW_8durationIlSt5ratioILl1ELl1000000000EEEEEEE
FN:156,190,_ZN4givp6detailL22neighborhood_multiflipIZNS0_3runIRZL23CATCH2_INTERNAL_TEST_14vEUlRKSt6vectorIdSaIdEEE_EENS_14OptimizeResultEOT_RKS3_ISt4pairIddESaISE_EENS_10GivpConfigEEUlS7_E_NS0_3RngEEESD_IdbERS5_dRKSB_RT0_S7_S7_RSt8optionalINS0_15EvaluationCacheEEmRKSS_INSt6chrono10time_pointINSW_3_V212steady_clockENSW_8durationIlSt5ratioILl1ELl1000000000EEEEEEE
FN:156,190,_ZN4givp6detailL22neighborhood_multiflipIZNS0_3runIRZL23CATCH2_INTERNAL_TEST_16vEUlRKSt6vectorIdSaIdEEE_EENS_14OptimizeResultEOT_RKS3_ISt4pairIddESaISE_EENS_10GivpConfigEEUlS7_E_NS0_3RngEEESD_IdbERS5_dRKSB_RT0_S7_S7_RSt8optionalINS0_15EvaluationCacheEEmRKSS_INSt6chrono10time_pointINSW_3_V212steady_clockENSW_8durationIlSt5ratioILl1ELl1000000000EEEEEEE
FN:156,190,_ZN4givp6detailL22neighborhood_multiflipIZNS0_3runIRZL23CATCH2_INTERNAL_TEST_28vEUlRKSt6vectorIdSaIdEEE_EENS_14OptimizeResultEOT_RKS3_ISt4pairIddESaISE_EENS_10GivpConfigEEUlS7_E_NS0_3RngEEESD_IdbERS5_dRKSB_RT0_S7_S7_RSt8optionalINS0_15EvaluationCacheEEmRKSS_INSt6chrono10time_pointINSW_3_V212steady_clockENSW_8durationIlSt5ratioILl1ELl1000000000EEEEEEE
FN:156,190,_ZN4givp6detailL22neighborhood_multiflipIZNS0_3runIRZL23CATCH2_INTERNAL_TEST_42vEUlRKSt6vectorIdSaIdEEE_EENS_14OptimizeResultEOT_RKS3_ISt4pairIddESaISE_EENS_10GivpConfigEEUlS7_E_NS0_3RngEEESD_IdbERS5_dRKSB_RT0_S7_S7_RSt8optionalINS0_15EvaluationCacheEEmRKSS_INSt6chrono10time_pointINSW_3_V212steady_clockENSW_8durationIlSt5ratioILl1ELl1000000000EEEEEEE
FN:156,190,_ZN4givp6detailL22neighborhood_multiflipIZNS0_3runIRZL23CATCH2_INTERNAL_TEST_44vEUlRKSt6vectorIdSaIdEEE_EENS_14OptimizeResultEOT_RKS3_ISt4pairIddESaISE_EENS_10GivpConfigEEUlS7_E_NS0_3RngEEESD_IdbERS5_dRKSB_RT0_S7_S7_RSt8optionalINS0_15EvaluationCacheEEmRKSS_INSt6chrono10time_pointINSW_3_V212steady_clockENSW_8durationIlSt5ratioILl1ELl1000000000EEEEEEE
FN:156,190,_ZN4givp6detailL22neighborhood_multiflipIZNS0_3runIZL23CATCH2_INTERNAL_TEST_16vEUlRKSt6vectorIdSaIdEEE_EENS_14OptimizeResultEOT_RKS3_ISt4pairIddESaISD_EENS_10GivpConfigEEUlS7_E_NS0_3RngEEESC_IdbERS5_dRKSA_RT0_S7_S7_RSt8optionalINS0_15EvaluationCacheEEmRKSR_INSt6chrono10time_pointINSV_3_V212steady_clockENSV_8durationIlSt5ratioILl1ELl1000000000EEEEEEE
FN:156,190,_ZN4givp6detailL22neighborhood_multiflipIZNS0_3runIZL23CATCH2_INTERNAL_TEST_18vEUlRKSt6vectorIdSaIdEEE_EENS_14OptimizeResultEOT_RKS3_ISt4pairIddESaISD_EENS_10GivpConfigEEUlS7_E_NS0_3RngEEESC_IdbERS5_dRKSA_RT0_S7_S7_RSt8optionalINS0_15EvaluationCacheEEmRKSR_INSt6chrono10time_pointINSV_3_V212steady_clockENSV_8durationIlSt5ratioILl1ELl1000000000EEEEEEE
FN:156,190,_ZN4givp6detailL22neighborhood_multiflipIZNS0_3runIZL23CATCH2_INTERNAL_TEST_20vEUlRKSt6vectorIdSaIdEEE_EENS_14OptimizeResultEOT_RKS3_ISt4pairIddESaISD_EENS_10GivpConfigEEUlS7_E_NS0_3RngEEESC_IdbERS5_dRKSA_RT0_S7_S7_RSt8optionalINS0_15EvaluationCacheEEmRKSR_INSt6chrono10time_pointINSV_3_V212steady_clockENSV_8durationIlSt5ratioILl1ELl1000000000EEEEEEE
FN:156,190,_ZN4givp6detailL22neighborhood_multiflipIZNS0_3runIZL23CATCH2_INTERNAL_TEST_22vEUlRKSt6vectorIdSaIdEEE_EENS_14OptimizeResultEOT_RKS3_ISt4pairIddESaISD_EENS_10GivpConfigEEUlS7_E_NS0_3RngEEESC_IdbERS5_dRKSA_RT0_S7_S7_RSt8optionalINS0_15EvaluationCacheEEmRKSR_INSt6chrono10time_pointINSV_3_V212steady_clockENSV_8durationIlSt5ratioILl1ELl1000000000EEEEEEE
FN:156,190,_ZN4givp6detailL22neighborhood_multiflipIZNS0_3runIZL23CATCH2_INTERNAL_TEST_24vEUlRKSt6vectorIdSaIdEEE_EENS_14OptimizeResultEOT_RKS3_ISt4pairIddESaISD_EENS_10GivpConfigEEUlS7_E_NS0_3RngEEESC_IdbERS5_dRKSA_RT0_S7_S7_RSt8optionalINS0_15EvaluationCacheEEmRKSR_INSt6chrono10time_pointINSV_3_V212steady_clockENSV_8durationIlSt5ratioILl1ELl1000000000EEEEEEE
FN:195,241,_ZN4givp6detail16local_search_vndIZNS0_3runIRFdRKSt6vectorIdSaIdEEEEENS_14OptimizeResultEOT_RKS3_ISt4pairIddESaISE_EENS_10GivpConfigEEUlS7_E_NS0_3RngEEEdRKSB_RS5_dmS7_S7_mRSt8optionalINS0_15EvaluationCacheEERT0_RKSP_INSt6chrono10time_pointINSV_3_V212steady_clockENSV_8durationIlSt5ratioILl1ELl1000000000EEEEEEE
FN:195,241,_ZN4givp6detail16local_search_vndIZNS0_3runIRZL22CATCH2_INTERNAL_TEST_6vEUlRKSt6vectorIdSaIdEEE_EENS_14OptimizeResultEOT_RKS3_ISt4pairIddESaISE_EENS_10GivpConfigEEUlS7_E_NS0_3RngEEEdRKSB_RS5_dmS7_S7_mRSt8optionalINS0_15EvaluationCacheEERT0_RKSP_INSt6chrono10time_pointINSV_3_V212steady_clockENSV_8durationIlSt5ratioILl1ELl1000000000EEEEEEE
FN:195,241,_ZN4givp6detail16local_search_vndIZNS0_3runIRZL22CATCH2_INTERNAL_TEST_8vEUlRKSt6vectorIdSaIdEEE_EENS_14OptimizeResultEOT_RKS3_ISt4pairIddESaISE_EENS_10GivpConfigEEUlS7_E_NS0_3RngEEEdRKSB_RS5_dmS7_S7_mRSt8optionalINS0_15EvaluationCacheEERT0_RKSP_INSt6chrono10time_pointINSV_3_V212steady_clockENSV_8durationIlSt5ratioILl1ELl1000000000EEEEEEE
FN:195,241,_ZN4givp6detail16local_search_vndIZNS0_3runIRZL23CATCH2_INTERNAL_TEST_12vEUlRKSt6vectorIdSaIdEEE_EENS_14OptimizeResultEOT_RKS3_ISt4pairIddESaISE_EENS_10GivpConfigEEUlS7_E_NS0_3RngEEEdRKSB_RS5_dmS7_S7_mRSt8optionalINS0_15EvaluationCacheEERT0_RKSP_INSt6chrono10time_pointINSV_3_V212steady_clockENSV_8durationIlSt5ratioILl1ELl1000000000EEEEEEE
FN:195,241,_ZN4givp6detail16local_search_vndIZNS0_3runIRZL23CATCH2_INTERNAL_TEST_14vEUlRKSt6vectorIdSaIdEEE_EENS_14OptimizeResultEOT_RKS3_ISt4pairIddESaISE_EENS_10GivpConfigEEUlS7_E_NS0_3RngEEEdRKSB_RS5_dmS7_S7_mRSt8optionalINS0_15EvaluationCacheEERT0_RKSP_INSt6chrono10time_pointINSV_3_V212steady_clockENSV_8durationIlSt5ratioILl1ELl1000000000EEEEEEE
FN:195,241,_ZN4givp6detail16local_search_vndIZNS0_3runIRZL23CATCH2_INTERNAL_TEST_16vEUlRKSt6vectorIdSaIdEEE_EENS_14OptimizeResultEOT_RKS3_ISt4pairIddESaISE_EENS_10GivpConfigEEUlS7_E_NS0_3RngEEEdRKSB_RS5_dmS7_S7_mRSt8optionalINS0_15EvaluationCacheEERT0_RKSP_INSt6chrono10time_pointINSV_3_V212steady_clockENSV_8durationIlSt5ratioILl1ELl1000000000EEEEEEE
FN:195,241,_ZN4givp6detail16local_search_vndIZNS0_3runIRZL23CATCH2_INTERNAL_TEST_28vEUlRKSt6vectorIdSaIdEEE_EENS_14OptimizeResultEOT_RKS3_ISt4pairIddESaISE_EENS_10GivpConfigEEUlS7_E_NS0_3RngEEEdRKSB_RS5_dmS7_S7_mRSt8optionalINS0_15EvaluationCacheEERT0_RKSP_INSt6chrono10time_pointINSV_3_V212steady_clockENSV_8durationIlSt5ratioILl1ELl1000000000EEEEEEE
FN:195,241,_ZN4givp6detail16local_search_vndIZNS0_3runIRZL23CATCH2_INTERNAL_TEST_42vEUlRKSt6vectorIdSaIdEEE_EENS_14OptimizeResultEOT_RKS3_ISt4pairIddESaISE_EENS_10GivpConfigEEUlS7_E_NS0_3RngEEEdRKSB_RS5_dmS7_S7_mRSt8optionalINS0_15EvaluationCacheEERT0_RKSP_INSt6chrono10time_pointINSV_3_V212steady_clockENSV_8durationIlSt5ratioILl1ELl1000000000EEEEEEE
FN:195,241,_ZN4givp6detail16local_search_vndIZNS0_3runIRZL23CATCH2_INTERNAL_TEST_44vEUlRKSt6vectorIdSaIdEEE_EENS_14OptimizeResultEOT_RKS3_ISt4pairIddESaISE_EENS_10GivpConfigEEUlS7_E_NS0_3RngEEEdRKSB_RS5_dmS7_S7_mRSt8optionalINS0_15EvaluationCacheEERT0_RKSP_INSt6chrono10time_pointINSV_3_V212steady_clockENSV_8durationIlSt5ratioILl1ELl1000000000EEEEEEE
FN:195,241,_ZN4givp6detail16local_search_vndIZNS0_3runIZL23CATCH2_INTERNAL_TEST_16vEUlRKSt6vectorIdSaIdEEE_EENS_14OptimizeResultEOT_RKS3_ISt4pairIddESaISD_EENS_10GivpConfigEEUlS7_E_NS0_3RngEEEdRKSA_RS5_dmS7_S7_mRSt8optionalINS0_15EvaluationCacheEERT0_RKSO_INSt6chrono10time_pointINSU_3_V212steady_clockENSU_8durationIlSt5ratioILl1ELl1000000000EEEEEEE
FN:195,241,_ZN4givp6detail16local_search_vndIZNS0_3runIZL23CATCH2_INTERNAL_TEST_18vEUlRKSt6vectorIdSaIdEEE_EENS_14OptimizeResultEOT_RKS3_ISt4pairIddESaISD_EENS_10GivpConfigEEUlS7_E_NS0_3RngEEEdRKSA_RS5_dmS7_S7_mRSt8optionalINS0_15EvaluationCacheEERT0_RKSO_INSt6chrono10time_pointINSU_3_V212steady_clockENSU_8durationIlSt5ratioILl1ELl1000000000EEEEEEE
FN:195,241,_ZN4givp6detail16local_search_vndIZNS0_3runIZL23CATCH2_INTERNAL_TEST_20vEUlRKSt6vectorIdSaIdEEE_EENS_14OptimizeResultEOT_RKS3_ISt4pairIddESaISD_EENS_10GivpConfigEEUlS7_E_NS0_3RngEEEdRKSA_RS5_dmS7_S7_mRSt8optionalINS0_15EvaluationCacheEERT0_RKSO_INSt6chrono10time_pointINSU_3_V212steady_clockENSU_8durationIlSt5ratioILl1ELl1000000000EEEEEEE
FN:195,241,_ZN4givp6detail16local_search_vndIZNS0_3runIZL23CATCH2_INTERNAL_TEST_22vEUlRKSt6vectorIdSaIdEEE_EENS_14OptimizeResultEOT_RKS3_ISt4pairIddESaISD_EENS_10GivpConfigEEUlS7_E_NS0_3RngEEEdRKSA_RS5_dmS7_S7_mRSt8optionalINS0_15EvaluationCacheEERT0_RKSO_INSt6chrono10time_pointINSU_3_V212steady_clockENSU_8durationIlSt5ratioILl1ELl1000000000EEEEEEE
FN:195,241,_ZN4givp6detail16local_search_vndIZNS0_3runIZL23CATCH2_INTERNAL_TEST_24vEUlRKSt6vectorIdSaIdEEE_EENS_14OptimizeResultEOT_RKS3_ISt4pairIddESaISD_EENS_10GivpConfigEEUlS7_E_NS0_3RngEEEdRKSA_RS5_dmS7_S7_mRSt8optionalINS0_15EvaluationCacheEERT0_RKSO_INSt6chrono10time_pointINSU_3_V212steady_clockENSU_8durationIlSt5ratioILl1ELl1000000000EEEEEEE
FN:20,44,_ZN4givp6detailL17try_integer_movesIZNS0_3runIRFdRKSt6vectorIdSaIdEEEEENS_14OptimizeResultEOT_RKS3_ISt4pairIddESaISE_EENS_10GivpConfigEEUlS7_E_EESD_IdbEmRS5_dRKSB_S7_S7_RSt8optionalINS0_15EvaluationCacheEEm
FN:20,44,_ZN4givp6detailL17try_integer_movesIZNS0_3runIRZL22CATCH2_INTERNAL_TEST_6vEUlRKSt6vectorIdSaIdEEE_EENS_14OptimizeResultEOT_RKS3_ISt4pairIddESaISE_EENS_10GivpConfigEEUlS7_E_EESD_IdbEmRS5_dRKSB_S7_S7_RSt8optionalINS0_15EvaluationCacheEEm
FN:20,44,_ZN4givp6detailL17try_integer_movesIZNS0_3runIRZL22CATCH2_INTERNAL_TEST_8vEUlRKSt6vectorIdSaIdEEE_EENS_14OptimizeResultEOT_RKS3_ISt4pairIddESaISE_EENS_10GivpConfigEEUlS7_E_EESD_IdbEmRS5_dRKSB_S7_S7_RSt8optionalINS0_15EvaluationCacheEEm
FN:20,44,_ZN4givp6detailL17try_integer_movesIZNS0_3runIRZL23CATCH2_INTERNAL_TEST_12vEUlRKSt6vectorIdSaIdEEE_EENS_14OptimizeResultEOT_RKS3_ISt4pairIddESaISE_EENS_10GivpConfigEEUlS7_E_EESD_IdbEmRS5_dRKSB_S7_S7_RSt8optionalINS0_15EvaluationCacheEEm
FN:20,44,_ZN4givp6detailL17try_integer_movesIZNS0_3runIRZL23CATCH2_INTERNAL_TEST_14vEUlRKSt6vectorIdSaIdEEE_EENS_14OptimizeResultEOT_RKS3_ISt4pairIddESaISE_EENS_10GivpConfigEEUlS7_E_EESD_IdbEmRS5_dRKSB_S7_S7_RSt8optionalINS0_15EvaluationCacheEEm
FN:20,44,_ZN4givp6detailL17try_integer_movesIZNS0_3runIRZL23CATCH2_INTERNAL_TEST_16vEUlRKSt6vectorIdSaIdEEE_EENS_14OptimizeResultEOT_RKS3_ISt4pairIddESaISE_EENS_10GivpConfigEEUlS7_E_EESD_IdbEmRS5_dRKSB_S7_S7_RSt8optionalINS0_15EvaluationCacheEEm
FN:20,44,_ZN4givp6detailL17try_integer_movesIZNS0_3runIRZL23CATCH2_INTERNAL_TEST_28vEUlRKSt6vectorIdSaIdEEE_EENS_14OptimizeResultEOT_RKS3_ISt4pairIddESaISE_EENS_10GivpConfigEEUlS7_E_EESD_IdbEmRS5_dRKSB_S7_S7_RSt8optionalINS0_15EvaluationCacheEEm
FN:20,44,_ZN4givp6detailL17try_integer_movesIZNS0_3runIRZL23CATCH2_INTERNAL_TEST_42vEUlRKSt6vectorIdSaIdEEE_EENS_14OptimizeResultEOT_RKS3_ISt4pairIddESaISE_EENS_10GivpConfigEEUlS7_E_EESD_IdbEmRS5_dRKSB_S7_S7_RSt8optionalINS0_15EvaluationCacheEEm
FN:20,44,_ZN4givp6detailL17try_integer_movesIZNS0_3runIRZL23CATCH2_INTERNAL_TEST_44vEUlRKSt6vectorIdSaIdEEE_EENS_14OptimizeResultEOT_RKS3_ISt4pairIddESaISE_EENS_10GivpConfigEEUlS7_E_EESD_IdbEmRS5_dRKSB_S7_S7_RSt8optionalINS0_15EvaluationCacheEEm
FN:20,44,_ZN4givp6detailL17try_integer_movesIZNS0_3runIZL23CATCH2_INTERNAL_TEST_16vEUlRKSt6vectorIdSaIdEEE_EENS_14OptimizeResultEOT_RKS3_ISt4pairIddESaISD_EENS_10GivpConfigEEUlS7_E_EESC_IdbEmRS5_dRKSA_S7_S7_RSt8optionalINS0_15EvaluationCacheEEm
FN:20,44,_ZN4givp6detailL17try_integer_movesIZNS0_3runIZL23CATCH2_INTERNAL_TEST_18vEUlRKSt6vectorIdSaIdEEE_EENS_14OptimizeResultEOT_RKS3_ISt4pairIddESaISD_EENS_10GivpConfigEEUlS7_E_EESC_IdbEmRS5_dRKSA_S7_S7_RSt8optionalINS0_15EvaluationCacheEEm
FN:20,44,_ZN4givp6detailL17try_integer_movesIZNS0_3runIZL23CATCH2_INTERNAL_TEST_20vEUlRKSt6vectorIdSaIdEEE_EENS_14OptimizeResultEOT_RKS3_ISt4pairIddESaISD_EENS_10GivpConfigEEUlS7_E_EESC_IdbEmRS5_dRKSA_S7_S7_RSt8optionalINS0_15EvaluationCacheEEm
FN:20,44,_ZN4givp6detailL17try_integer_movesIZNS0_3runIZL23CATCH2_INTERNAL_TEST_22vEUlRKSt6vectorIdSaIdEEE_EENS_14OptimizeResultEOT_RKS3_ISt4pairIddESaISD_EENS_10GivpConfigEEUlS7_E_EESC_IdbEmRS5_dRKSA_S7_S7_RSt8optionalINS0_15EvaluationCacheEEm
FN:20,44,_ZN4givp6detailL17try_integer_movesIZNS0_3runIZL23CATCH2_INTERNAL_TEST_24vEUlRKSt6vectorIdSaIdEEE_EENS_14OptimizeResultEOT_RKS3_ISt4pairIddESaISD_EENS_10GivpConfigEEUlS7_E_EESC_IdbEmRS5_dRKSA_S7_S7_RSt8optionalINS0_15EvaluationCacheEEm
FN:47,62,_ZN4givp6detailL19try_continuous_moveIZNS0_3runIRFdRKSt6vectorIdSaIdEEEEENS_14OptimizeResultEOT_RKS3_ISt4pairIddESaISE_EENS_10GivpConfigEEUlS7_E_NS0_3RngEEESD_IdbEmRS5_dRKSB_RT0_S7_S7_RSt8optionalINS0_15EvaluationCacheEEm
FN:47,62,_ZN4givp6detailL19try_continuous_moveIZNS0_3runIRZL22CATCH2_INTERNAL_TEST_6vEUlRKSt6vectorIdSaIdEEE_EENS_14OptimizeResultEOT_RKS3_ISt4pairIddESaISE_EENS_10GivpConfigEEUlS7_E_NS0_3RngEEESD_IdbEmRS5_dRKSB_RT0_S7_S7_RSt8optionalINS0_15EvaluationCacheEEm
FN:47,62,_ZN4givp6detailL19try_continuous_moveIZNS0_3runIRZL22CATCH2_INTERNAL_TEST_8vEUlRKSt6vectorIdSaIdEEE_EENS_14OptimizeResultEOT_RKS3_ISt4pairIddESaISE_EENS_10GivpConfigEEUlS7_E_NS0_3RngEEESD_IdbEmRS5_dRKSB_RT0_S7_S7_RSt8optionalINS0_15EvaluationCacheEEm
FN:47,62,_ZN4givp6detailL19try_continuous_moveIZNS0_3runIRZL23CATCH2_INTERNAL_TEST_12vEUlRKSt6vectorIdSaIdEEE_EENS_14OptimizeResultEOT_RKS3_ISt4pairIddESaISE_EENS_10GivpConfigEEUlS7_E_NS0_3RngEEESD_IdbEmRS5_dRKSB_RT0_S7_S7_RSt8optionalINS0_15EvaluationCacheEEm
FN:47,62,_ZN4givp6detailL19try_continuous_moveIZNS0_3runIRZL23CATCH2_INTERNAL_TEST_14vEUlRKSt6vectorIdSaIdEEE_EENS_14OptimizeResultEOT_RKS3_ISt4pairIddESaISE_EENS_10GivpConfigEEUlS7_E_NS0_3RngEEESD_IdbEmRS5_dRKSB_RT0_S7_S7_RSt8optionalINS0_15EvaluationCacheEEm
FN:47,62,_ZN4givp6detailL19try_continuous_moveIZNS0_3runIRZL23CATCH2_INTERNAL_TEST_16vEUlRKSt6vectorIdSaIdEEE_EENS_14OptimizeResultEOT_RKS3_ISt4pairIddESaISE_EENS_10GivpConfigEEUlS7_E_NS0_3RngEEESD_IdbEmRS5_dRKSB_RT0_S7_S7_RSt8optionalINS0_15EvaluationCacheEEm
FN:47,62,_ZN4givp6detailL19try_continuous_moveIZNS0_3runIRZL23CATCH2_INTERNAL_TEST_28vEUlRKSt6vectorIdSaIdEEE_EENS_14OptimizeResultEOT_RKS3_ISt4pairIddESaISE_EENS_10GivpConfigEEUlS7_E_NS0_3RngEEESD_IdbEmRS5_dRKSB_RT0_S7_S7_RSt8optionalINS0_15EvaluationCacheEEm
FN:47,62,_ZN4givp6detailL19try_continuous_moveIZNS0_3runIRZL23CATCH2_INTERNAL_TEST_42vEUlRKSt6vectorIdSaIdEEE_EENS_14OptimizeResultEOT_RKS3_ISt4pairIddESaISE_EENS_10GivpConfigEEUlS7_E_NS0_3RngEEESD_IdbEmRS5_dRKSB_RT0_S7_S7_RSt8optionalINS0_15EvaluationCacheEEm
FN:47,62,_ZN4givp6detailL19try_continuous_moveIZNS0_3runIRZL23CATCH2_INTERNAL_TEST_44vEUlRKSt6vectorIdSaIdEEE_EENS_14OptimizeResultEOT_RKS3_ISt4pairIddESaISE_EENS_10GivpConfigEEUlS7_E_NS0_3RngEEESD_IdbEmRS5_dRKSB_RT0_S7_S7_RSt8optionalINS0_15EvaluationCacheEEm
FN:47,62,_ZN4givp6detailL19try_continuous_moveIZNS0_3runIZL23CATCH2_INTERNAL_TEST_16vEUlRKSt6vectorIdSaIdEEE_EENS_14OptimizeResultEOT_RKS3_ISt4pairIddESaISD_EENS_10GivpConfigEEUlS7_E_NS0_3RngEEESC_IdbEmRS5_dRKSA_RT0_S7_S7_RSt8optionalINS0_15EvaluationCacheEEm
FN:47,62,_ZN4givp6detailL19try_continuous_moveIZNS0_3runIZL23CATCH2_INTERNAL_TEST_18vEUlRKSt6vectorIdSaIdEEE_EENS_14OptimizeResultEOT_RKS3_ISt4pairIddESaISD_EENS_10GivpConfigEEUlS7_E_NS0_3RngEEESC_IdbEmRS5_dRKSA_RT0_S7_S7_RSt8optionalINS0_15EvaluationCacheEEm
FN:47,62,_ZN4givp6detailL19try_continuous_moveIZNS0_3runIZL23CATCH2_INTERNAL_TEST_20vEUlRKSt6vectorIdSaIdEEE_EENS_14OptimizeResultEOT_RKS3_ISt4pairIddESaISD_EENS_10GivpConfigEEUlS7_E_NS0_3RngEEESC_IdbEmRS5_dRKSA_RT0_S7_S7_RSt8optionalINS0_15EvaluationCacheEEm
FN:47,62,_ZN4givp6detailL19try_continuous_moveIZNS0_3runIZL23CATCH2_INTERNAL_TEST_22vEUlRKSt6vectorIdSaIdEEE_EENS_14OptimizeResultEOT_RKS3_ISt4pairIddESaISD_EENS_10GivpConfigEEUlS7_E_NS0_3RngEEESC_IdbEmRS5_dRKSA_RT0_S7_S7_RSt8optionalINS0_15EvaluationCacheEEm
FN:47,62,_ZN4givp6detailL19try_continuous_moveIZNS0_3runIZL23CATCH2_INTERNAL_TEST_24vEUlRKSt6vectorIdSaIdEEE_EENS_14OptimizeResultEOT_RKS3_ISt4pairIddESaISD_EENS_10GivpConfigEEUlS7_E_NS0_3RngEEESC_IdbEmRS5_dRKSA_RT0_S7_S7_RSt8optionalINS0_15EvaluationCacheEEm
FN:65,81,_ZN4givp6detailL13perturb_indexINS0_3RngEEEvRSt6vectorIdSaIdEEmmRT_RKS5_SA_m
FN:86,119,_ZN4givp6detailL17neighborhood_flipIZNS0_3runIRFdRKSt6vectorIdSaIdEEEEENS_14OptimizeResultEOT_RKS3_ISt4pairIddESaISE_EENS_10GivpConfigEEUlS7_E_NS0_3RngEEESD_IdbERS5_dRKSB_SN_RT0_S7_S7_RSt8optionalINS0_15EvaluationCacheEEmRKSS_INSt6chrono10time_pointINSW_3_V212steady_clockENSW_8durationIlSt5ratioILl1ELl1000000000EEEEEEE
FN:86,119,_ZN4givp6detailL17neighborhood_flipIZNS0_3runIRZL22CATCH2_INTERNAL_TEST_6vEUlRKSt6vectorIdSaIdEEE_EENS_14OptimizeResultEOT_RKS3_ISt4pairIddESaISE_EENS_10GivpConfigEEUlS7_E_NS0_3RngEEESD_IdbERS5_dRKSB_SN_RT0_S7_S7_RSt8optionalINS0_15EvaluationCacheEEmRKSS_INSt6chrono10time_pointINSW_3_V212steady_clockENSW_8durationIlSt5ratioILl1ELl1000000000EEEEEEE
FN:86,119,_ZN4givp6detailL17neighborhood_flipIZNS0_3runIRZL22CATCH2_INTERNAL_TEST_8vEUlRKSt6vectorIdSaIdEEE_EENS_14OptimizeResultEOT_RKS3_ISt4pairIddESaISE_EENS_10GivpConfigEEUlS7_E_NS0_3RngEEESD_IdbERS5_dRKSB_SN_RT0_S7_S7_RSt8optionalINS0_15EvaluationCacheEEmRKSS_INSt6chrono10time_pointINSW_3_V212steady_clockENSW_8durationIlSt5ratioILl1ELl1000000000EEEEEEE
FN:86,119,_ZN4givp6detailL17neighborhood_flipIZNS0_3runIRZL23CATCH2_INTERNAL_TEST_12vEUlRKSt6vectorIdSaIdEEE_EENS_14OptimizeResultEOT_RKS3_ISt4pairIddESaISE_EENS_10GivpConfigEEUlS7_E_NS0_3RngEEESD_IdbERS5_dRKSB_SN_RT0_S7_S7_RSt8optionalINS0_15EvaluationCacheEEmRKSS_INSt6chrono10time_pointINSW_3_V212steady_clockENSW_8durationIlSt5ratioILl1ELl1000000000EEEEEEE
FN:86,119,_ZN4givp6detailL17neighborhood_flipIZNS0_3runIRZL23CATCH2_INTERNAL_TEST_14vEUlRKSt6vectorIdSaIdEEE_EENS_14OptimizeResultEOT_RKS3_ISt4pairIddESaISE_EENS_10GivpConfigEEUlS7_E_NS0_3RngEEESD_IdbERS5_dRKSB_SN_RT0_S7_S7_RSt8optionalINS0_15EvaluationCacheEEmRKSS_INSt6chrono10time_pointINSW_3_V212steady_clockENSW_8durationIlSt5ratioILl1ELl1000000000EEEEEEE
FN:86,119,_ZN4givp6detailL17neighborhood_flipIZNS0_3runIRZL23CATCH2_INTERNAL_TEST_16vEUlRKSt6vectorIdSaIdEEE_EENS_14OptimizeResultEOT_RKS3_ISt4pairIddESaISE_EENS_10GivpConfigEEUlS7_E_NS0_3RngEEESD_IdbERS5_dRKSB_SN_RT0_S7_S7_RSt8optionalINS0_15EvaluationCacheEEmRKSS_INSt6chrono10time_pointINSW_3_V212steady_clockENSW_8durationIlSt5ratioILl1ELl1000000000EEEEEEE
FN:86,119,_ZN4givp6detailL17neighborhood_flipIZNS0_3runIRZL23CATCH2_INTERNAL_TEST_28vEUlRKSt6vectorIdSaIdEEE_EENS_14OptimizeResultEOT_RKS3_ISt4pairIddESaISE_EENS_10GivpConfigEEUlS7_E_NS0_3RngEEESD_IdbERS5_dRKSB_SN_RT0_S7_S7_RSt8optionalINS0_15EvaluationCacheEEmRKSS_INSt6chrono10time_pointINSW_3_V212steady_clockENSW_8durationIlSt5ratioILl1ELl1000000000EEEEEEE
FN:86,119,_ZN4givp6detailL17neighborhood_flipIZNS0_3runIRZL23CATCH2_INTERNAL_TEST_42vEUlRKSt6vectorIdSaIdEEE_EENS_14OptimizeResultEOT_RKS3_ISt4pairIddESaISE_EENS_10GivpConfigEEUlS7_E_NS0_3RngEEESD_IdbERS5_dRKSB_SN_RT0_S7_S7_RSt8optionalINS0_15EvaluationCacheEEmRKSS_INSt6chrono10time_pointINSW_3_V212steady_clockENSW_8durationIlSt5ratioILl1ELl1000000000EEEEEEE
FN:86,119,_ZN4givp6detailL17neighborhood_flipIZNS0_3runIRZL23CATCH2_INTERNAL_TEST_44vEUlRKSt6vectorIdSaIdEEE_EENS_14OptimizeResultEOT_RKS3_ISt4pairIddESaISE_EENS_10GivpConfigEEUlS7_E_NS0_3RngEEESD_IdbERS5_dRKSB_SN_RT0_S7_S7_RSt8optionalINS0_15EvaluationCacheEEmRKSS_INSt6chrono10time_pointINSW_3_V212steady_clockENSW_8durationIlSt5ratioILl1ELl1000000000EEEEEEE
FN:86,119,_ZN4givp6detailL17neighborhood_flipIZNS0_3runIZL23CATCH2_INTERNAL_TEST_16vEUlRKSt6vectorIdSaIdEEE_EENS_14OptimizeResultEOT_RKS3_ISt4pairIddESaISD_EENS_10GivpConfigEEUlS7_E_NS0_3RngEEESC_IdbERS5_dRKSA_SM_RT0_S7_S7_RSt8optionalINS0_15EvaluationCacheEEmRKSR_INSt6chrono10time_pointINSV_3_V212steady_clockENSV_8durationIlSt5ratioILl1ELl1000000000EEEEEEE
FN:86,119,_ZN4givp6detailL17neighborhood_flipIZNS0_3runIZL23CATCH2_INTERNAL_TEST_18vEUlRKSt6vectorIdSaIdEEE_EENS_14OptimizeResultEOT_RKS3_ISt4pairIddESaISD_EENS_10GivpConfigEEUlS7_E_NS0_3RngEEESC_IdbERS5_dRKSA_SM_RT0_S7_S7_RSt8optionalINS0_15EvaluationCacheEEmRKSR_INSt6chrono10time_pointINSV_3_V212steady_clockENSV_8durationIlSt5ratioILl1ELl1000000000EEEEEEE
FN:86,119,_ZN4givp6detailL17neighborhood_flipIZNS0_3runIZL23CATCH2_INTERNAL_TEST_20vEUlRKSt6vectorIdSaIdEEE_EENS_14OptimizeResultEOT_RKS3_ISt4pairIddESaISD_EENS_10GivpConfigEEUlS7_E_NS0_3RngEEESC_IdbERS5_dRKSA_SM_RT0_S7_S7_RSt8optionalINS0_15EvaluationCacheEEmRKSR_INSt6chrono10time_pointINSV_3_V212steady_clockENSV_8durationIlSt5ratioILl1ELl1000000000EEEEEEE
FN:86,119,_ZN4givp6detailL17neighborhood_flipIZNS0_3runIZL23CATCH2_INTERNAL_TEST_22vEUlRKSt6vectorIdSaIdEEE_EENS_14OptimizeResultEOT_RKS3_ISt4pairIddESaISD_EENS_10GivpConfigEEUlS7_E_NS0_3RngEEESC_IdbERS5_dRKSA_SM_RT0_S7_S7_RSt8optionalINS0_15EvaluationCacheEEmRKSR_INSt6chrono10time_pointINSV_3_V212steady_clockENSV_8durationIlSt5ratioILl1ELl1000000000EEEEEEE
FN:86,119,_ZN4givp6detailL17neighborhood_flipIZNS0_3runIZL23CATCH2_INTERNAL_TEST_24vEUlRKSt6vectorIdSaIdEEE_EENS_14OptimizeResultEOT_RKS3_ISt4pairIddESaISD_EENS_10GivpConfigEEUlS7_E_NS0_3RngEEESC_IdbERS5_dRKSA_SM_RT0_S7_S7_RSt8optionalINS0_15EvaluationCacheEEmRKSR_INSt6chrono10time_pointINSV_3_V212steady_clockENSV_8durationIlSt5ratioILl1ELl1000000000EEEEEEE
FN:97,97,_ZZN4givp6detailL17neighborhood_flipIZNS0_3runIRFdRKSt6vectorIdSaIdEEEEENS_14OptimizeResultEOT_RKS3_ISt4pairIddESaISE_EENS_10GivpConfigEEUlS7_E_NS0_3RngEEESD_IdbERS5_dRKSB_SN_RT0_S7_S7_RSt8optionalINS0_15EvaluationCacheEEmRKSS_INSt6chrono10time_pointINSW_3_V212steady_clockENSW_8durationIlSt5ratioILl1ELl1000000000EEEEEEEENKUlmmE_clEmm
FN:97,97,_ZZN4givp6detailL17neighborhood_flipIZNS0_3runIRZL22CATCH2_INTERNAL_TEST_6vEUlRKSt6vectorIdSaIdEEE_EENS_14OptimizeResultEOT_RKS3_ISt4pairIddESaISE_EENS_10GivpConfigEEUlS7_E_NS0_3RngEEESD_IdbERS5_dRKSB_SN_RT0_S7_S7_RSt8optionalINS0_15EvaluationCacheEEmRKSS_INSt6chrono10time_pointINSW_3_V212steady_clockENSW_8durationIlSt5ratioILl1ELl1000000000EEEEEEEENKUlmmE_clEmm
FN:97,97,_ZZN4givp6detailL17neighborhood_flipIZNS0_3runIRZL22CATCH2_INTERNAL_TEST_8vEUlRKSt6vectorIdSaIdEEE_EENS_14OptimizeResultEOT_RKS3_ISt4pairIddESaISE_EENS_10GivpConfigEEUlS7_E_NS0_3RngEEESD_IdbERS5_dRKSB_SN_RT0_S7_S7_RSt8optionalINS0_15EvaluationCacheEEmRKSS_INSt6chrono10time_pointINSW_3_V212steady_clockENSW_8durationIlSt5ratioILl1ELl1000000000EEEEEEEENKUlmmE_clEmm
FN:97,97,_ZZN4givp6detailL17neighborhood_flipIZNS0_3runIRZL23CATCH2_INTERNAL_TEST_12vEUlRKSt6vectorIdSaIdEEE_EENS_14OptimizeResultEOT_RKS3_ISt4pairIddESaISE_EENS_10GivpConfigEEUlS7_E_NS0_3RngEEESD_IdbERS5_dRKSB_SN_RT0_S7_S7_RSt8optionalINS0_15EvaluationCacheEEmRKSS_INSt6chrono10time_pointINSW_3_V212steady_clockENSW_8durationIlSt5ratioILl1ELl1000000000EEEEEEEENKUlmmE_clEmm
FN:97,97,_ZZN4givp6detailL17neighborhood_flipIZNS0_3runIRZL23CATCH2_INTERNAL_TEST_14vEUlRKSt6vectorIdSaIdEEE_EENS_14OptimizeResultEOT_RKS3_ISt4pairIddESaISE_EENS_10GivpConfigEEUlS7_E_NS0_3RngEEESD_IdbERS5_dRKSB_SN_RT0_S7_S7_RSt8optionalINS0_15EvaluationCacheEEmRKSS_INSt6chrono10time_pointINSW_3_V212steady_clockENSW_8durationIlSt5ratioILl1ELl1000000000EEEEEEEENKUlmmE_clEmm
FN:97,97,_ZZN4givp6detailL17neighborhood_flipIZNS0_3runIRZL23CATCH2_INTERNAL_TEST_16vEUlRKSt6vectorIdSaIdEEE_EENS_14OptimizeResultEOT_RKS3_ISt4pairIddESaISE_EENS_10GivpConfigEEUlS7_E_NS0_3RngEEESD_IdbERS5_dRKSB_SN_RT0_S7_S7_RSt8optionalINS0_15EvaluationCacheEEmRKSS_INSt6chrono10time_pointINSW_3_V212steady_clockENSW_8durationIlSt5ratioILl1ELl1000000000EEEEEEEENKUlmmE_clEmm
FN:97,97,_ZZN4givp6detailL17neighborhood_flipIZNS0_3runIRZL23CATCH2_INTERNAL_TEST_28vEUlRKSt6vectorIdSaIdEEE_EENS_14OptimizeResultEOT_RKS3_ISt4pairIddESaISE_EENS_10GivpConfigEEUlS7_E_NS0_3RngEEESD_IdbERS5_dRKSB_SN_RT0_S7_S7_RSt8optionalINS0_15EvaluationCacheEEmRKSS_INSt6chrono10time_pointINSW_3_V212steady_clockENSW_8durationIlSt5ratioILl1ELl1000000000EEEEEEEENKUlmmE_clEmm
FN:97,97,_ZZN4givp6detailL17neighborhood_flipIZNS0_3runIRZL23CATCH2_INTERNAL_TEST_42vEUlRKSt6vectorIdSaIdEEE_EENS_14OptimizeResultEOT_RKS3_ISt4pairIddESaISE_EENS_10GivpConfigEEUlS7_E_NS0_3RngEEESD_IdbERS5_dRKSB_SN_RT0_S7_S7_RSt8optionalINS0_15EvaluationCacheEEmRKSS_INSt6chrono10time_pointINSW_3_V212steady_clockENSW_8durationIlSt5ratioILl1ELl1000000000EEEEEEEENKUlmmE_clEmm
FN:97,97,_ZZN4givp6detailL17neighborhood_flipIZNS0_3runIRZL23CATCH2_INTERNAL_TEST_44vEUlRKSt6vectorIdSaIdEEE_EENS_14OptimizeResultEOT_RKS3_ISt4pairIddESaISE_EENS_10GivpConfigEEUlS7_E_NS0_3RngEEESD_IdbERS5_dRKSB_SN_RT0_S7_S7_RSt8optionalINS0_15EvaluationCacheEEmRKSS_INSt6chrono10time_pointINSW_3_V212steady_clockENSW_8durationIlSt5ratioILl1ELl1000000000EEEEEEEENKUlmmE_clEmm
FN:97,97,_ZZN4givp6detailL17neighborhood_flipIZNS0_3runIZL23CATCH2_INTERNAL_TEST_16vEUlRKSt6vectorIdSaIdEEE_EENS_14OptimizeResultEOT_RKS3_ISt4pairIddESaISD_EENS_10GivpConfigEEUlS7_E_NS0_3RngEEESC_IdbERS5_dRKSA_SM_RT0_S7_S7_RSt8optionalINS0_15EvaluationCacheEEmRKSR_INSt6chrono10time_pointINSV_3_V212steady_clockENSV_8durationIlSt5ratioILl1ELl1000000000EEEEEEEENKUlmmE_clEmm
FN:97,97,_ZZN4givp6detailL17neighborhood_flipIZNS0_3runIZL23CATCH2_INTERNAL_TEST_18vEUlRKSt6vectorIdSaIdEEE_EENS_14OptimizeResultEOT_RKS3_ISt4pairIddESaISD_EENS_10GivpConfigEEUlS7_E_NS0_3RngEEESC_IdbERS5_dRKSA_SM_RT0_S7_S7_RSt8optionalINS0_15EvaluationCacheEEmRKSR_INSt6chrono10time_pointINSV_3_V212steady_clockENSV_8durationIlSt5ratioILl1ELl1000000000EEEEEEEENKUlmmE_clEmm
FN:97,97,_ZZN4givp6detailL17neighborhood_flipIZNS0_3runIZL23CATCH2_INTERNAL_TEST_20vEUlRKSt6vectorIdSaIdEEE_EENS_14OptimizeResultEOT_RKS3_ISt4pairIddESaISD_EENS_10GivpConfigEEUlS7_E_NS0_3RngEEESC_IdbERS5_dRKSA_SM_RT0_S7_S7_RSt8optionalINS0_15EvaluationCacheEEmRKSR_INSt6chrono10time_pointINSV_3_V212steady_clockENSV_8durationIlSt5ratioILl1ELl1000000000EEEEEEEENKUlmmE_clEmm
FN:97,97,_ZZN4givp6detailL17neighborhood_flipIZNS0_3runIZL23CATCH2_INTERNAL_TEST_22vEUlRKSt6vectorIdSaIdEEE_EENS_14OptimizeResultEOT_RKS3_ISt4pairIddESaISD_EENS_10GivpConfigEEUlS7_E_NS0_3RngEEESC_IdbERS5_dRKSA_SM_RT0_S7_S7_RSt8optionalINS0_15EvaluationCacheEEmRKSR_INSt6chrono10time_pointINSV_3_V212steady_clockENSV_8durationIlSt5ratioILl1ELl1000000000EEEEEEEENKUlmmE_clEmm
FN:97,97,_ZZN4givp6detailL17neighborhood_flipIZNS0_3runIZL23CATCH2_INTERNAL_TEST_24vEUlRKSt6vectorIdSaIdEEE_EENS_14OptimizeResultEOT_RKS3_ISt4pairIddESaISD_EENS_10GivpConfigEEUlS7_E_NS0_3RngEEESC_IdbERS5_dRKSA_SM_RT0_S7_S7_RSt8optionalINS0_15EvaluationCacheEEmRKSR_INSt6chrono10time_pointINSV_3_V212steady_clockENSV_8durationIlSt5ratioILl1ELl1000000000EEEEEEEENKUlmmE_clEmm
FNDA:3511278,_ZN4givp6detailL17neighborhood_swapIZNS0_3runIRFdRKSt6vectorIdSaIdEEEEENS_14OptimizeResultEOT_RKS3_ISt4pairIddESaISE_EENS_10GivpConfigEEUlS7_E_NS0_3RngEEESD_IdbERS5_dRKSB_RT0_S7_S7_RSt8optionalINS0_15EvaluationCacheEEmRKSS_INSt6chrono10time_pointINSW_3_V212steady_clockENSW_8durationIlSt5ratioILl1ELl1000000000EEEEEEE
FNDA:209600,_ZN4givp6detailL17neighborhood_swapIZNS0_3runIRZL22CATCH2_INTERNAL_TEST_6vEUlRKSt6vectorIdSaIdEEE_EENS_14OptimizeResultEOT_RKS3_ISt4pairIddESaISE_EENS_10GivpConfigEEUlS7_E_NS0_3RngEEESD_IdbERS5_dRKSB_RT0_S7_S7_RSt8optionalINS0_15EvaluationCacheEEmRKSS_INSt6chrono10time_pointINSW_3_V212steady_clockENSW_8durationIlSt5ratioILl1ELl1000000000EEEEEEE
FNDA:301200,_ZN4givp6detailL17neighborhood_swapIZNS0_3runIRZL22CATCH2_INTERNAL_TEST_8vEUlRKSt6vectorIdSaIdEEE_EENS_14OptimizeResultEOT_RKS3_ISt4pairIddESaISE_EENS_10GivpConfigEEUlS7_E_NS0_3RngEEESD_IdbERS5_dRKSB_RT0_S7_S7_RSt8optionalINS0_15EvaluationCacheEEmRKSS_INSt6chrono10time_pointINSW_3_V212steady_clockENSW_8durationIlSt5ratioILl1ELl1000000000EEEEEEE
FNDA:138000,_ZN4givp6detailL17neighborhood_swapIZNS0_3runIRZL23CATCH2_INTERNAL_TEST_12vEUlRKSt6vectorIdSaIdEEE_EENS_14OptimizeResultEOT_RKS3_ISt4pairIddESaISE_EENS_10GivpConfigEEUlS7_E_NS0_3RngEEESD_IdbERS5_dRKSB_RT0_S7_S7_RSt8optionalINS0_15EvaluationCacheEEmRKSS_INSt6chrono10time_pointINSW_3_V212steady_clockENSW_8durationIlSt5ratioILl1ELl1000000000EEEEEEE
FNDA:202796,_ZN4givp6detailL17neighborhood_swapIZNS0_3runIRZL23CATCH2_INTERNAL_TEST_14vEUlRKSt6vectorIdSaIdEEE_EENS_14OptimizeResultEOT_RKS3_ISt4pairIddESaISE_EENS_10GivpConfigEEUlS7_E_NS0_3RngEEESD_IdbERS5_dRKSB_RT0_S7_S7_RSt8optionalINS0_15EvaluationCacheEEmRKSS_INSt6chrono10time_pointINSW_3_V212steady_clockENSW_8durationIlSt5ratioILl1ELl1000000000EEEEEEE
FNDA:200112,_ZN4givp6detailL17neighborhood_swapIZNS0_3runIRZL23CATCH2_INTERNAL_TEST_16vEUlRKSt6vectorIdSaIdEEE_EENS_14OptimizeResultEOT_RKS3_ISt4pairIddESaISE_EENS_10GivpConfigEEUlS7_E_NS0_3RngEEESD_IdbERS5_dRKSB_RT0_S7_S7_RSt8optionalINS0_15EvaluationCacheEEmRKSS_INSt6chrono10time_pointINSW_3_V212steady_clockENSW_8durationIlSt5ratioILl1ELl1000000000EEEEEEE
FNDA:3080,_ZN4givp6detailL17neighborhood_swapIZNS0_3runIRZL23CATCH2_INTERNAL_TEST_28vEUlRKSt6vectorIdSaIdEEE_EENS_14OptimizeResultEOT_RKS3_ISt4pairIddESaISE_EENS_10GivpConfigEEUlS7_E_NS0_3RngEEESD_IdbERS5_dRKSB_RT0_S7_S7_RSt8optionalINS0_15EvaluationCacheEEmRKSS_INSt6chrono10time_pointINSW_3_V212steady_clockENSW_8durationIlSt5ratioILl1ELl1000000000EEEEEEE
FNDA:528,_ZN4givp6detailL17neighborhood_swapIZNS0_3runIRZL23CATCH2_INTERNAL_TEST_42vEUlRKSt6vectorIdSaIdEEE_EENS_14OptimizeResultEOT_RKS3_ISt4pairIddESaISE_EENS_10GivpConfigEEUlS7_E_NS0_3RngEEESD_IdbERS5_dRKSB_RT0_S7_S7_RSt8optionalINS0_15EvaluationCacheEEmRKSS_INSt6chrono10time_pointINSW_3_V212steady_clockENSW_8durationIlSt5ratioILl1ELl1000000000EEEEEEE
FNDA:20,_ZN4givp6detailL17neighborhood_swapIZNS0_3runIRZL23CATCH2_INTERNAL_TEST_44vEUlRKSt6vectorIdSaIdEEE_EENS_14OptimizeResultEOT_RKS3_ISt4pairIddESaISE_EENS_10GivpConfigEEUlS7_E_NS0_3RngEEESD_IdbERS5_dRKSB_RT0_S7_S7_RSt8optionalINS0_15EvaluationCacheEEmRKSS_INSt6chrono10time_pointINSW_3_V212steady_clockENSW_8durationIlSt5ratioILl1ELl1000000000EEEEEEE
FNDA:0,_ZN4givp6detailL17neighborhood_swapIZNS0_3runIZL23CATCH2_INTERNAL_TEST_16vEUlRKSt6vectorIdSaIdEEE_EENS_14OptimizeResultEOT_RKS3_ISt4pairIddESaISD_EENS_10GivpConfigEEUlS7_E_NS0_3RngEEESC_IdbERS5_dRKSA_RT0_S7_S7_RSt8optionalINS0_15EvaluationCacheEEmRKSR_INSt6chrono10time_pointINSV_3_V212steady_clockENSV_8durationIlSt5ratioILl1ELl1000000000EEEEEEE
FNDA:0,_ZN4givp6detailL17neighborhood_swapIZNS0_3runIZL23CATCH2_INTERNAL_TEST_18vEUlRKSt6vectorIdSaIdEEE_EENS_14OptimizeResultEOT_RKS3_ISt4pairIddESaISD_EENS_10GivpConfigEEUlS7_E_NS0_3RngEEESC_IdbERS5_dRKSA_RT0_S7_S7_RSt8optionalINS0_15EvaluationCacheEEmRKSR_INSt6chrono10time_pointINSV_3_V212steady_clockENSV_8durationIlSt5ratioILl1ELl1000000000EEEEEEE
FNDA:0,_ZN4givp6detailL17neighborhood_swapIZNS0_3runIZL23CATCH2_INTERNAL_TEST_20vEUlRKSt6vectorIdSaIdEEE_EENS_14OptimizeResultEOT_RKS3_ISt4pairIddESaISD_EENS_10GivpConfigEEUlS7_E_NS0_3RngEEESC_IdbERS5_dRKSA_RT0_S7_S7_RSt8optionalINS0_15EvaluationCacheEEmRKSR_INSt6chrono10time_pointINSV_3_V212steady_clockENSV_8durationIlSt5ratioILl1ELl1000000000EEEEEEE
FNDA:0,_ZN4givp6detailL17neighborhood_swapIZNS0_3runIZL23CATCH2_INTERNAL_TEST_22vEUlRKSt6vectorIdSaIdEEE_EENS_14OptimizeResultEOT_RKS3_ISt4pairIddESaISD_EENS_10GivpConfigEEUlS7_E_NS0_3RngEEESC_IdbERS5_dRKSA_RT0_S7_S7_RSt8optionalINS0_15EvaluationCacheEEmRKSR_INSt6chrono10time_pointINSV_3_V212steady_clockENSV_8durationIlSt5ratioILl1ELl1000000000EEEEEEE
FNDA:0,_ZN4givp6detailL17neighborhood_swapIZNS0_3runIZL23CATCH2_INTERNAL_TEST_24vEUlRKSt6vectorIdSaIdEEE_EENS_14OptimizeResultEOT_RKS3_ISt4pairIddESaISD_EENS_10GivpConfigEEUlS7_E_NS0_3RngEEESC_IdbERS5_dRKSA_RT0_S7_S7_RSt8optionalINS0_15EvaluationCacheEEmRKSR_INSt6chrono10time_pointINSV_3_V212steady_clockENSV_8durationIlSt5ratioILl1ELl1000000000EEEEEEE
FNDA:3424590,_ZN4givp6detailL22neighborhood_multiflipIZNS0_3runIRFdRKSt6vectorIdSaIdEEEEENS_14OptimizeResultEOT_RKS3_ISt4pairIddESaISE_EENS_10GivpConfigEEUlS7_E_NS0_3RngEEESD_IdbERS5_dRKSB_RT0_S7_S7_RSt8optionalINS0_15EvaluationCacheEEmRKSS_INSt6chrono10time_pointINSW_3_V212steady_clockENSW_8durationIlSt5ratioILl1ELl1000000000EEEEEEE
FNDA:205264,_ZN4givp6detailL22neighborhood_multiflipIZNS0_3runIRZL22CATCH2_INTERNAL_TEST_6vEUlRKSt6vectorIdSaIdEEE_EENS_14OptimizeResultEOT_RKS3_ISt4pairIddESaISE_EENS_10GivpConfigEEUlS7_E_NS0_3RngEEESD_IdbERS5_dRKSB_RT0_S7_S7_RSt8optionalINS0_15EvaluationCacheEEmRKSS_INSt6chrono10time_pointINSW_3_V212steady_clockENSW_8durationIlSt5ratioILl1ELl1000000000EEEEEEE
FNDA:294960,_ZN4givp6detailL22neighborhood_multiflipIZNS0_3runIRZL22CATCH2_INTERNAL_TEST_8vEUlRKSt6vectorIdSaIdEEE_EENS_14OptimizeResultEOT_RKS3_ISt4pairIddESaISE_EENS_10GivpConfigEEUlS7_E_NS0_3RngEEESD_IdbERS5_dRKSB_RT0_S7_S7_RSt8optionalINS0_15EvaluationCacheEEmRKSS_INSt6chrono10time_pointINSW_3_V212steady_clockENSW_8durationIlSt5ratioILl1ELl1000000000EEEEEEE
FNDA:135120,_ZN4givp6detailL22neighborhood_multiflipIZNS0_3runIRZL23CATCH2_INTERNAL_TEST_12vEUlRKSt6vectorIdSaIdEEE_EENS_14OptimizeResultEOT_RKS3_ISt4pairIddESaISE_EENS_10GivpConfigEEUlS7_E_NS0_3RngEEESD_IdbERS5_dRKSB_RT0_S7_S7_RSt8optionalINS0_15EvaluationCacheEEmRKSS_INSt6chrono10time_pointINSW_3_V212steady_clockENSW_8durationIlSt5ratioILl1ELl1000000000EEEEEEE
FNDA:198684,_ZN4givp6detailL22neighborhood_multiflipIZNS0_3runIRZL23CATCH2_INTERNAL_TEST_14vEUlRKSt6vectorIdSaIdEEE_EENS_14OptimizeResultEOT_RKS3_ISt4pairIddESaISE_EENS_10GivpConfigEEUlS7_E_NS0_3RngEEESD_IdbERS5_dRKSB_RT0_S7_S7_RSt8optionalINS0_15EvaluationCacheEEmRKSS_INSt6chrono10time_pointINSW_3_V212steady_clockENSW_8durationIlSt5ratioILl1ELl1000000000EEEEEEE
FNDA:196032,_ZN4givp6detailL22neighborhood_multiflipIZNS0_3runIRZL23CATCH2_INTERNAL_TEST_16vEUlRKSt6vectorIdSaIdEEE_EENS_14OptimizeResultEOT_RKS3_ISt4pairIddESaISE_EENS_10GivpConfigEEUlS7_E_NS0_3RngEEESD_IdbERS5_dRKSB_RT0_S7_S7_RSt8optionalINS0_15EvaluationCacheEEmRKSS_INSt6chrono10time_pointINSW_3_V212steady_clockENSW_8durationIlSt5ratioILl1ELl1000000000EEEEEEE
FNDA:1848,_ZN4givp6detailL22neighborhood_multiflipIZNS0_3runIRZL23CATCH2_INTERNAL_TEST_28vEUlRKSt6vectorIdSaIdEEE_EENS_14OptimizeResultEOT_RKS3_ISt4pairIddESaISE_EENS_10GivpConfigEEUlS7_E_NS0_3RngEEESD_IdbERS5_dRKSB_RT0_S7_S7_RSt8optionalINS0_15EvaluationCacheEEmRKSS_INSt6chrono10time_pointINSW_3_V212steady_clockENSW_8durationIlSt5ratioILl1ELl1000000000EEEEEEE
FNDA:368,_ZN4givp6detailL22neighborhood_multiflipIZNS0_3runIRZL23CATCH2_INTERNAL_TEST_42vEUlRKSt6vectorIdSaIdEEE_EENS_14OptimizeResultEOT_RKS3_ISt4pairIddESaISE_EENS_10GivpConfigEEUlS7_E_NS0_3RngEEESD_IdbERS5_dRKSB_RT0_S7_S7_RSt8optionalINS0_15EvaluationCacheEEmRKSS_INSt6chrono10time_pointINSW_3_V212steady_clockENSW_8durationIlSt5ratioILl1ELl1000000000EEEEEEE
FNDA:0,_ZN4givp6detailL22neighborhood_multiflipIZNS0_3runIRZL23CATCH2_INTERNAL_TEST_44vEUlRKSt6vectorIdSaIdEEE_EENS_14OptimizeResultEOT_RKS3_ISt4pairIddESaISE_EENS_10GivpConfigEEUlS7_E_NS0_3RngEEESD_IdbERS5_dRKSB_RT0_S7_S7_RSt8optionalINS0_15EvaluationCacheEEmRKSS_INSt6chrono10time_pointINSW_3_V212steady_clockENSW_8durationIlSt5ratioILl1ELl1000000000EEEEEEE
FNDA:0,_ZN4givp6detailL22neighborhood_multiflipIZNS0_3runIZL23CATCH2_INTERNAL_TEST_16vEUlRKSt6vectorIdSaIdEEE_EENS_14OptimizeResultEOT_RKS3_ISt4pairIddESaISD_EENS_10GivpConfigEEUlS7_E_NS0_3RngEEESC_IdbERS5_dRKSA_RT0_S7_S7_RSt8optionalINS0_15EvaluationCacheEEmRKSR_INSt6chrono10time_pointINSV_3_V212steady_clockENSV_8durationIlSt5ratioILl1ELl1000000000EEEEEEE
FNDA:0,_ZN4givp6detailL22neighborhood_multiflipIZNS0_3runIZL23CATCH2_INTERNAL_TEST_18vEUlRKSt6vectorIdSaIdEEE_EENS_14OptimizeResultEOT_RKS3_ISt4pairIddESaISD_EENS_10GivpConfigEEUlS7_E_NS0_3RngEEESC_IdbERS5_dRKSA_RT0_S7_S7_RSt8optionalINS0_15EvaluationCacheEEmRKSR_INSt6chrono10time_pointINSV_3_V212steady_clockENSV_8durationIlSt5ratioILl1ELl1000000000EEEEEEE
FNDA:0,_ZN4givp6detailL22neighborhood_multiflipIZNS0_3runIZL23CATCH2_INTERNAL_TEST_20vEUlRKSt6vectorIdSaIdEEE_EENS_14OptimizeResultEOT_RKS3_ISt4pairIddESaISD_EENS_10GivpConfigEEUlS7_E_NS0_3RngEEESC_IdbERS5_dRKSA_RT0_S7_S7_RSt8optionalINS0_15EvaluationCacheEEmRKSR_INSt6chrono10time_pointINSV_3_V212steady_clockENSV_8durationIlSt5ratioILl1ELl1000000000EEEEEEE
FNDA:0,_ZN4givp6detailL22neighborhood_multiflipIZNS0_3runIZL23CATCH2_INTERNAL_TEST_22vEUlRKSt6vectorIdSaIdEEE_EENS_14OptimizeResultEOT_RKS3_ISt4pairIddESaISD_EENS_10GivpConfigEEUlS7_E_NS0_3RngEEESC_IdbERS5_dRKSA_RT0_S7_S7_RSt8optionalINS0_15EvaluationCacheEEmRKSR_INSt6chrono10time_pointINSV_3_V212steady_clockENSV_8durationIlSt5ratioILl1ELl1000000000EEEEEEE
FNDA:0,_ZN4givp6detailL22neighborhood_multiflipIZNS0_3runIZL23CATCH2_INTERNAL_TEST_24vEUlRKSt6vectorIdSaIdEEE_EENS_14OptimizeResultEOT_RKS3_ISt4pairIddESaISD_EENS_10GivpConfigEEUlS7_E_NS0_3RngEEESC_IdbERS5_dRKSA_RT0_S7_S7_RSt8optionalINS0_15EvaluationCacheEEmRKSR_INSt6chrono10time_pointINSV_3_V212steady_clockENSV_8durationIlSt5ratioILl1ELl1000000000EEEEEEE
FNDA:18937,_ZN4givp6detail16local_search_vndIZNS0_3runIRFdRKSt6vectorIdSaIdEEEEENS_14OptimizeResultEOT_RKS3_ISt4pairIddESaISE_EENS_10GivpConfigEEUlS7_E_NS0_3RngEEEdRKSB_RS5_dmS7_S7_mRSt8optionalINS0_15EvaluationCacheEERT0_RKSP_INSt6chrono10time_pointINSV_3_V212steady_clockENSV_8durationIlSt5ratioILl1ELl1000000000EEEEEEE
FNDA:1084,_ZN4givp6detail16local_search_vndIZNS0_3runIRZL22CATCH2_INTERNAL_TEST_6vEUlRKSt6vectorIdSaIdEEE_EENS_14OptimizeResultEOT_RKS3_ISt4pairIddESaISE_EENS_10GivpConfigEEUlS7_E_NS0_3RngEEEdRKSB_RS5_dmS7_S7_mRSt8optionalINS0_15EvaluationCacheEERT0_RKSP_INSt6chrono10time_pointINSV_3_V212steady_clockENSV_8durationIlSt5ratioILl1ELl1000000000EEEEEEE
FNDA:1560,_ZN4givp6detail16local_search_vndIZNS0_3runIRZL22CATCH2_INTERNAL_TEST_8vEUlRKSt6vectorIdSaIdEEE_EENS_14OptimizeResultEOT_RKS3_ISt4pairIddESaISE_EENS_10GivpConfigEEUlS7_E_NS0_3RngEEEdRKSB_RS5_dmS7_S7_mRSt8optionalINS0_15EvaluationCacheEERT0_RKSP_INSt6chrono10time_pointINSV_3_V212steady_clockENSV_8durationIlSt5ratioILl1ELl1000000000EEEEEEE
FNDA:720,_ZN4givp6detail16local_search_vndIZNS0_3runIRZL23CATCH2_INTERNAL_TEST_12vEUlRKSt6vectorIdSaIdEEE_EENS_14OptimizeResultEOT_RKS3_ISt4pairIddESaISE_EENS_10GivpConfigEEUlS7_E_NS0_3RngEEEdRKSB_RS5_dmS7_S7_mRSt8optionalINS0_15EvaluationCacheEERT0_RKSP_INSt6chrono10time_pointINSV_3_V212steady_clockENSV_8durationIlSt5ratioILl1ELl1000000000EEEEEEE
FNDA:1028,_ZN4givp6detail16local_search_vndIZNS0_3runIRZL23CATCH2_INTERNAL_TEST_14vEUlRKSt6vectorIdSaIdEEE_EENS_14OptimizeResultEOT_RKS3_ISt4pairIddESaISE_EENS_10GivpConfigEEUlS7_E_NS0_3RngEEEdRKSB_RS5_dmS7_S7_mRSt8optionalINS0_15EvaluationCacheEERT0_RKSP_INSt6chrono10time_pointINSV_3_V212steady_clockENSV_8durationIlSt5ratioILl1ELl1000000000EEEEEEE
FNDA:1020,_ZN4givp6detail16local_search_vndIZNS0_3runIRZL23CATCH2_INTERNAL_TEST_16vEUlRKSt6vectorIdSaIdEEE_EENS_14OptimizeResultEOT_RKS3_ISt4pairIddESaISE_EENS_10GivpConfigEEUlS7_E_NS0_3RngEEEdRKSB_RS5_dmS7_S7_mRSt8optionalINS0_15EvaluationCacheEERT0_RKSP_INSt6chrono10time_pointINSV_3_V212steady_clockENSV_8durationIlSt5ratioILl1ELl1000000000EEEEEEE
FNDA:308,_ZN4givp6detail16local_search_vndIZNS0_3runIRZL23CATCH2_INTERNAL_TEST_28vEUlRKSt6vectorIdSaIdEEE_EENS_14OptimizeResultEOT_RKS3_ISt4pairIddESaISE_EENS_10GivpConfigEEUlS7_E_NS0_3RngEEEdRKSB_RS5_dmS7_S7_mRSt8optionalINS0_15EvaluationCacheEERT0_RKSP_INSt6chrono10time_pointINSV_3_V212steady_clockENSV_8durationIlSt5ratioILl1ELl1000000000EEEEEEE
FNDA:40,_ZN4givp6detail16local_search_vndIZNS0_3runIRZL23CATCH2_INTERNAL_TEST_42vEUlRKSt6vectorIdSaIdEEE_EENS_14OptimizeResultEOT_RKS3_ISt4pairIddESaISE_EENS_10GivpConfigEEUlS7_E_NS0_3RngEEEdRKSB_RS5_dmS7_S7_mRSt8optionalINS0_15EvaluationCacheEERT0_RKSP_INSt6chrono10time_pointINSV_3_V212steady_clockENSV_8durationIlSt5ratioILl1ELl1000000000EEEEEEE
FNDA:320,_ZN4givp6detail16local_search_vndIZNS0_3runIRZL23CATCH2_INTERNAL_TEST_44vEUlRKSt6vectorIdSaIdEEE_EENS_14OptimizeResultEOT_RKS3_ISt4pairIddESaISE_EENS_10GivpConfigEEUlS7_E_NS0_3RngEEEdRKSB_RS5_dmS7_S7_mRSt8optionalINS0_15EvaluationCacheEERT0_RKSP_INSt6chrono10time_pointINSV_3_V212steady_clockENSV_8durationIlSt5ratioILl1ELl1000000000EEEEEEE
FNDA:0,_ZN4givp6detail16local_search_vndIZNS0_3runIZL23CATCH2_INTERNAL_TEST_16vEUlRKSt6vectorIdSaIdEEE_EENS_14OptimizeResultEOT_RKS3_ISt4pairIddESaISD_EENS_10GivpConfigEEUlS7_E_NS0_3RngEEEdRKSA_RS5_dmS7_S7_mRSt8optionalINS0_15EvaluationCacheEERT0_RKSO_INSt6chrono10time_pointINSU_3_V212steady_clockENSU_8durationIlSt5ratioILl1ELl1000000000EEEEEEE
FNDA:0,_ZN4givp6detail16local_search_vndIZNS0_3runIZL23CATCH2_INTERNAL_TEST_18vEUlRKSt6vectorIdSaIdEEE_EENS_14OptimizeResultEOT_RKS3_ISt4pairIddESaISD_EENS_10GivpConfigEEUlS7_E_NS0_3RngEEEdRKSA_RS5_dmS7_S7_mRSt8optionalINS0_15EvaluationCacheEERT0_RKSO_INSt6chrono10time_pointINSU_3_V212steady_clockENSU_8durationIlSt5ratioILl1ELl1000000000EEEEEEE
FNDA:0,_ZN4givp6detail16local_search_vndIZNS0_3runIZL23CATCH2_INTERNAL_TEST_20vEUlRKSt6vectorIdSaIdEEE_EENS_14OptimizeResultEOT_RKS3_ISt4pairIddESaISD_EENS_10GivpConfigEEUlS7_E_NS0_3RngEEEdRKSA_RS5_dmS7_S7_mRSt8optionalINS0_15EvaluationCacheEERT0_RKSO_INSt6chrono10time_pointINSU_3_V212steady_clockENSU_8durationIlSt5ratioILl1ELl1000000000EEEEEEE
FNDA:0,_ZN4givp6detail16local_search_vndIZNS0_3runIZL23CATCH2_INTERNAL_TEST_22vEUlRKSt6vectorIdSaIdEEE_EENS_14OptimizeResultEOT_RKS3_ISt4pairIddESaISD_EENS_10GivpConfigEEUlS7_E_NS0_3RngEEEdRKSA_RS5_dmS7_S7_mRSt8optionalINS0_15EvaluationCacheEERT0_RKSO_INSt6chrono10time_pointINSU_3_V212steady_clockENSU_8durationIlSt5ratioILl1ELl1000000000EEEEEEE
FNDA:0,_ZN4givp6detail16local_search_vndIZNS0_3runIZL23CATCH2_INTERNAL_TEST_24vEUlRKSt6vectorIdSaIdEEE_EENS_14OptimizeResultEOT_RKS3_ISt4pairIddESaISD_EENS_10GivpConfigEEUlS7_E_NS0_3RngEEEdRKSA_RS5_dmS7_S7_mRSt8optionalINS0_15EvaluationCacheEERT0_RKSO_INSt6chrono10time_pointINSU_3_V212steady_clockENSU_8durationIlSt5ratioILl1ELl1000000000EEEEEEE
FNDA:2111600,_ZN4givp6detailL17try_integer_movesIZNS0_3runIRFdRKSt6vectorIdSaIdEEEEENS_14OptimizeResultEOT_RKS3_ISt4pairIddESaISE_EENS_10GivpConfigEEUlS7_E_EESD_IdbEmRS5_dRKSB_S7_S7_RSt8optionalINS0_15EvaluationCacheEEm
FNDA:0,_ZN4givp6detailL17try_integer_movesIZNS0_3runIRZL22CATCH2_INTERNAL_TEST_6vEUlRKSt6vectorIdSaIdEEE_EENS_14OptimizeResultEOT_RKS3_ISt4pairIddESaISE_EENS_10GivpConfigEEUlS7_E_EESD_IdbEmRS5_dRKSB_S7_S7_RSt8optionalINS0_15EvaluationCacheEEm
FNDA:0,_ZN4givp6detailL17try_integer_movesIZNS0_3runIRZL22CATCH2_INTERNAL_TEST_8vEUlRKSt6vectorIdSaIdEEE_EENS_14OptimizeResultEOT_RKS3_ISt4pairIddESaISE_EENS_10GivpConfigEEUlS7_E_EESD_IdbEmRS5_dRKSB_S7_S7_RSt8optionalINS0_15EvaluationCacheEEm
FNDA:0,_ZN4givp6detailL17try_integer_movesIZNS0_3runIRZL23CATCH2_INTERNAL_TEST_12vEUlRKSt6vectorIdSaIdEEE_EENS_14OptimizeResultEOT_RKS3_ISt4pairIddESaISE_EENS_10GivpConfigEEUlS7_E_EESD_IdbEmRS5_dRKSB_S7_S7_RSt8optionalINS0_15EvaluationCacheEEm
FNDA:0,_ZN4givp6detailL17try_integer_movesIZNS0_3runIRZL23CATCH2_INTERNAL_TEST_14vEUlRKSt6vectorIdSaIdEEE_EENS_14OptimizeResultEOT_RKS3_ISt4pairIddESaISE_EENS_10GivpConfigEEUlS7_E_EESD_IdbEmRS5_dRKSB_S7_S7_RSt8optionalINS0_15EvaluationCacheEEm
FNDA:0,_ZN4givp6detailL17try_integer_movesIZNS0_3runIRZL23CATCH2_INTERNAL_TEST_16vEUlRKSt6vectorIdSaIdEEE_EENS_14OptimizeResultEOT_RKS3_ISt4pairIddESaISE_EENS_10GivpConfigEEUlS7_E_EESD_IdbEmRS5_dRKSB_S7_S7_RSt8optionalINS0_15EvaluationCacheEEm
FNDA:0,_ZN4givp6detailL17try_integer_movesIZNS0_3runIRZL23CATCH2_INTERNAL_TEST_28vEUlRKSt6vectorIdSaIdEEE_EENS_14OptimizeResultEOT_RKS3_ISt4pairIddESaISE_EENS_10GivpConfigEEUlS7_E_EESD_IdbEmRS5_dRKSB_S7_S7_RSt8optionalINS0_15EvaluationCacheEEm
FNDA:0,_ZN4givp6detailL17try_integer_movesIZNS0_3runIRZL23CATCH2_INTERNAL_TEST_42vEUlRKSt6vectorIdSaIdEEE_EENS_14OptimizeResultEOT_RKS3_ISt4pairIddESaISE_EENS_10GivpConfigEEUlS7_E_EESD_IdbEmRS5_dRKSB_S7_S7_RSt8optionalINS0_15EvaluationCacheEEm
FNDA:0,_ZN4givp6detailL17try_integer_movesIZNS0_3runIRZL23CATCH2_INTERNAL_TEST_44vEUlRKSt6vectorIdSaIdEEE_EENS_14OptimizeResultEOT_RKS3_ISt4pairIddESaISE_EENS_10GivpConfigEEUlS7_E_EESD_IdbEmRS5_dRKSB_S7_S7_RSt8optionalINS0_15EvaluationCacheEEm
FNDA:0,_ZN4givp6detailL17try_integer_movesIZNS0_3runIZL23CATCH2_INTERNAL_TEST_16vEUlRKSt6vectorIdSaIdEEE_EENS_14OptimizeResultEOT_RKS3_ISt4pairIddESaISD_EENS_10GivpConfigEEUlS7_E_EESC_IdbEmRS5_dRKSA_S7_S7_RSt8optionalINS0_15EvaluationCacheEEm
FNDA:0,_ZN4givp6detailL17try_integer_movesIZNS0_3runIZL23CATCH2_INTERNAL_TEST_18vEUlRKSt6vectorIdSaIdEEE_EENS_14OptimizeResultEOT_RKS3_ISt4pairIddESaISD_EENS_10GivpConfigEEUlS7_E_EESC_IdbEmRS5_dRKSA_S7_S7_RSt8optionalINS0_15EvaluationCacheEEm
FNDA:0,_ZN4givp6detailL17try_integer_movesIZNS0_3runIZL23CATCH2_INTERNAL_TEST_20vEUlRKSt6vectorIdSaIdEEE_EENS_14OptimizeResultEOT_RKS3_ISt4pairIddESaISD_EENS_10GivpConfigEEUlS7_E_EESC_IdbEmRS5_dRKSA_S7_S7_RSt8optionalINS0_15EvaluationCacheEEm
FNDA:0,_ZN4givp6detailL17try_integer_movesIZNS0_3runIZL23CATCH2_INTERNAL_TEST_22vEUlRKSt6vectorIdSaIdEEE_EENS_14OptimizeResultEOT_RKS3_ISt4pairIddESaISD_EENS_10GivpConfigEEUlS7_E_EESC_IdbEmRS5_dRKSA_S7_S7_RSt8optionalINS0_15EvaluationCacheEEm
FNDA:0,_ZN4givp6detailL17try_integer_movesIZNS0_3runIZL23CATCH2_INTERNAL_TEST_24vEUlRKSt6vectorIdSaIdEEE_EENS_14OptimizeResultEOT_RKS3_ISt4pairIddESaISD_EENS_10GivpConfigEEUlS7_E_EESC_IdbEmRS5_dRKSA_S7_S7_RSt8optionalINS0_15EvaluationCacheEEm
FNDA:19466920,_ZN4givp6detailL19try_continuous_moveIZNS0_3runIRFdRKSt6vectorIdSaIdEEEEENS_14OptimizeResultEOT_RKS3_ISt4pairIddESaISE_EENS_10GivpConfigEEUlS7_E_NS0_3RngEEESD_IdbEmRS5_dRKSB_RT0_S7_S7_RSt8optionalINS0_15EvaluationCacheEEm
FNDA:1048000,_ZN4givp6detailL19try_continuous_moveIZNS0_3runIRZL22CATCH2_INTERNAL_TEST_6vEUlRKSt6vectorIdSaIdEEE_EENS_14OptimizeResultEOT_RKS3_ISt4pairIddESaISE_EENS_10GivpConfigEEUlS7_E_NS0_3RngEEESD_IdbEmRS5_dRKSB_RT0_S7_S7_RSt8optionalINS0_15EvaluationCacheEEm
FNDA:1506000,_ZN4givp6detailL19try_continuous_moveIZNS0_3runIRZL22CATCH2_INTERNAL_TEST_8vEUlRKSt6vectorIdSaIdEEE_EENS_14OptimizeResultEOT_RKS3_ISt4pairIddESaISE_EENS_10GivpConfigEEUlS7_E_NS0_3RngEEESD_IdbEmRS5_dRKSB_RT0_S7_S7_RSt8optionalINS0_15EvaluationCacheEEm
FNDA:138000,_ZN4givp6detailL19try_continuous_moveIZNS0_3runIRZL23CATCH2_INTERNAL_TEST_12vEUlRKSt6vectorIdSaIdEEE_EENS_14OptimizeResultEOT_RKS3_ISt4pairIddESaISE_EENS_10GivpConfigEEUlS7_E_NS0_3RngEEESD_IdbEmRS5_dRKSB_RT0_S7_S7_RSt8optionalINS0_15EvaluationCacheEEm
FNDA:204000,_ZN4givp6detailL19try_continuous_moveIZNS0_3runIRZL23CATCH2_INTERNAL_TEST_14vEUlRKSt6vectorIdSaIdEEE_EENS_14OptimizeResultEOT_RKS3_ISt4pairIddESaISE_EENS_10GivpConfigEEUlS7_E_NS0_3RngEEESD_IdbEmRS5_dRKSB_RT0_S7_S7_RSt8optionalINS0_15EvaluationCacheEEm
FNDA:203200,_ZN4givp6detailL19try_continuous_moveIZNS0_3runIRZL23CATCH2_INTERNAL_TEST_16vEUlRKSt6vectorIdSaIdEEE_EENS_14OptimizeResultEOT_RKS3_ISt4pairIddESaISE_EENS_10GivpConfigEEUlS7_E_NS0_3RngEEESD_IdbEmRS5_dRKSB_RT0_S7_S7_RSt8optionalINS0_15EvaluationCacheEEm
FNDA:12320,_ZN4givp6detailL19try_continuous_moveIZNS0_3runIRZL23CATCH2_INTERNAL_TEST_28vEUlRKSt6vectorIdSaIdEEE_EENS_14OptimizeResultEOT_RKS3_ISt4pairIddESaISE_EENS_10GivpConfigEEUlS7_E_NS0_3RngEEESD_IdbEmRS5_dRKSB_RT0_S7_S7_RSt8optionalINS0_15EvaluationCacheEEm
FNDA:2400,_ZN4givp6detailL19try_continuous_moveIZNS0_3runIRZL23CATCH2_INTERNAL_TEST_42vEUlRKSt6vectorIdSaIdEEE_EENS_14OptimizeResultEOT_RKS3_ISt4pairIddESaISE_EENS_10GivpConfigEEUlS7_E_NS0_3RngEEESD_IdbEmRS5_dRKSB_RT0_S7_S7_RSt8optionalINS0_15EvaluationCacheEEm
FNDA:2080,_ZN4givp6detailL19try_continuous_moveIZNS0_3runIRZL23CATCH2_INTERNAL_TEST_44vEUlRKSt6vectorIdSaIdEEE_EENS_14OptimizeResultEOT_RKS3_ISt4pairIddESaISE_EENS_10GivpConfigEEUlS7_E_NS0_3RngEEESD_IdbEmRS5_dRKSB_RT0_S7_S7_RSt8optionalINS0_15EvaluationCacheEEm
FNDA:0,_ZN4givp6detailL19try_continuous_moveIZNS0_3runIZL23CATCH2_INTERNAL_TEST_16vEUlRKSt6vectorIdSaIdEEE_EENS_14OptimizeResultEOT_RKS3_ISt4pairIddESaISD_EENS_10GivpConfigEEUlS7_E_NS0_3RngEEESC_IdbEmRS5_dRKSA_RT0_S7_S7_RSt8optionalINS0_15EvaluationCacheEEm
FNDA:0,_ZN4givp6detailL19try_continuous_moveIZNS0_3runIZL23CATCH2_INTERNAL_TEST_18vEUlRKSt6vectorIdSaIdEEE_EENS_14OptimizeResultEOT_RKS3_ISt4pairIddESaISD_EENS_10GivpConfigEEUlS7_E_NS0_3RngEEESC_IdbEmRS5_dRKSA_RT0_S7_S7_RSt8optionalINS0_15EvaluationCacheEEm
FNDA:0,_ZN4givp6detailL19try_continuous_moveIZNS0_3runIZL23CATCH2_INTERNAL_TEST_20vEUlRKSt6vectorIdSaIdEEE_EENS_14OptimizeResultEOT_RKS3_ISt4pairIddESaISD_EENS_10GivpConfigEEUlS7_E_NS0_3RngEEESC_IdbEmRS5_dRKSA_RT0_S7_S7_RSt8optionalINS0_15EvaluationCacheEEm
FNDA:0,_ZN4givp6detailL19try_continuous_moveIZNS0_3runIZL23CATCH2_INTERNAL_TEST_22vEUlRKSt6vectorIdSaIdEEE_EENS_14OptimizeResultEOT_RKS3_ISt4pairIddESaISD_EENS_10GivpConfigEEUlS7_E_NS0_3RngEEESC_IdbEmRS5_dRKSA_RT0_S7_S7_RSt8optionalINS0_15EvaluationCacheEEm
FNDA:0,_ZN4givp6detailL19try_continuous_moveIZNS0_3runIZL23CATCH2_INTERNAL_TEST_24vEUlRKSt6vectorIdSaIdEEE_EENS_14OptimizeResultEOT_RKS3_ISt4pairIddESaISD_EENS_10GivpConfigEEUlS7_E_NS0_3RngEEESC_IdbEmRS5_dRKSA_RT0_S7_S7_RSt8optionalINS0_15EvaluationCacheEEm
FNDA:690291422,_ZN4givp6detailL13perturb_indexINS0_3RngEEEvRSt6vectorIdSaIdEEmmRT_RKS5_SA_m
FNDA:3727832,_ZN4givp6detailL17neighborhood_flipIZNS0_3runIRFdRKSt6vectorIdSaIdEEEEENS_14OptimizeResultEOT_RKS3_ISt4pairIddESaISE_EENS_10GivpConfigEEUlS7_E_NS0_3RngEEESD_IdbERS5_dRKSB_SN_RT0_S7_S7_RSt8optionalINS0_15EvaluationCacheEEmRKSS_INSt6chrono10time_pointINSW_3_V212steady_clockENSW_8durationIlSt5ratioILl1ELl1000000000EEEEEEE
FNDA:209600,_ZN4givp6detailL17neighborhood_flipIZNS0_3runIRZL22CATCH2_INTERNAL_TEST_6vEUlRKSt6vectorIdSaIdEEE_EENS_14OptimizeResultEOT_RKS3_ISt4pairIddESaISE_EENS_10GivpConfigEEUlS7_E_NS0_3RngEEESD_IdbERS5_dRKSB_SN_RT0_S7_S7_RSt8optionalINS0_15EvaluationCacheEEmRKSS_INSt6chrono10time_pointINSW_3_V212steady_clockENSW_8durationIlSt5ratioILl1ELl1000000000EEEEEEE
FNDA:301200,_ZN4givp6detailL17neighborhood_flipIZNS0_3runIRZL22CATCH2_INTERNAL_TEST_8vEUlRKSt6vectorIdSaIdEEE_EENS_14OptimizeResultEOT_RKS3_ISt4pairIddESaISE_EENS_10GivpConfigEEUlS7_E_NS0_3RngEEESD_IdbERS5_dRKSB_SN_RT0_S7_S7_RSt8optionalINS0_15EvaluationCacheEEmRKSS_INSt6chrono10time_pointINSW_3_V212steady_clockENSW_8durationIlSt5ratioILl1ELl1000000000EEEEEEE
FNDA:138000,_ZN4givp6detailL17neighborhood_flipIZNS0_3runIRZL23CATCH2_INTERNAL_TEST_12vEUlRKSt6vectorIdSaIdEEE_EENS_14OptimizeResultEOT_RKS3_ISt4pairIddESaISE_EENS_10GivpConfigEEUlS7_E_NS0_3RngEEESD_IdbERS5_dRKSB_SN_RT0_S7_S7_RSt8optionalINS0_15EvaluationCacheEEmRKSS_INSt6chrono10time_pointINSW_3_V212steady_clockENSW_8durationIlSt5ratioILl1ELl1000000000EEEEEEE
FNDA:204000,_ZN4givp6detailL17neighborhood_flipIZNS0_3runIRZL23CATCH2_INTERNAL_TEST_14vEUlRKSt6vectorIdSaIdEEE_EENS_14OptimizeResultEOT_RKS3_ISt4pairIddESaISE_EENS_10GivpConfigEEUlS7_E_NS0_3RngEEESD_IdbERS5_dRKSB_SN_RT0_S7_S7_RSt8optionalINS0_15EvaluationCacheEEmRKSS_INSt6chrono10time_pointINSW_3_V212steady_clockENSW_8durationIlSt5ratioILl1ELl1000000000EEEEEEE
FNDA:203200,_ZN4givp6detailL17neighborhood_flipIZNS0_3runIRZL23CATCH2_INTERNAL_TEST_16vEUlRKSt6vectorIdSaIdEEE_EENS_14OptimizeResultEOT_RKS3_ISt4pairIddESaISE_EENS_10GivpConfigEEUlS7_E_NS0_3RngEEESD_IdbERS5_dRKSB_SN_RT0_S7_S7_RSt8optionalINS0_15EvaluationCacheEEmRKSS_INSt6chrono10time_pointINSW_3_V212steady_clockENSW_8durationIlSt5ratioILl1ELl1000000000EEEEEEE
FNDA:3080,_ZN4givp6detailL17neighborhood_flipIZNS0_3runIRZL23CATCH2_INTERNAL_TEST_28vEUlRKSt6vectorIdSaIdEEE_EENS_14OptimizeResultEOT_RKS3_ISt4pairIddESaISE_EENS_10GivpConfigEEUlS7_E_NS0_3RngEEESD_IdbERS5_dRKSB_SN_RT0_S7_S7_RSt8optionalINS0_15EvaluationCacheEEmRKSS_INSt6chrono10time_pointINSW_3_V212steady_clockENSW_8durationIlSt5ratioILl1ELl1000000000EEEEEEE
FNDA:800,_ZN4givp6detailL17neighborhood_flipIZNS0_3runIRZL23CATCH2_INTERNAL_TEST_42vEUlRKSt6vectorIdSaIdEEE_EENS_14OptimizeResultEOT_RKS3_ISt4pairIddESaISE_EENS_10GivpConfigEEUlS7_E_NS0_3RngEEESD_IdbERS5_dRKSB_SN_RT0_S7_S7_RSt8optionalINS0_15EvaluationCacheEEmRKSS_INSt6chrono10time_pointINSW_3_V212steady_clockENSW_8durationIlSt5ratioILl1ELl1000000000EEEEEEE
FNDA:416,_ZN4givp6detailL17neighborhood_flipIZNS0_3runIRZL23CATCH2_INTERNAL_TEST_44vEUlRKSt6vectorIdSaIdEEE_EENS_14OptimizeResultEOT_RKS3_ISt4pairIddESaISE_EENS_10GivpConfigEEUlS7_E_NS0_3RngEEESD_IdbERS5_dRKSB_SN_RT0_S7_S7_RSt8optionalINS0_15EvaluationCacheEEmRKSS_INSt6chrono10time_pointINSW_3_V212steady_clockENSW_8durationIlSt5ratioILl1ELl1000000000EEEEEEE
FNDA:0,_ZN4givp6detailL17neighborhood_flipIZNS0_3runIZL23CATCH2_INTERNAL_TEST_16vEUlRKSt6vectorIdSaIdEEE_EENS_14OptimizeResultEOT_RKS3_ISt4pairIddESaISD_EENS_10GivpConfigEEUlS7_E_NS0_3RngEEESC_IdbERS5_dRKSA_SM_RT0_S7_S7_RSt8optionalINS0_15EvaluationCacheEEmRKSR_INSt6chrono10time_pointINSV_3_V212steady_clockENSV_8durationIlSt5ratioILl1ELl1000000000EEEEEEE
FNDA:0,_ZN4givp6detailL17neighborhood_flipIZNS0_3runIZL23CATCH2_INTERNAL_TEST_18vEUlRKSt6vectorIdSaIdEEE_EENS_14OptimizeResultEOT_RKS3_ISt4pairIddESaISD_EENS_10GivpConfigEEUlS7_E_NS0_3RngEEESC_IdbERS5_dRKSA_SM_RT0_S7_S7_RSt8optionalINS0_15EvaluationCacheEEmRKSR_INSt6chrono10time_pointINSV_3_V212steady_clockENSV_8durationIlSt5ratioILl1ELl1000000000EEEEEEE
FNDA:0,_ZN4givp6detailL17neighborhood_flipIZNS0_3runIZL23CATCH2_INTERNAL_TEST_20vEUlRKSt6vectorIdSaIdEEE_EENS_14OptimizeResultEOT_RKS3_ISt4pairIddESaISD_EENS_10GivpConfigEEUlS7_E_NS0_3RngEEESC_IdbERS5_dRKSA_SM_RT0_S7_S7_RSt8optionalINS0_15EvaluationCacheEEmRKSR_INSt6chrono10time_pointINSV_3_V212steady_clockENSV_8durationIlSt5ratioILl1ELl1000000000EEEEEEE
FNDA:0,_ZN4givp6detailL17neighborhood_flipIZNS0_3runIZL23CATCH2_INTERNAL_TEST_22vEUlRKSt6vectorIdSaIdEEE_EENS_14OptimizeResultEOT_RKS3_ISt4pairIddESaISD_EENS_10GivpConfigEEUlS7_E_NS0_3RngEEESC_IdbERS5_dRKSA_SM_RT0_S7_S7_RSt8optionalINS0_15EvaluationCacheEEmRKSR_INSt6chrono10time_pointINSV_3_V212steady_clockENSV_8durationIlSt5ratioILl1ELl1000000000EEEEEEE
FNDA:0,_ZN4givp6detailL17neighborhood_flipIZNS0_3runIZL23CATCH2_INTERNAL_TEST_24vEUlRKSt6vectorIdSaIdEEE_EENS_14OptimizeResultEOT_RKS3_ISt4pairIddESaISD_EENS_10GivpConfigEEUlS7_E_NS0_3RngEEESC_IdbERS5_dRKSA_SM_RT0_S7_S7_RSt8optionalINS0_15EvaluationCacheEEmRKSR_INSt6chrono10time_pointINSV_3_V212steady_clockENSV_8durationIlSt5ratioILl1ELl1000000000EEEEEEE
FNDA:50116680,_ZZN4givp6detailL17neighborhood_flipIZNS0_3runIRFdRKSt6vectorIdSaIdEEEEENS_14OptimizeResultEOT_RKS3_ISt4pairIddESaISE_EENS_10GivpConfigEEUlS7_E_NS0_3RngEEESD_IdbERS5_dRKSB_SN_RT0_S7_S7_RSt8optionalINS0_15EvaluationCacheEEmRKSS_INSt6chrono10time_pointINSW_3_V212steady_clockENSW_8durationIlSt5ratioILl1ELl1000000000EEEEEEEENKUlmmE_clEmm
FNDA:1676800,_ZZN4givp6detailL17neighborhood_flipIZNS0_3runIRZL22CATCH2_INTERNAL_TEST_6vEUlRKSt6vectorIdSaIdEEE_EENS_14OptimizeResultEOT_RKS3_ISt4pairIddESaISE_EENS_10GivpConfigEEUlS7_E_NS0_3RngEEESD_IdbERS5_dRKSB_SN_RT0_S7_S7_RSt8optionalINS0_15EvaluationCacheEEmRKSS_INSt6chrono10time_pointINSW_3_V212steady_clockENSW_8durationIlSt5ratioILl1ELl1000000000EEEEEEEENKUlmmE_clEmm
FNDA:2409600,_ZZN4givp6detailL17neighborhood_flipIZNS0_3runIRZL22CATCH2_INTERNAL_TEST_8vEUlRKSt6vectorIdSaIdEEE_EENS_14OptimizeResultEOT_RKS3_ISt4pairIddESaISE_EENS_10GivpConfigEEUlS7_E_NS0_3RngEEESD_IdbERS5_dRKSB_SN_RT0_S7_S7_RSt8optionalINS0_15EvaluationCacheEEmRKSS_INSt6chrono10time_pointINSW_3_V212steady_clockENSW_8durationIlSt5ratioILl1ELl1000000000EEEEEEEENKUlmmE_clEmm
FNDA:0,_ZZN4givp6detailL17neighborhood_flipIZNS0_3runIRZL23CATCH2_INTERNAL_TEST_12vEUlRKSt6vectorIdSaIdEEE_EENS_14OptimizeResultEOT_RKS3_ISt4pairIddESaISE_EENS_10GivpConfigEEUlS7_E_NS0_3RngEEESD_IdbERS5_dRKSB_SN_RT0_S7_S7_RSt8optionalINS0_15EvaluationCacheEEmRKSS_INSt6chrono10time_pointINSW_3_V212steady_clockENSW_8durationIlSt5ratioILl1ELl1000000000EEEEEEEENKUlmmE_clEmm
FNDA:0,_ZZN4givp6detailL17neighborhood_flipIZNS0_3runIRZL23CATCH2_INTERNAL_TEST_14vEUlRKSt6vectorIdSaIdEEE_EENS_14OptimizeResultEOT_RKS3_ISt4pairIddESaISE_EENS_10GivpConfigEEUlS7_E_NS0_3RngEEESD_IdbERS5_dRKSB_SN_RT0_S7_S7_RSt8optionalINS0_15EvaluationCacheEEmRKSS_INSt6chrono10time_pointINSW_3_V212steady_clockENSW_8durationIlSt5ratioILl1ELl1000000000EEEEEEEENKUlmmE_clEmm
FNDA:0,_ZZN4givp6detailL17neighborhood_flipIZNS0_3runIRZL23CATCH2_INTERNAL_TEST_16vEUlRKSt6vectorIdSaIdEEE_EENS_14OptimizeResultEOT_RKS3_ISt4pairIddESaISE_EENS_10GivpConfigEEUlS7_E_NS0_3RngEEESD_IdbERS5_dRKSB_SN_RT0_S7_S7_RSt8optionalINS0_15EvaluationCacheEEmRKSS_INSt6chrono10time_pointINSW_3_V212steady_clockENSW_8durationIlSt5ratioILl1ELl1000000000EEEEEEEENKUlmmE_clEmm
FNDA:18480,_ZZN4givp6detailL17neighborhood_flipIZNS0_3runIRZL23CATCH2_INTERNAL_TEST_28vEUlRKSt6vectorIdSaIdEEE_EENS_14OptimizeResultEOT_RKS3_ISt4pairIddESaISE_EENS_10GivpConfigEEUlS7_E_NS0_3RngEEESD_IdbERS5_dRKSB_SN_RT0_S7_S7_RSt8optionalINS0_15EvaluationCacheEEmRKSS_INSt6chrono10time_pointINSW_3_V212steady_clockENSW_8durationIlSt5ratioILl1ELl1000000000EEEEEEEENKUlmmE_clEmm
FNDA:2820,_ZZN4givp6detailL17neighborhood_flipIZNS0_3runIRZL23CATCH2_INTERNAL_TEST_42vEUlRKSt6vectorIdSaIdEEE_EENS_14OptimizeResultEOT_RKS3_ISt4pairIddESaISE_EENS_10GivpConfigEEUlS7_E_NS0_3RngEEESD_IdbERS5_dRKSB_SN_RT0_S7_S7_RSt8optionalINS0_15EvaluationCacheEEmRKSS_INSt6chrono10time_pointINSW_3_V212steady_clockENSW_8durationIlSt5ratioILl1ELl1000000000EEEEEEEENKUlmmE_clEmm
FNDA:3236,_ZZN4givp6detailL17neighborhood_flipIZNS0_3runIRZL23CATCH2_INTERNAL_TEST_44vEUlRKSt6vectorIdSaIdEEE_EENS_14OptimizeResultEOT_RKS3_ISt4pairIddESaISE_EENS_10GivpConfigEEUlS7_E_NS0_3RngEEESD_IdbERS5_dRKSB_SN_RT0_S7_S7_RSt8optionalINS0_15EvaluationCacheEEmRKSS_INSt6chrono10time_pointINSW_3_V212steady_clockENSW_8durationIlSt5ratioILl1ELl1000000000EEEEEEEENKUlmmE_clEmm
FNDA:0,_ZZN4givp6detailL17neighborhood_flipIZNS0_3runIZL23CATCH2_INTERNAL_TEST_16vEUlRKSt6vectorIdSaIdEEE_EENS_14OptimizeResultEOT_RKS3_ISt4pairIddESaISD_EENS_10GivpConfigEEUlS7_E_NS0_3RngEEESC_IdbERS5_dRKSA_SM_RT0_S7_S7_RSt8optionalINS0_15EvaluationCacheEEmRKSR_INSt6chrono10time_pointINSV_3_V212steady_clockENSV_8durationIlSt5ratioILl1ELl1000000000EEEEEEEENKUlmmE_clEmm
FNDA:0,_ZZN4givp6detailL17neighborhood_flipIZNS0_3runIZL23CATCH2_INTERNAL_TEST_18vEUlRKSt6vectorIdSaIdEEE_EENS_14OptimizeResultEOT_RKS3_ISt4pairIddESaISD_EENS_10GivpConfigEEUlS7_E_NS0_3RngEEESC_IdbERS5_dRKSA_SM_RT0_S7_S7_RSt8optionalINS0_15EvaluationCacheEEmRKSR_INSt6chrono10time_pointINSV_3_V212steady_clockENSV_8durationIlSt5ratioILl1ELl1000000000EEEEEEEENKUlmmE_clEmm
FNDA:0,_ZZN4givp6detailL17neighborhood_flipIZNS0_3runIZL23CATCH2_INTERNAL_TEST_20vEUlRKSt6vectorIdSaIdEEE_EENS_14OptimizeResultEOT_RKS3_ISt4pairIddESaISD_EENS_10GivpConfigEEUlS7_E_NS0_3RngEEESC_IdbERS5_dRKSA_SM_RT0_S7_S7_RSt8optionalINS0_15EvaluationCacheEEmRKSR_INSt6chrono10time_pointINSV_3_V212steady_clockENSV_8durationIlSt5ratioILl1ELl1000000000EEEEEEEENKUlmmE_clEmm
FNDA:0,_ZZN4givp6detailL17neighborhood_flipIZNS0_3runIZL23CATCH2_INTERNAL_TEST_22vEUlRKSt6vectorIdSaIdEEE_EENS_14OptimizeResultEOT_RKS3_ISt4pairIddESaISD_EENS_10GivpConfigEEUlS7_E_NS0_3RngEEESC_IdbERS5_dRKSA_SM_RT0_S7_S7_RSt8optionalINS0_15EvaluationCacheEEmRKSR_INSt6chrono10time_pointINSV_3_V212steady_clockENSV_8durationIlSt5ratioILl1ELl1000000000EEEEEEEENKUlmmE_clEmm
FNDA:0,_ZZN4givp6detailL17neighborhood_flipIZNS0_3runIZL23CATCH2_INTERNAL_TEST_24vEUlRKSt6vectorIdSaIdEEE_EENS_14OptimizeResultEOT_RKS3_ISt4pairIddESaISD_EENS_10GivpConfigEEUlS7_E_NS0_3RngEEESC_IdbERS5_dRKSA_SM_RT0_S7_S7_RSt8optionalINS0_15EvaluationCacheEEmRKSR_INSt6chrono10time_pointINSV_3_V212steady_clockENSV_8durationIlSt5ratioILl1ELl1000000000EEEEEEEENKUlmmE_clEmm
FNF:99
FNH:52
DA:20,2111600
DA:26,2111600
DA:27,2111600
DA:28,2111600
DA:30,8446400
DA:31,6334800
DA:32,6334800
DA:33,3157540
DA:34,3157540
DA:35,3157540
DA:36,3157540
DA:37,3560
DA:38,3560
DA:40,3153980
DA:43,2111600
DA:47,22582920
DA:53,22582920
DA:54,22582920
DA:55,22582920
DA:56,22582920
DA:57,22582920
DA:58,22582920
DA:59,22582920
DA:60,22324159
DA:61,22324159
DA:65,690291422
DA:71,690291422
DA:72,81551848
DA:73,81551848
DA:74,81551848
DA:75,81551848
DA:77,608739574
DA:78,608739574
DA:79,608739574
DA:81,690291422
DA:86,4788128
DA:93,4788128
DA:94,4788128
DA:95,4788128
DA:96,4788128
DA:97,54227616
DA:98,6056
DA:101,4788128
DA:102,4788128
DA:104,29482648
DA:105,24694520
DA:106,24694520
DA:108,24694520
DA:110,22582920
DA:112,24694520
DA:113,262321
DA:114,262321
DA:115,262321
DA:118,9576256
DA:119,4788128
DA:122,4566614
DA:129,4566614
DA:130,4566614
DA:131,4566614
DA:132,4566614
DA:134,50393940
DA:135,45827328
DA:136,45827326
DA:137,45827326
DA:138,45827326
DA:139,38409410
DA:140,38409410
DA:141,38409410
DA:142,38409410
DA:143,38409410
DA:144,38409410
DA:145,23109
DA:146,23109
DA:148,38386301
DA:149,38386301
DA:152,4566614
DA:156,4456866
DA:163,4456866
DA:164,4456866
DA:165,4456866
DA:166,4456866
DA:168,227300000
DA:169,222843138
DA:170,222843134
DA:171,222843134
DA:172,222843134
DA:174,836315736
DA:175,613472602
DA:176,613472602
DA:178,836315736
DA:179,613472602
DA:180,222843134
DA:181,222843134
DA:182,222843134
DA:183,17070
DA:184,17070
DA:186,222826064
DA:189,4456866
DA:195,25017
DA:204,25017
DA:205,25017
DA:206,25017
DA:207,25017
DA:208,25017
DA:210,4813145
DA:211,4788132
DA:214,29482648
DA:217,4788128
DA:220,4788128
DA:222,4788128
DA:223,4566614
DA:225,4566614
DA:228,4566614
DA:230,4566614
DA:232,4456866
DA:235,4456866
DA:240,25017
DA:241,25017
LF:118
LH:118
end_of_record
TN:
SF:/workspace/cpp/include/givp/exceptions.hpp
FN:15,15,_ZN4givp9GivpErrorC2ERKNSt7__cxx1112basic_stringIcSt11char_traitsIcESaIcEEE
FN:21,21,_ZN4givp13InvalidBoundsC2ERKNSt7__cxx1112basic_stringIcSt11char_traitsIcESaIcEEE
FN:27,28,_ZN4givp19InvalidInitialGuessC2ERKNSt7__cxx1112basic_stringIcSt11char_traitsIcESaIcEEE
FN:34,34,_ZN4givp13InvalidConfigC2ERKNSt7__cxx1112basic_stringIcSt11char_traitsIcESaIcEEE
FN:46,46,_ZN4givp9EmptyPoolC2ERKNSt7__cxx1112basic_stringIcSt11char_traitsIcESaIcEEE
FNDA:72,_ZN4givp9GivpErrorC2ERKNSt7__cxx1112basic_stringIcSt11char_traitsIcESaIcEEE
FNDA:12,_ZN4givp13InvalidBoundsC2ERKNSt7__cxx1112basic_stringIcSt11char_traitsIcESaIcEEE
FNDA:8,_ZN4givp19InvalidInitialGuessC2ERKNSt7__cxx1112basic_stringIcSt11char_traitsIcESaIcEEE
FNDA:48,_ZN4givp13InvalidConfigC2ERKNSt7__cxx1112basic_stringIcSt11char_traitsIcESaIcEEE
FNDA:4,_ZN4givp9EmptyPoolC2ERKNSt7__cxx1112basic_stringIcSt11char_traitsIcESaIcEEE
FNF:5
FNH:5
DA:15,72
DA:21,12
DA:27,8
DA:28,8
DA:34,48
DA:46,4
LF:6
LH:6
end_of_record
TN:
SF:/workspace/cpp/include/givp/givp.hpp
FN:35,39,_ZN4givp4givpIRFdRKSt6vectorIdSaIdEEEEENS_14OptimizeResultEOT_RKS1_ISt4pairIddESaISC_EENS_10GivpConfigE
FN:35,39,_ZN4givp4givpIRZL22CATCH2_INTERNAL_TEST_6vEUlRKSt6vectorIdSaIdEEE_EENS_14OptimizeResultEOT_RKS1_ISt4pairIddESaISC_EENS_10GivpConfigE
FN:35,39,_ZN4givp4givpIRZL22CATCH2_INTERNAL_TEST_8vEUlRKSt6vectorIdSaIdEEE_EENS_14OptimizeResultEOT_RKS1_ISt4pairIddESaISC_EENS_10GivpConfigE
FN:35,39,_ZN4givp4givpIRZL23CATCH2_INTERNAL_TEST_12vEUlRKSt6vectorIdSaIdEEE_EENS_14OptimizeResultEOT_RKS1_ISt4pairIddESaISC_EENS_10GivpConfigE
FN:35,39,_ZN4givp4givpIRZL23CATCH2_INTERNAL_TEST_14vEUlRKSt6vectorIdSaIdEEE_EENS_14OptimizeResultEOT_RKS1_ISt4pairIddESaISC_EENS_10GivpConfigE
FN:35,39,_ZN4givp4givpIRZL23CATCH2_INTERNAL_TEST_16vEUlRKSt6vectorIdSaIdEEE_EENS_14OptimizeResultEOT_RKS1_ISt4pairIddESaISC_EENS_10GivpConfigE
FN:35,39,_ZN4givp4givpIRZL23CATCH2_INTERNAL_TEST_28vEUlRKSt6vectorIdSaIdEEE_EENS_14OptimizeResultEOT_RKS1_ISt4pairIddESaISC_EENS_10GivpConfigE
FN:35,39,_ZN4givp4givpIRZL23CATCH2_INTERNAL_TEST_42vEUlRKSt6vectorIdSaIdEEE_EENS_14OptimizeResultEOT_RKS1_ISt4pairIddESaISC_EENS_10GivpConfigE
FN:35,39,_ZN4givp4givpIRZL23CATCH2_INTERNAL_TEST_44vEUlRKSt6vectorIdSaIdEEE_EENS_14OptimizeResultEOT_RKS1_ISt4pairIddESaISC_EENS_10GivpConfigE
FN:35,39,_ZN4givp4givpIZL23CATCH2_INTERNAL_TEST_16vEUlRKSt6vectorIdSaIdEEE_EENS_14OptimizeResultEOT_RKS1_ISt4pairIddESaISB_EENS_10GivpConfigE
FN:35,39,_ZN4givp4givpIZL23CATCH2_INTERNAL_TEST_18vEUlRKSt6vectorIdSaIdEEE_EENS_14OptimizeResultEOT_RKS1_ISt4pairIddESaISB_EENS_10GivpConfigE
FN:35,39,_ZN4givp4givpIZL23CATCH2_INTERNAL_TEST_20vEUlRKSt6vectorIdSaIdEEE_EENS_14OptimizeResultEOT_RKS1_ISt4pairIddESaISB_EENS_10GivpConfigE
FN:35,39,_ZN4givp4givpIZL23CATCH2_INTERNAL_TEST_22vEUlRKSt6vectorIdSaIdEEE_EENS_14OptimizeResultEOT_RKS1_ISt4pairIddESaISB_EENS_10GivpConfigE
FN:35,39,_ZN4givp4givpIZL23CATCH2_INTERNAL_TEST_24vEUlRKSt6vectorIdSaIdEEE_EENS_14OptimizeResultEOT_RKS1_ISt4pairIddESaISB_EENS_10GivpConfigE
FNDA:64,_ZN4givp4givpIRFdRKSt6vectorIdSaIdEEEEENS_14OptimizeResultEOT_RKS1_ISt4pairIddESaISC_EENS_10GivpConfigE
FNDA:4,_ZN4givp4givpIRZL22CATCH2_INTERNAL_TEST_6vEUlRKSt6vectorIdSaIdEEE_EENS_14OptimizeResultEOT_RKS1_ISt4pairIddESaISC_EENS_10GivpConfigE
FNDA:4,_ZN4givp4givpIRZL22CATCH2_INTERNAL_TEST_8vEUlRKSt6vectorIdSaIdEEE_EENS_14OptimizeResultEOT_RKS1_ISt4pairIddESaISC_EENS_10GivpConfigE
FNDA:4,_ZN4givp4givpIRZL23CATCH2_INTERNAL_TEST_12vEUlRKSt6vectorIdSaIdEEE_EENS_14OptimizeResultEOT_RKS1_ISt4pairIddESaISC_EENS_10GivpConfigE
FNDA:4,_ZN4givp4givpIRZL23CATCH2_INTERNAL_TEST_14vEUlRKSt6vectorIdSaIdEEE_EENS_14OptimizeResultEOT_RKS1_ISt4pairIddESaISC_EENS_10GivpConfigE
FNDA:4,_ZN4givp4givpIRZL23CATCH2_INTERNAL_TEST_16vEUlRKSt6vectorIdSaIdEEE_EENS_14OptimizeResultEOT_RKS1_ISt4pairIddESaISC_EENS_10GivpConfigE
FNDA:4,_ZN4givp4givpIRZL23CATCH2_INTERNAL_TEST_28vEUlRKSt6vectorIdSaIdEEE_EENS_14OptimizeResultEOT_RKS1_ISt4pairIddESaISC_EENS_10GivpConfigE
FNDA:4,_ZN4givp4givpIRZL23CATCH2_INTERNAL_TEST_42vEUlRKSt6vectorIdSaIdEEE_EENS_14OptimizeResultEOT_RKS1_ISt4pairIddESaISC_EENS_10GivpConfigE
FNDA:4,_ZN4givp4givpIRZL23CATCH2_INTERNAL_TEST_44vEUlRKSt6vectorIdSaIdEEE_EENS_14OptimizeResultEOT_RKS1_ISt4pairIddESaISC_EENS_10GivpConfigE
FNDA:4,_ZN4givp4givpIZL23CATCH2_INTERNAL_TEST_16vEUlRKSt6vectorIdSaIdEEE_EENS_14OptimizeResultEOT_RKS1_ISt4pairIddESaISB_EENS_10GivpConfigE
FNDA:4,_ZN4givp4givpIZL23CATCH2_INTERNAL_TEST_18vEUlRKSt6vectorIdSaIdEEE_EENS_14OptimizeResultEOT_RKS1_ISt4pairIddESaISB_EENS_10GivpConfigE
FNDA:4,_ZN4givp4givpIZL23CATCH2_INTERNAL_TEST_20vEUlRKSt6vectorIdSaIdEEE_EENS_14OptimizeResultEOT_RKS1_ISt4pairIddESaISB_EENS_10GivpConfigE
FNDA:4,_ZN4givp4givpIZL23CATCH2_INTERNAL_TEST_22vEUlRKSt6vectorIdSaIdEEE_EENS_14OptimizeResultEOT_RKS1_ISt4pairIddESaISB_EENS_10GivpConfigE
FNDA:4,_ZN4givp4givpIZL23CATCH2_INTERNAL_TEST_24vEUlRKSt6vectorIdSaIdEEE_EENS_14OptimizeResultEOT_RKS1_ISt4pairIddESaISB_EENS_10GivpConfigE
FNF:14
FNH:14
DA:35,116
DA:38,116
LF:2
LH:2
end_of_record
TN:
SF:/workspace/cpp/include/givp/result.hpp
FN:25,45,_ZN4givp24termination_from_messageERKNSt7__cxx1112basic_stringIcSt11char_traitsIcESaIcEEE
FNDA:120,_ZN4givp24termination_from_messageERKNSt7__cxx1112basic_stringIcSt11char_traitsIcESaIcEEE
FNF:1
FNH:1
DA:25,120
DA:26,120
DA:27,2628
DA:28,2508
DA:29,2508
DA:31,120
DA:32,4
DA:33,212
DA:34,96
DA:35,96
DA:36,20
DA:37,8
DA:38,20
DA:39,8
DA:40,4
DA:41,12
DA:42,4
DA:43,4
DA:44,4
DA:45,120
LF:20
LH:20
end_of_record
TN:
SF:/workspace/cpp/tests/test_advanced.cpp
FN:106,121,_ZL22CATCH2_INTERNAL_TEST_8v
FN:110,110,_ZZL22CATCH2_INTERNAL_TEST_8vENKUlRKSt6vectorIdSaIdEEE_clES3_
FN:125,138,_ZL23CATCH2_INTERNAL_TEST_10v
FN:142,163,_ZL23CATCH2_INTERNAL_TEST_12v
FN:149,149,_ZZL23CATCH2_INTERNAL_TEST_12vENKUlRKSt6vectorIdSaIdEEE_clES3_
FN:167,177,_ZL23CATCH2_INTERNAL_TEST_14v
FN:181,194,_ZL23CATCH2_INTERNAL_TEST_16v
FN:198,213,_ZL23CATCH2_INTERNAL_TEST_18v
FN:217,223,_ZL23CATCH2_INTERNAL_TEST_20v
FN:225,231,_ZL23CATCH2_INTERNAL_TEST_22v
FN:23,27,_ZL6sphereRKSt6vectorIdSaIdEE
FN:235,251,_ZL23CATCH2_INTERNAL_TEST_24v
FN:255,270,_ZL23CATCH2_INTERNAL_TEST_26v
FN:274,288,_ZL23CATCH2_INTERNAL_TEST_28v
FN:277,277,_ZZL23CATCH2_INTERNAL_TEST_28vENKUlRKSt6vectorIdSaIdEEE_clES3_
FN:29,35,_ZL9rastriginRKSt6vectorIdSaIdEE
FN:39,57,_ZL22CATCH2_INTERNAL_TEST_0v
FN:59,71,_ZL22CATCH2_INTERNAL_TEST_2v
FN:73,85,_ZL22CATCH2_INTERNAL_TEST_4v
FN:89,102,_ZL22CATCH2_INTERNAL_TEST_6v
FN:92,92,_ZZL22CATCH2_INTERNAL_TEST_6vENKUlRKSt6vectorIdSaIdEEE_clES3_
FNDA:4,_ZL22CATCH2_INTERNAL_TEST_8v
FNDA:18476456,_ZZL22CATCH2_INTERNAL_TEST_8vENKUlRKSt6vectorIdSaIdEEE_clES3_
FNDA:4,_ZL23CATCH2_INTERNAL_TEST_10v
FNDA:4,_ZL23CATCH2_INTERNAL_TEST_12v
FNDA:4004,_ZZL23CATCH2_INTERNAL_TEST_12vENKUlRKSt6vectorIdSaIdEEE_clES3_
FNDA:4,_ZL23CATCH2_INTERNAL_TEST_14v
FNDA:4,_ZL23CATCH2_INTERNAL_TEST_16v
FNDA:4,_ZL23CATCH2_INTERNAL_TEST_18v
FNDA:4,_ZL23CATCH2_INTERNAL_TEST_20v
FNDA:4,_ZL23CATCH2_INTERNAL_TEST_22v
FNDA:44270329,_ZL6sphereRKSt6vectorIdSaIdEE
FNDA:4,_ZL23CATCH2_INTERNAL_TEST_24v
FNDA:4,_ZL23CATCH2_INTERNAL_TEST_26v
FNDA:4,_ZL23CATCH2_INTERNAL_TEST_28v
FNDA:118716,_ZZL23CATCH2_INTERNAL_TEST_28vENKUlRKSt6vectorIdSaIdEEE_clES3_
FNDA:43993084,_ZL9rastriginRKSt6vectorIdSaIdEE
FNDA:4,_ZL22CATCH2_INTERNAL_TEST_0v
FNDA:4,_ZL22CATCH2_INTERNAL_TEST_2v
FNDA:4,_ZL22CATCH2_INTERNAL_TEST_4v
FNDA:4,_ZL22CATCH2_INTERNAL_TEST_6v
FNDA:12856836,_ZZL22CATCH2_INTERNAL_TEST_6vENKUlRKSt6vectorIdSaIdEEE_clES3_
FNF:21
FNH:21
DA:23,44270329
DA:24,44270329
DA:25,250693568
DA:26,44270329
DA:29,43993084
DA:30,43993084
DA:31,43993084
DA:32,43993084
DA:33,820080484
DA:34,43993084
DA:39,4
DA:44,8
DA:45,4
DA:46,4
DA:47,4
DA:48,4
DA:50,4
DA:52,4
DA:53,4
DA:55,4
DA:56,4
DA:57,4
DA:59,4
DA:60,4
DA:61,4
DA:62,4
DA:63,4
DA:64,4
DA:66,4
DA:67,4
DA:68,20
DA:69,16
DA:71,4
DA:73,4
DA:77,8
DA:78,4
DA:79,4
DA:80,4
DA:81,4
DA:82,8
DA:84,4
DA:85,4
DA:89,4
DA:92,12856836
DA:93,4
DA:94,4
DA:95,4
DA:96,4
DA:97,4
DA:98,4
DA:99,4
DA:101,4
DA:102,4
DA:106,4
DA:110,18476456
DA:111,4
DA:112,4
DA:113,4
DA:114,4
DA:115,4
DA:116,4
DA:117,4
DA:118,4
DA:120,4
DA:121,4
DA:125,4
DA:128,4
DA:129,4
DA:130,4
DA:131,4
DA:132,4
DA:133,4
DA:134,4
DA:135,4
DA:137,4
DA:138,4
DA:142,4
DA:149,4004
DA:151,4
DA:152,4
DA:153,4
DA:154,4
DA:155,4
DA:156,4
DA:157,4
DA:158,4
DA:159,4
DA:160,4
DA:162,4
DA:163,4
DA:167,4
DA:170,4
DA:171,4
DA:173,4
DA:174,4
DA:176,4
DA:177,4
DA:181,4
DA:184,4
DA:185,4
DA:186,4
DA:187,4
DA:188,4
DA:189,4
DA:190,4
DA:192,4
DA:193,4
DA:194,4
DA:198,4
DA:206,8
DA:207,4
DA:208,4
DA:209,4
DA:210,4
DA:212,4
DA:213,4
DA:217,4
DA:218,4
DA:219,4
DA:220,4
DA:221,4
DA:222,4
DA:223,4
DA:225,4
DA:226,4
DA:227,4
DA:228,4
DA:229,4
DA:230,4
DA:231,4
DA:235,4
DA:240,4
DA:241,4
DA:242,4
DA:243,4
DA:244,4
DA:245,4
DA:246,4
DA:247,4
DA:248,4
DA:250,4
DA:251,4
DA:255,4
DA:259,4
DA:260,4
DA:261,4
DA:262,4
DA:263,4
DA:264,4
DA:265,4
DA:266,4
DA:267,4
DA:269,4
DA:270,4
DA:274,4
DA:277,118716
DA:278,4
DA:279,4
DA:280,4
DA:281,4
DA:282,4
DA:283,4
DA:284,4
DA:285,4
DA:287,4
DA:288,4
LF:166
LH:166
end_of_record
TN:
SF:/workspace/cpp/tests/test_basic.cpp
FN:103,113,_ZL22CATCH2_INTERNAL_TEST_8v
FN:115,129,_ZL23CATCH2_INTERNAL_TEST_10v
FN:13,19,_ZL6sphereRKSt6vectorIdSaIdEE
FN:131,144,_ZL23CATCH2_INTERNAL_TEST_12v
FN:146,161,_ZL23CATCH2_INTERNAL_TEST_14v
FN:148,153,_ZZL23CATCH2_INTERNAL_TEST_14vENKUlRKSt6vectorIdSaIdEEE_clES3_
FN:163,178,_ZL23CATCH2_INTERNAL_TEST_16v
FN:165,170,_ZZL23CATCH2_INTERNAL_TEST_16vENKUlRKSt6vectorIdSaIdEEE_clES3_
FN:21,28,_ZL10rosenbrockRKSt6vectorIdSaIdEE
FN:30,38,_ZL9rastriginRKSt6vectorIdSaIdEE
FN:42,56,_ZL22CATCH2_INTERNAL_TEST_0v
FN:58,70,_ZL22CATCH2_INTERNAL_TEST_2v
FN:72,84,_ZL22CATCH2_INTERNAL_TEST_4v
FN:86,101,_ZL22CATCH2_INTERNAL_TEST_6v
FNDA:4,_ZL22CATCH2_INTERNAL_TEST_8v
FNDA:4,_ZL23CATCH2_INTERNAL_TEST_10v
FNDA:55003849,_ZL6sphereRKSt6vectorIdSaIdEE
FNDA:4,_ZL23CATCH2_INTERNAL_TEST_12v
FNDA:4,_ZL23CATCH2_INTERNAL_TEST_14v
FNDA:27596,_ZZL23CATCH2_INTERNAL_TEST_14vENKUlRKSt6vectorIdSaIdEEE_clES3_
FNDA:4,_ZL23CATCH2_INTERNAL_TEST_16v
FNDA:20904,_ZZL23CATCH2_INTERNAL_TEST_16vENKUlRKSt6vectorIdSaIdEEE_clES3_
FNDA:42933344,_ZL10rosenbrockRKSt6vectorIdSaIdEE
FNDA:14518536,_ZL9rastriginRKSt6vectorIdSaIdEE
FNDA:4,_ZL22CATCH2_INTERNAL_TEST_0v
FNDA:4,_ZL22CATCH2_INTERNAL_TEST_2v
FNDA:4,_ZL22CATCH2_INTERNAL_TEST_4v
FNDA:4,_ZL22CATCH2_INTERNAL_TEST_6v
FNF:14
FNH:14
DA:13,55003849
DA:15,55003849
DA:16,273593767
DA:17,218589918
DA:18,55003849
DA:21,42933344
DA:23,42933344
DA:24,214666720
DA:25,171733376
DA:26,171733376
DA:27,42933344
DA:30,14518536
DA:32,14518536
DA:33,14518536
DA:34,14518536
DA:35,58074144
DA:36,43555608
DA:37,14518536
DA:42,4
DA:44,4
DA:45,4
DA:46,4
DA:47,4
DA:48,4
DA:50,4
DA:52,4
DA:53,4
DA:54,4
DA:55,4
DA:56,4
DA:58,4
DA:60,4
DA:61,4
DA:62,4
DA:63,4
DA:64,4
DA:66,4
DA:68,4
DA:69,4
DA:70,4
DA:72,4
DA:74,4
DA:75,4
DA:76,4
DA:77,4
DA:78,4
DA:80,4
DA:82,4
DA:83,4
DA:84,4
DA:86,4
DA:89,4
DA:90,4
DA:91,4
DA:92,4
DA:93,4
DA:94,4
DA:96,4
DA:98,4
DA:99,4
DA:100,4
DA:101,4
DA:103,4
DA:105,4
DA:106,4
DA:107,4
DA:108,4
DA:109,4
DA:110,8
DA:112,4
DA:113,4
DA:115,4
DA:117,4
DA:118,4
DA:119,4
DA:120,4
DA:121,4
DA:122,4
DA:124,4
DA:125,4
DA:127,4
DA:128,4
DA:129,4
DA:131,4
DA:133,4
DA:134,4
DA:135,4
DA:136,4
DA:137,4
DA:138,4
DA:140,4
DA:141,4
DA:142,4
DA:143,4
DA:144,4
DA:146,4
DA:148,27596
DA:150,27596
DA:151,20000
DA:152,7596
DA:154,4
DA:155,4
DA:156,4
DA:157,4
DA:158,4
DA:160,4
DA:161,4
DA:163,4
DA:165,20904
DA:167,20904
DA:168,6720
DA:169,14184
DA:171,4
DA:172,4
DA:173,4
DA:174,4
DA:175,4
DA:177,4
DA:178,4
LF:119
LH:119
end_of_record
TN:
SF:/workspace/cpp/tests/test_config.cpp
FN:104,117,_ZL23CATCH2_INTERNAL_TEST_26v
FN:12,14,_ZL22CATCH2_INTERNAL_TEST_0v
FN:16,20,_ZL22CATCH2_INTERNAL_TEST_2v
FN:22,26,_ZL22CATCH2_INTERNAL_TEST_4v
FN:28,32,_ZL22CATCH2_INTERNAL_TEST_6v
FN:34,38,_ZL22CATCH2_INTERNAL_TEST_8v
FN:40,44,_ZL23CATCH2_INTERNAL_TEST_10v
FN:46,52,_ZL23CATCH2_INTERNAL_TEST_12v
FN:54,59,_ZL23CATCH2_INTERNAL_TEST_14v
FN:63,67,_ZL23CATCH2_INTERNAL_TEST_16v
FN:64,64,_ZZL23CATCH2_INTERNAL_TEST_16vENKUlRKSt6vectorIdSaIdEEE_clES3_
FN:69,74,_ZL23CATCH2_INTERNAL_TEST_18v
FN:71,71,_ZZL23CATCH2_INTERNAL_TEST_18vENKUlRKSt6vectorIdSaIdEEE_clES3_
FN:76,82,_ZL23CATCH2_INTERNAL_TEST_20v
FN:79,79,_ZZL23CATCH2_INTERNAL_TEST_20vENKUlRKSt6vectorIdSaIdEEE_clES3_
FN:84,91,_ZL23CATCH2_INTERNAL_TEST_22v
FN:88,88,_ZZL23CATCH2_INTERNAL_TEST_22vENKUlRKSt6vectorIdSaIdEEE_clES3_
FN:93,100,_ZL23CATCH2_INTERNAL_TEST_24v
FN:97,97,_ZZL23CATCH2_INTERNAL_TEST_24vENKUlRKSt6vectorIdSaIdEEE_clES3_
FNDA:4,_ZL23CATCH2_INTERNAL_TEST_26v
FNDA:4,_ZL22CATCH2_INTERNAL_TEST_0v
FNDA:4,_ZL22CATCH2_INTERNAL_TEST_2v
FNDA:4,_ZL22CATCH2_INTERNAL_TEST_4v
FNDA:4,_ZL22CATCH2_INTERNAL_TEST_6v
FNDA:4,_ZL22CATCH2_INTERNAL_TEST_8v
FNDA:4,_ZL23CATCH2_INTERNAL_TEST_10v
FNDA:4,_ZL23CATCH2_INTERNAL_TEST_12v
FNDA:4,_ZL23CATCH2_INTERNAL_TEST_14v
FNDA:4,_ZL23CATCH2_INTERNAL_TEST_16v
FNDA:0,_ZZL23CATCH2_INTERNAL_TEST_16vENKUlRKSt6vectorIdSaIdEEE_clES3_
FNDA:4,_ZL23CATCH2_INTERNAL_TEST_18v
FNDA:0,_ZZL23CATCH2_INTERNAL_TEST_18vENKUlRKSt6vectorIdSaIdEEE_clES3_
FNDA:4,_ZL23CATCH2_INTERNAL_TEST_20v
FNDA:0,_ZZL23CATCH2_INTERNAL_TEST_20vENKUlRKSt6vectorIdSaIdEEE_clES3_
FNDA:4,_ZL23CATCH2_INTERNAL_TEST_22v
FNDA:0,_ZZL23CATCH2_INTERNAL_TEST_22vENKUlRKSt6vectorIdSaIdEEE_clES3_
FNDA:4,_ZL23CATCH2_INTERNAL_TEST_24v
FNDA:0,_ZZL23CATCH2_INTERNAL_TEST_24vENKUlRKSt6vectorIdSaIdEEE_clES3_
FNF:19
FNH:14
DA:12,4
DA:13,4
DA:14,4
DA:16,4
DA:17,4
DA:18,4
DA:19,4
DA:20,4
DA:22,4
DA:23,4
DA:24,4
DA:25,4
DA:26,4
DA:28,4
DA:29,4
DA:30,4
DA:31,4
DA:32,4
DA:34,4
DA:35,4
DA:36,4
DA:37,4
DA:38,4
DA:40,4
DA:41,4
DA:42,4
DA:43,4
DA:44,4
DA:46,4
DA:47,4
DA:48,4
DA:49,4
DA:50,4
DA:51,4
DA:52,4
DA:54,4
DA:55,4
DA:56,4
DA:57,4
DA:58,4
DA:59,4
DA:63,4
DA:64,12
DA:67,4
DA:69,4
DA:70,8
DA:71,8
DA:74,4
DA:76,4
DA:77,4
DA:78,8
DA:79,8
DA:82,4
DA:84,4
DA:85,4
DA:86,4
DA:87,8
DA:88,8
DA:91,4
DA:93,4
DA:94,4
DA:95,4
DA:96,8
DA:97,8
DA:100,4
DA:104,4
DA:105,12
DA:107,12
DA:109,12
DA:111,12
DA:113,12
DA:115,12
DA:117,4
LF:73
LH:73
end_of_record
TN:
SF:/workspace/cpp/tests/test_convergence.cpp
FN:102,108,_ZL23CATCH2_INTERNAL_TEST_18v
FN:110,115,_ZL23CATCH2_INTERNAL_TEST_20v
FN:117,126,_ZL23CATCH2_INTERNAL_TEST_22v
FN:128,135,_ZL23CATCH2_INTERNAL_TEST_24v
FN:137,142,_ZL23CATCH2_INTERNAL_TEST_26v
FN:146,151,_ZL23CATCH2_INTERNAL_TEST_28v
FN:153,158,_ZL23CATCH2_INTERNAL_TEST_30v
FN:160,167,_ZL23CATCH2_INTERNAL_TEST_32v
FN:169,175,_ZL23CATCH2_INTERNAL_TEST_34v
FN:177,184,_ZL23CATCH2_INTERNAL_TEST_36v
FN:188,227,_ZL23CATCH2_INTERNAL_TEST_38v
FN:213,217,_ZZL23CATCH2_INTERNAL_TEST_38vENKUlRKSt6vectorIdSaIdEEE_clES3_
FN:229,246,_ZL23CATCH2_INTERNAL_TEST_40v
FN:232,236,_ZZL23CATCH2_INTERNAL_TEST_40vENKUlRKSt6vectorIdSaIdEEE_clES3_
FN:24,31,_ZL22CATCH2_INTERNAL_TEST_0v
FN:250,272,_ZL23CATCH2_INTERNAL_TEST_42v
FN:256,258,_ZZL23CATCH2_INTERNAL_TEST_42vENKUlRKSt6vectorIdSaIdEEE_clES3_
FN:276,301,_ZL23CATCH2_INTERNAL_TEST_44v
FN:280,284,_ZZL23CATCH2_INTERNAL_TEST_44vENKUlRKSt6vectorIdSaIdEEE_clES3_
FN:33,37,_ZL22CATCH2_INTERNAL_TEST_2v
FN:39,46,_ZL22CATCH2_INTERNAL_TEST_4v
FN:48,58,_ZL22CATCH2_INTERNAL_TEST_6v
FN:60,69,_ZL22CATCH2_INTERNAL_TEST_8v
FN:71,78,_ZL23CATCH2_INTERNAL_TEST_10v
FN:80,86,_ZL23CATCH2_INTERNAL_TEST_12v
FN:90,93,_ZL23CATCH2_INTERNAL_TEST_14v
FN:95,100,_ZL23CATCH2_INTERNAL_TEST_16v
FNDA:4,_ZL23CATCH2_INTERNAL_TEST_18v
FNDA:4,_ZL23CATCH2_INTERNAL_TEST_20v
FNDA:4,_ZL23CATCH2_INTERNAL_TEST_22v
FNDA:4,_ZL23CATCH2_INTERNAL_TEST_24v
FNDA:4,_ZL23CATCH2_INTERNAL_TEST_26v
FNDA:4,_ZL23CATCH2_INTERNAL_TEST_28v
FNDA:4,_ZL23CATCH2_INTERNAL_TEST_30v
FNDA:4,_ZL23CATCH2_INTERNAL_TEST_32v
FNDA:4,_ZL23CATCH2_INTERNAL_TEST_34v
FNDA:4,_ZL23CATCH2_INTERNAL_TEST_36v
FNDA:4,_ZL23CATCH2_INTERNAL_TEST_38v
FNDA:88,_ZZL23CATCH2_INTERNAL_TEST_38vENKUlRKSt6vectorIdSaIdEEE_clES3_
FNDA:4,_ZL23CATCH2_INTERNAL_TEST_40v
FNDA:8,_ZZL23CATCH2_INTERNAL_TEST_40vENKUlRKSt6vectorIdSaIdEEE_clES3_
FNDA:4,_ZL22CATCH2_INTERNAL_TEST_0v
FNDA:4,_ZL23CATCH2_INTERNAL_TEST_42v
FNDA:16060,_ZZL23CATCH2_INTERNAL_TEST_42vENKUlRKSt6vectorIdSaIdEEE_clES3_
FNDA:4,_ZL23CATCH2_INTERNAL_TEST_44v
FNDA:4288,_ZZL23CATCH2_INTERNAL_TEST_44vENKUlRKSt6vectorIdSaIdEEE_clES3_
FNDA:4,_ZL22CATCH2_INTERNAL_TEST_2v
FNDA:4,_ZL22CATCH2_INTERNAL_TEST_4v
FNDA:4,_ZL22CATCH2_INTERNAL_TEST_6v
FNDA:4,_ZL22CATCH2_INTERNAL_TEST_8v
FNDA:4,_ZL23CATCH2_INTERNAL_TEST_10v
FNDA:4,_ZL23CATCH2_INTERNAL_TEST_12v
FNDA:4,_ZL23CATCH2_INTERNAL_TEST_14v
FNDA:4,_ZL23CATCH2_INTERNAL_TEST_16v
FNF:27
FNH:27
DA:24,4
DA:25,4
DA:26,4
DA:27,4
DA:28,4
DA:29,4
DA:30,4
DA:31,4
DA:33,4
DA:34,4
DA:35,8
DA:36,4
DA:37,4
DA:39,4
DA:40,4
DA:41,8
DA:42,4
DA:43,4
DA:44,4
DA:45,4
DA:46,4
DA:48,4
DA:51,4
DA:52,8
DA:53,4
DA:54,4
DA:55,4
DA:56,4
DA:57,4
DA:58,4
DA:60,4
DA:61,4
DA:62,8
DA:63,4
DA:64,4
DA:65,8
DA:66,4
DA:67,4
DA:68,4
DA:69,4
DA:71,4
DA:72,4
DA:73,8
DA:74,8
DA:75,8
DA:76,12
DA:77,12
DA:78,4
DA:80,4
DA:81,4
DA:82,8
DA:83,4
DA:84,12
DA:85,4
DA:86,4
DA:90,4
DA:91,16
DA:92,4
DA:93,4
DA:95,4
DA:96,16
DA:97,12
DA:98,12
DA:99,4
DA:100,4
DA:102,4
DA:103,16
DA:104,8
DA:105,8
DA:106,4
DA:107,4
DA:108,4
DA:110,4
DA:111,16
DA:112,8
DA:114,12
DA:115,4
DA:117,4
DA:118,16
DA:119,8
DA:120,8
DA:121,8
DA:122,4
DA:123,4
DA:124,4
DA:125,4
DA:126,4
DA:128,4
DA:129,16
DA:130,8
DA:131,8
DA:132,8
DA:133,4
DA:134,4
DA:135,4
DA:137,4
DA:138,16
DA:139,8
DA:140,4
DA:141,4
DA:142,4
DA:146,4
DA:147,4
DA:148,4
DA:149,4
DA:150,4
DA:151,4
DA:153,4
DA:154,4
DA:155,4
DA:156,4
DA:157,4
DA:158,4
DA:160,4
DA:161,4
DA:162,4
DA:163,4
DA:164,4
DA:165,4
DA:166,4
DA:167,4
DA:169,4
DA:170,4
DA:171,16
DA:172,8
DA:173,4
DA:174,4
DA:175,4
DA:177,4
DA:178,4
DA:179,4
DA:180,4
DA:181,4
DA:182,4
DA:183,4
DA:184,4
DA:188,4
DA:213,88
DA:214,88
DA:215,88
DA:216,88
DA:219,8
DA:220,8
DA:221,4
DA:222,4
DA:223,4
DA:225,4
DA:226,4
DA:227,4
DA:229,4
DA:232,8
DA:233,8
DA:234,32
DA:235,8
DA:237,8
DA:238,8
DA:239,4
DA:240,4
DA:242,4
DA:245,4
DA:246,4
DA:250,4
DA:256,16060
DA:257,16060
DA:259,4
DA:260,4
DA:261,4
DA:262,4
DA:263,4
DA:264,4
DA:265,4
DA:266,4
DA:267,4
DA:268,8
DA:270,4
DA:271,4
DA:272,4
DA:276,4
DA:280,4288
DA:281,4288
DA:282,25728
DA:283,4288
DA:285,4
DA:286,4
DA:287,4
DA:288,4
DA:289,4
DA:290,4
DA:291,4
DA:292,4
DA:293,4
DA:294,4
DA:295,4
DA:296,4
DA:300,4
DA:301,4
LF:196
LH:196
end_of_record
