TN:
SF:/usr/include/c++/13/bit
FN:195,237,_ZSt13__countl_zeroImEiT_
FN:365,369,_ZSt11__bit_widthImEiT_
FNDA:6004891,_ZSt13__countl_zeroImEiT_
FNDA:6004891,_ZSt11__bit_widthImEiT_
FNF:2
FNH:2
DA:195,6004891
DA:198,6004891
DA:200,6004891
DA:201,0
DA:203,6004891
DA:204,6004891
DA:205,6004891
DA:214,6004891
DA:215,6004891
DA:365,6004891
DA:367,6004891
DA:368,6004891
LF:12
LH:11
end_of_record
TN:
SF:/usr/include/c++/13/bits/alloc_traits.h
FNF:0
FNH:0
DA:482,850972128
DA:517,19588
DA:538,0
DA:542,0
DA:562,0
DA:574,284767424
DA:588,278629165
DA:661,12240
DA:675,6120
DA:722,0
DA:755,6637
DA:759,6637
DA:792,0
DA:948,9337
DA:949,1530
LF:15
LH:10
end_of_record
TN:
SF:/usr/include/c++/13/bits/allocated_ptr.h
FN:53,55,_ZNSt15__allocated_ptrISaISt23_Sp_counted_ptr_inplaceIN5Catch5Clara6Detail11BoundLambdaIZNS1_21makeCommandLineParserERNS1_10ConfigDataEEUlRKNSt7__cxx1112basic_stringIcSt11char_traitsIcESaIcEEEE0_EESaIvELN9__gnu_cxx12_Lock_policyE2EEEEC2ERSL_PSK_
FN:53,55,_ZNSt15__allocated_ptrISaISt23_Sp_counted_ptr_inplaceIN5Catch5Clara6Detail11BoundLambdaIZNS1_21makeCommandLineParserERNS1_10ConfigDataEEUlRKNSt7__cxx1112basic_stringIcSt11char_traitsIcESaIcEEEE1_EESaIvELN9__gnu_cxx12_Lock_policyE2EEEEC2ERSL_PSK_
FN:53,55,_ZNSt15__allocated_ptrISaISt23_Sp_counted_ptr_inplaceIN5Catch5Clara6Detail11BoundLambdaIZNS1_21makeCommandLineParserERNS1_10ConfigDataEEUlRKNSt7__cxx1112basic_stringIcSt11char_traitsIcESaIcEEEE2_EESaIvELN9__gnu_cxx12_Lock_policyE2EEEEC2ERSL_PSK_
FN:53,55,_ZNSt15__allocated_ptrISaISt23_Sp_counted_ptr_inplaceIN5Catch5Clara6Detail11BoundLambdaIZNS1_21makeCommandLineParserERNS1_10ConfigDataEEUlRKNSt7__cxx1112basic_stringIcSt11char_traitsIcESaIcEEEE3_EESaIvELN9__gnu_cxx12_Lock_policyE2EEEEC2ERSL_PSK_
FN:53,55,_ZNSt15__allocated_ptrISaISt23_Sp_counted_ptr_inplaceIN5Catch5Clara6Detail11BoundLambdaIZNS1_21makeCommandLineParserERNS1_10ConfigDataEEUlRKNSt7__cxx1112basic_stringIcSt11char_traitsIcESaIcEEEE4_EESaIvELN9__gnu_cxx12_Lock_policyE2EEEEC2ERSL_PSK_
FN:53,55,_ZNSt15__allocated_ptrISaISt23_Sp_counted_ptr_inplaceIN5Catch5Clara6Detail11BoundLambdaIZNS1_21makeCommandLineParserERNS1_10ConfigDataEEUlRKNSt7__cxx1112basic_stringIcSt11char_traitsIcESaIcEEEE5_EESaIvELN9__gnu_cxx12_Lock_policyE2EEEEC2ERSL_PSK_
FN:53,55,_ZNSt15__allocated_ptrISaISt23_Sp_counted_ptr_inplaceIN5Catch5Clara6Detail11BoundLambdaIZNS1_21makeCommandLineParserERNS1_10ConfigDataEEUlRKNSt7__cxx1112basic_stringIcSt11char_traitsIcESaIcEEEE7_EESaIvELN9__gnu_cxx12_Lock_policyE2EEEEC2ERSL_PSK_
FN:53,55,_ZNSt15__allocated_ptrISaISt23_Sp_counted_ptr_inplaceIN5Catch5Clara6Detail11BoundLambdaIZNS1_21makeCommandLineParserERNS1_10ConfigDataEEUlRKNSt7__cxx1112basic_stringIcSt11char_traitsIcESaIcEEEE8_EESaIvELN9__gnu_cxx12_Lock_policyE2EEEEC2ERSL_PSK_
FN:53,55,_ZNSt15__allocated_ptrISaISt23_Sp_counted_ptr_inplaceIN5Catch5Clara6Detail11BoundLambdaIZNS1_21makeCommandLineParserERNS1_10ConfigDataEEUlbE0_EESaIvELN9__gnu_cxx12_Lock_policyE2EEEEC2ERSD_PSC_
FN:53,55,_ZNSt15__allocated_ptrISaISt23_Sp_counted_ptr_inplaceIN5Catch5Clara6Detail11BoundLambdaIZNS1_21makeCommandLineParserERNS1_10ConfigDataEEUliE_EESaIvELN9__gnu_cxx12_Lock_policyE2EEEEC2ERSD_PSC_
FN:53,55,_ZNSt15__allocated_ptrISaISt23_Sp_counted_ptr_inplaceIN5Catch5Clara6Detail12BoundFlagRefESaIvELN9__gnu_cxx12_Lock_policyE2EEEEC2ERS9_PS8_
FN:53,55,_ZNSt15__allocated_ptrISaISt23_Sp_counted_ptr_inplaceIN5Catch5Clara6Detail13BoundValueRefINSt7__cxx1112basic_stringIcSt11char_traitsIcESaIcEEEEESaIvELN9__gnu_cxx12_Lock_policyE2EEEEC2ERSG_PSF_
FN:53,55,_ZNSt15__allocated_ptrISaISt23_Sp_counted_ptr_inplaceIN5Catch5Clara6Detail13BoundValueRefISt6vectorINSt7__cxx1112basic_stringIcSt11char_traitsIcESaIcEEESaISB_EEEESaIvELN9__gnu_cxx12_Lock_policyE2EEEEC2ERSJ_PSI_
FN:53,55,_ZNSt15__allocated_ptrISaISt23_Sp_counted_ptr_inplaceIN5Catch5Clara6Detail13BoundValueRefIdEESaIvELN9__gnu_cxx12_Lock_policyE2EEEEC2ERSA_PS9_
FN:53,55,_ZNSt15__allocated_ptrISaISt23_Sp_counted_ptr_inplaceIN5Catch5Clara6Detail13BoundValueRefIjEESaIvELN9__gnu_cxx12_Lock_policyE2EEEEC2ERSA_PS9_
FN:53,55,_ZNSt15__allocated_ptrISaISt23_Sp_counted_ptr_inplaceIN5Catch5Clara6Detail13BoundValueRefIlEESaIvELN9__gnu_cxx12_Lock_policyE2EEEEC2ERSA_PS9_
FN:53,55,_ZNSt15__allocated_ptrISaISt23_Sp_counted_ptr_inplaceIN5Catch5Clara6Detail15BoundFlagLambdaIZNS1_21makeCommandLineParserERNS1_10ConfigDataEEUlbE_EESaIvELN9__gnu_cxx12_Lock_policyE2EEEEC2ERSD_PSC_
FN:53,55,_ZNSt15__allocated_ptrISaISt23_Sp_counted_ptr_inplaceIN5Catch5Clara6Detail15BoundFlagLambdaIZNS2_4HelpC4ERbEUlbE_EESaIvELN9__gnu_cxx12_Lock_policyE2EEEEC2ERSD_PSC_
FN:53,55,_ZNSt15__allocated_ptrISaISt23_Sp_counted_ptr_inplaceIN5Catch5Clara6Detail15BoundManyLambdaIZNS1_21makeCommandLineParserERNS1_10ConfigDataEEUlRKNSt7__cxx1112basic_stringIcSt11char_traitsIcESaIcEEEE6_EESaIvELN9__gnu_cxx12_Lock_policyE2EEEEC2ERSL_PSK_
FN:53,55,_ZNSt15__allocated_ptrISaISt23_Sp_counted_ptr_inplaceIN5Catch5Clara6Detail15BoundManyLambdaIZNS1_21makeCommandLineParserERNS1_10ConfigDataEEUlRKNSt7__cxx1112basic_stringIcSt11char_traitsIcESaIcEEEE_EESaIvELN9__gnu_cxx12_Lock_policyE2EEEEC2ERSL_PSK_
FN:53,55,_ZNSt15__allocated_ptrISaISt23_Sp_counted_ptr_inplaceINSt7__cxx1112basic_stringIcSt11char_traitsIcESaIcEEESaIvELN9__gnu_cxx12_Lock_policyE2EEEEC2ERSB_PSA_
FN:53,55,_ZNSt15__allocated_ptrISaISt23_Sp_counted_ptr_inplaceINSt8__detail4_NFAINSt7__cxx1112regex_traitsIcEEEESaIvELN9__gnu_cxx12_Lock_policyE2EEEEC2ERSB_PSA_
FN:71,75,_ZNSt15__allocated_ptrISaISt23_Sp_counted_ptr_inplaceIN5Catch5Clara6Detail11BoundLambdaIZNS1_21makeCommandLineParserERNS1_10ConfigDataEEUlRKNSt7__cxx1112basic_stringIcSt11char_traitsIcESaIcEEEE0_EESaIvELN9__gnu_cxx12_Lock_policyE2EEEED2Ev
FN:71,75,_ZNSt15__allocated_ptrISaISt23_Sp_counted_ptr_inplaceIN5Catch5Clara6Detail11BoundLambdaIZNS1_21makeCommandLineParserERNS1_10ConfigDataEEUlRKNSt7__cxx1112basic_stringIcSt11char_traitsIcESaIcEEEE1_EESaIvELN9__gnu_cxx12_Lock_policyE2EEEED2Ev
FN:71,75,_ZNSt15__allocated_ptrISaISt23_Sp_counted_ptr_inplaceIN5Catch5Clara6Detail11BoundLambdaIZNS1_21makeCommandLineParserERNS1_10ConfigDataEEUlRKNSt7__cxx1112basic_stringIcSt11char_traitsIcESaIcEEEE2_EESaIvELN9__gnu_cxx12_Lock_policyE2EEEED2Ev
FN:71,75,_ZNSt15__allocated_ptrISaISt23_Sp_counted_ptr_inplaceIN5Catch5Clara6Detail11BoundLambdaIZNS1_21makeCommandLineParserERNS1_10ConfigDataEEUlRKNSt7__cxx1112basic_stringIcSt11char_traitsIcESaIcEEEE3_EESaIvELN9__gnu_cxx12_Lock_policyE2EEEED2Ev
FN:71,75,_ZNSt15__allocated_ptrISaISt23_Sp_counted_ptr_inplaceIN5Catch5Clara6Detail11BoundLambdaIZNS1_21makeCommandLineParserERNS1_10ConfigDataEEUlRKNSt7__cxx1112basic_stringIcSt11char_traitsIcESaIcEEEE4_EESaIvELN9__gnu_cxx12_Lock_policyE2EEEED2Ev
FN:71,75,_ZNSt15__allocated_ptrISaISt23_Sp_counted_ptr_inplaceIN5Catch5Clara6Detail11BoundLambdaIZNS1_21makeCommandLineParserERNS1_10ConfigDataEEUlRKNSt7__cxx1112basic_stringIcSt11char_traitsIcESaIcEEEE5_EESaIvELN9__gnu_cxx12_Lock_policyE2EEEED2Ev
FN:71,75,_ZNSt15__allocated_ptrISaISt23_Sp_counted_ptr_inplaceIN5Catch5Clara6Detail11BoundLambdaIZNS1_21makeCommandLineParserERNS1_10ConfigDataEEUlRKNSt7__cxx1112basic_stringIcSt11char_traitsIcESaIcEEEE7_EESaIvELN9__gnu_cxx12_Lock_policyE2EEEED2Ev
FN:71,75,_ZNSt15__allocated_ptrISaISt23_Sp_counted_ptr_inplaceIN5Catch5Clara6Detail11BoundLambdaIZNS1_21makeCommandLineParserERNS1_10ConfigDataEEUlRKNSt7__cxx1112basic_stringIcSt11char_traitsIcESaIcEEEE8_EESaIvELN9__gnu_cxx12_Lock_policyE2EEEED2Ev
FN:71,75,_ZNSt15__allocated_ptrISaISt23_Sp_counted_ptr_inplaceIN5Catch5Clara6Detail11BoundLambdaIZNS1_21makeCommandLineParserERNS1_10ConfigDataEEUlbE0_EESaIvELN9__gnu_cxx12_Lock_policyE2EEEED2Ev
FN:71,75,_ZNSt15__allocated_ptrISaISt23_Sp_counted_ptr_inplaceIN5Catch5Clara6Detail11BoundLambdaIZNS1_21makeCommandLineParserERNS1_10ConfigDataEEUliE_EESaIvELN9__gnu_cxx12_Lock_policyE2EEEED2Ev
FN:71,75,_ZNSt15__allocated_ptrISaISt23_Sp_counted_ptr_inplaceIN5Catch5Clara6Detail12BoundFlagRefESaIvELN9__gnu_cxx12_Lock_policyE2EEEED2Ev
FN:71,75,_ZNSt15__allocated_ptrISaISt23_Sp_counted_ptr_inplaceIN5Catch5Clara6Detail13BoundValueRefINSt7__cxx1112basic_stringIcSt11char_traitsIcESaIcEEEEESaIvELN9__gnu_cxx12_Lock_policyE2EEEED2Ev
FN:71,75,_ZNSt15__allocated_ptrISaISt23_Sp_counted_ptr_inplaceIN5Catch5Clara6Detail13BoundValueRefISt6vectorINSt7__cxx1112basic_stringIcSt11char_traitsIcESaIcEEESaISB_EEEESaIvELN9__gnu_cxx12_Lock_policyE2EEEED2Ev
FN:71,75,_ZNSt15__allocated_ptrISaISt23_Sp_counted_ptr_inplaceIN5Catch5Clara6Detail13BoundValueRefIdEESaIvELN9__gnu_cxx12_Lock_policyE2EEEED2Ev
FN:71,75,_ZNSt15__allocated_ptrISaISt23_Sp_counted_ptr_inplaceIN5Catch5Clara6Detail13BoundValueRefIjEESaIvELN9__gnu_cxx12_Lock_policyE2EEEED2Ev
FN:71,75,_ZNSt15__allocated_ptrISaISt23_Sp_counted_ptr_inplaceIN5Catch5Clara6Detail13BoundValueRefIlEESaIvELN9__gnu_cxx12_Lock_policyE2EEEED2Ev
FN:71,75,_ZNSt15__allocated_ptrISaISt23_Sp_counted_ptr_inplaceIN5Catch5Clara6Detail15BoundFlagLambdaIZNS1_21makeCommandLineParserERNS1_10ConfigDataEEUlbE_EESaIvELN9__gnu_cxx12_Lock_policyE2EEEED2Ev
FN:71,75,_ZNSt15__allocated_ptrISaISt23_Sp_counted_ptr_inplaceIN5Catch5Clara6Detail15BoundFlagLambdaIZNS2_4HelpC4ERbEUlbE_EESaIvELN9__gnu_cxx12_Lock_policyE2EEEED2Ev
FN:71,75,_ZNSt15__allocated_ptrISaISt23_Sp_counted_ptr_inplaceIN5Catch5Clara6Detail15BoundManyLambdaIZNS1_21makeCommandLineParserERNS1_10ConfigDataEEUlRKNSt7__cxx1112basic_stringIcSt11char_traitsIcESaIcEEEE6_EESaIvELN9__gnu_cxx12_Lock_policyE2EEEED2Ev
FN:71,75,_ZNSt15__allocated_ptrISaISt23_Sp_counted_ptr_inplaceIN5Catch5Clara6Detail15BoundManyLambdaIZNS1_21makeCommandLineParserERNS1_10ConfigDataEEUlRKNSt7__cxx1112basic_stringIcSt11char_traitsIcESaIcEEEE_EESaIvELN9__gnu_cxx12_Lock_policyE2EEEED2Ev
FN:71,75,_ZNSt15__allocated_ptrISaISt23_Sp_counted_ptr_inplaceINSt7__cxx1112basic_stringIcSt11char_traitsIcESaIcEEESaIvELN9__gnu_cxx12_Lock_policyE2EEEED2Ev
FN:71,75,_ZNSt15__allocated_ptrISaISt23_Sp_counted_ptr_inplaceINSt8__detail4_NFAINSt7__cxx1112regex_traitsIcEEEESaIvELN9__gnu_cxx12_Lock_policyE2EEEED2Ev
FN:79,83,_ZNSt15__allocated_ptrISaISt23_Sp_counted_ptr_inplaceIN5Catch5Clara6Detail11BoundLambdaIZNS1_21makeCommandLineParserERNS1_10ConfigDataEEUlRKNSt7__cxx1112basic_stringIcSt11char_traitsIcESaIcEEEE0_EESaIvELN9__gnu_cxx12_Lock_policyE2EEEEaSEDn
FN:79,83,_ZNSt15__allocated_ptrISaISt23_Sp_counted_ptr_inplaceIN5Catch5Clara6Detail11BoundLambdaIZNS1_21makeCommandLineParserERNS1_10ConfigDataEEUlRKNSt7__cxx1112basic_stringIcSt11char_traitsIcESaIcEEEE1_EESaIvELN9__gnu_cxx12_Lock_policyE2EEEEaSEDn
FN:79,83,_ZNSt15__allocated_ptrISaISt23_Sp_counted_ptr_inplaceIN5Catch5Clara6Detail11BoundLambdaIZNS1_21makeCommandLineParserERNS1_10ConfigDataEEUlRKNSt7__cxx1112basic_stringIcSt11char_traitsIcESaIcEEEE2_EESaIvELN9__gnu_cxx12_Lock_policyE2EEEEaSEDn
FN:79,83,_ZNSt15__allocated_ptrISaISt23_Sp_counted_ptr_inplaceIN5Catch5Clara6Detail11BoundLambdaIZNS1_21makeCommandLineParserERNS1_10ConfigDataEEUlRKNSt7__cxx1112basic_stringIcSt11char_traitsIcESaIcEEEE3_EESaIvELN9__gnu_cxx12_Lock_policyE2EEEEaSEDn
FN:79,83,_ZNSt15__allocated_ptrISaISt23_Sp_counted_ptr_inplaceIN5Catch5Clara6Detail11BoundLambdaIZNS1_21makeCommandLineParserERNS1_10ConfigDataEEUlRKNSt7__cxx1112basic_stringIcSt11char_traitsIcESaIcEEEE4_EESaIvELN9__gnu_cxx12_Lock_policyE2EEEEaSEDn
FN:79,83,_ZNSt15__allocated_ptrISaISt23_Sp_counted_ptr_inplaceIN5Catch5Clara6Detail11BoundLambdaIZNS1_21makeCommandLineParserERNS1_10ConfigDataEEUlRKNSt7__cxx1112basic_stringIcSt11char_traitsIcESaIcEEEE5_EESaIvELN9__gnu_cxx12_Lock_policyE2EEEEaSEDn
FN:79,83,_ZNSt15__allocated_ptrISaISt23_Sp_counted_ptr_inplaceIN5Catch5Clara6Detail11BoundLambdaIZNS1_21makeCommandLineParserERNS1_10ConfigDataEEUlRKNSt7__cxx1112basic_stringIcSt11char_traitsIcESaIcEEEE7_EESaIvELN9__gnu_cxx12_Lock_policyE2EEEEaSEDn
FN:79,83,_ZNSt15__allocated_ptrISaISt23_Sp_counted_ptr_inplaceIN5Catch5Clara6Detail11BoundLambdaIZNS1_21makeCommandLineParserERNS1_10ConfigDataEEUlRKNSt7__cxx1112basic_stringIcSt11char_traitsIcESaIcEEEE8_EESaIvELN9__gnu_cxx12_Lock_policyE2EEEEaSEDn
FN:79,83,_ZNSt15__allocated_ptrISaISt23_Sp_counted_ptr_inplaceIN5Catch5Clara6Detail11BoundLambdaIZNS1_21makeCommandLineParserERNS1_10ConfigDataEEUlbE0_EESaIvELN9__gnu_cxx12_Lock_policyE2EEEEaSEDn
FN:79,83,_ZNSt15__allocated_ptrISaISt23_Sp_counted_ptr_inplaceIN5Catch5Clara6Detail11BoundLambdaIZNS1_21makeCommandLineParserERNS1_10ConfigDataEEUliE_EESaIvELN9__gnu_cxx12_Lock_policyE2EEEEaSEDn
FN:79,83,_ZNSt15__allocated_ptrISaISt23_Sp_counted_ptr_inplaceIN5Catch5Clara6Detail12BoundFlagRefESaIvELN9__gnu_cxx12_Lock_policyE2EEEEaSEDn
FN:79,83,_ZNSt15__allocated_ptrISaISt23_Sp_counted_ptr_inplaceIN5Catch5Clara6Detail13BoundValueRefINSt7__cxx1112basic_stringIcSt11char_traitsIcESaIcEEEEESaIvELN9__gnu_cxx12_Lock_policyE2EEEEaSEDn
FN:79,83,_ZNSt15__allocated_ptrISaISt23_Sp_counted_ptr_inplaceIN5Catch5Clara6Detail13BoundValueRefISt6vectorINSt7__cxx1112basic_stringIcSt11char_traitsIcESaIcEEESaISB_EEEESaIvELN9__gnu_cxx12_Lock_policyE2EEEEaSEDn
FN:79,83,_ZNSt15__allocated_ptrISaISt23_Sp_counted_ptr_inplaceIN5Catch5Clara6Detail13BoundValueRefIdEESaIvELN9__gnu_cxx12_Lock_policyE2EEEEaSEDn
FN:79,83,_ZNSt15__allocated_ptrISaISt23_Sp_counted_ptr_inplaceIN5Catch5Clara6Detail13BoundValueRefIjEESaIvELN9__gnu_cxx12_Lock_policyE2EEEEaSEDn
FN:79,83,_ZNSt15__allocated_ptrISaISt23_Sp_counted_ptr_inplaceIN5Catch5Clara6Detail13BoundValueRefIlEESaIvELN9__gnu_cxx12_Lock_policyE2EEEEaSEDn
FN:79,83,_ZNSt15__allocated_ptrISaISt23_Sp_counted_ptr_inplaceIN5Catch5Clara6Detail15BoundFlagLambdaIZNS1_21makeCommandLineParserERNS1_10ConfigDataEEUlbE_EESaIvELN9__gnu_cxx12_Lock_policyE2EEEEaSEDn
FN:79,83,_ZNSt15__allocated_ptrISaISt23_Sp_counted_ptr_inplaceIN5Catch5Clara6Detail15BoundFlagLambdaIZNS2_4HelpC4ERbEUlbE_EESaIvELN9__gnu_cxx12_Lock_policyE2EEEEaSEDn
FN:79,83,_ZNSt15__allocated_ptrISaISt23_Sp_counted_ptr_inplaceIN5Catch5Clara6Detail15BoundManyLambdaIZNS1_21makeCommandLineParserERNS1_10ConfigDataEEUlRKNSt7__cxx1112basic_stringIcSt11char_traitsIcESaIcEEEE6_EESaIvELN9__gnu_cxx12_Lock_policyE2EEEEaSEDn
FN:79,83,_ZNSt15__allocated_ptrISaISt23_Sp_counted_ptr_inplaceIN5Catch5Clara6Detail15BoundManyLambdaIZNS1_21makeCommandLineParserERNS1_10ConfigDataEEUlRKNSt7__cxx1112basic_stringIcSt11char_traitsIcESaIcEEEE_EESaIvELN9__gnu_cxx12_Lock_policyE2EEEEaSEDn
FN:79,83,_ZNSt15__allocated_ptrISaISt23_Sp_counted_ptr_inplaceINSt7__cxx1112basic_stringIcSt11char_traitsIcESaIcEEESaIvELN9__gnu_cxx12_Lock_policyE2EEEEaSEDn
FN:79,83,_ZNSt15__allocated_ptrISaISt23_Sp_counted_ptr_inplaceINSt8__detail4_NFAINSt7__cxx1112regex_traitsIcEEEESaIvELN9__gnu_cxx12_Lock_policyE2EEEEaSEDn
FN:86,86,_ZNSt15__allocated_ptrISaISt23_Sp_counted_ptr_inplaceIN5Catch5Clara6Detail11BoundLambdaIZNS1_21makeCommandLineParserERNS1_10ConfigDataEEUlRKNSt7__cxx1112basic_stringIcSt11char_traitsIcESaIcEEEE0_EESaIvELN9__gnu_cxx12_Lock_policyE2EEEE3getEv
FN:86,86,_ZNSt15__allocated_ptrISaISt23_Sp_counted_ptr_inplaceIN5Catch5Clara6Detail11BoundLambdaIZNS1_21makeCommandLineParserERNS1_10ConfigDataEEUlRKNSt7__cxx1112basic_stringIcSt11char_traitsIcESaIcEEEE1_EESaIvELN9__gnu_cxx12_Lock_policyE2EEEE3getEv
FN:86,86,_ZNSt15__allocated_ptrISaISt23_Sp_counted_ptr_inplaceIN5Catch5Clara6Detail11BoundLambdaIZNS1_21makeCommandLineParserERNS1_10ConfigDataEEUlRKNSt7__cxx1112basic_stringIcSt11char_traitsIcESaIcEEEE2_EESaIvELN9__gnu_cxx12_Lock_policyE2EEEE3getEv
FN:86,86,_ZNSt15__allocated_ptrISaISt23_Sp_counted_ptr_inplaceIN5Catch5Clara6Detail11BoundLambdaIZNS1_21makeCommandLineParserERNS1_10ConfigDataEEUlRKNSt7__cxx1112basic_stringIcSt11char_traitsIcESaIcEEEE3_EESaIvELN9__gnu_cxx12_Lock_policyE2EEEE3getEv
FN:86,86,_ZNSt15__allocated_ptrISaISt23_Sp_counted_ptr_inplaceIN5Catch5Clara6Detail11BoundLambdaIZNS1_21makeCommandLineParserERNS1_10ConfigDataEEUlRKNSt7__cxx1112basic_stringIcSt11char_traitsIcESaIcEEEE4_EESaIvELN9__gnu_cxx12_Lock_policyE2EEEE3getEv
FN:86,86,_ZNSt15__allocated_ptrISaISt23_Sp_counted_ptr_inplaceIN5Catch5Clara6Detail11BoundLambdaIZNS1_21makeCommandLineParserERNS1_10ConfigDataEEUlRKNSt7__cxx1112basic_stringIcSt11char_traitsIcESaIcEEEE5_EESaIvELN9__gnu_cxx12_Lock_policyE2EEEE3getEv
FN:86,86,_ZNSt15__allocated_ptrISaISt23_Sp_counted_ptr_inplaceIN5Catch5Clara6Detail11BoundLambdaIZNS1_21makeCommandLineParserERNS1_10ConfigDataEEUlRKNSt7__cxx1112basic_stringIcSt11char_traitsIcESaIcEEEE7_EESaIvELN9__gnu_cxx12_Lock_policyE2EEEE3getEv
FN:86,86,_ZNSt15__allocated_ptrISaISt23_Sp_counted_ptr_inplaceIN5Catch5Clara6Detail11BoundLambdaIZNS1_21makeCommandLineParserERNS1_10ConfigDataEEUlRKNSt7__cxx1112basic_stringIcSt11char_traitsIcESaIcEEEE8_EESaIvELN9__gnu_cxx12_Lock_policyE2EEEE3getEv
FN:86,86,_ZNSt15__allocated_ptrISaISt23_Sp_counted_ptr_inplaceIN5Catch5Clara6Detail11BoundLambdaIZNS1_21makeCommandLineParserERNS1_10ConfigDataEEUlbE0_EESaIvELN9__gnu_cxx12_Lock_policyE2EEEE3getEv
FN:86,86,_ZNSt15__allocated_ptrISaISt23_Sp_counted_ptr_inplaceIN5Catch5Clara6Detail11BoundLambdaIZNS1_21makeCommandLineParserERNS1_10ConfigDataEEUliE_EESaIvELN9__gnu_cxx12_Lock_policyE2EEEE3getEv
FN:86,86,_ZNSt15__allocated_ptrISaISt23_Sp_counted_ptr_inplaceIN5Catch5Clara6Detail12BoundFlagRefESaIvELN9__gnu_cxx12_Lock_policyE2EEEE3getEv
FN:86,86,_ZNSt15__allocated_ptrISaISt23_Sp_counted_ptr_inplaceIN5Catch5Clara6Detail13BoundValueRefINSt7__cxx1112basic_stringIcSt11char_traitsIcESaIcEEEEESaIvELN9__gnu_cxx12_Lock_policyE2EEEE3getEv
FN:86,86,_ZNSt15__allocated_ptrISaISt23_Sp_counted_ptr_inplaceIN5Catch5Clara6Detail13BoundValueRefISt6vectorINSt7__cxx1112basic_stringIcSt11char_traitsIcESaIcEEESaISB_EEEESaIvELN9__gnu_cxx12_Lock_policyE2EEEE3getEv
FN:86,86,_ZNSt15__allocated_ptrISaISt23_Sp_counted_ptr_inplaceIN5Catch5Clara6Detail13BoundValueRefIdEESaIvELN9__gnu_cxx12_Lock_policyE2EEEE3getEv
FN:86,86,_ZNSt15__allocated_ptrISaISt23_Sp_counted_ptr_inplaceIN5Catch5Clara6Detail13BoundValueRefIjEESaIvELN9__gnu_cxx12_Lock_policyE2EEEE3getEv
FN:86,86,_ZNSt15__allocated_ptrISaISt23_Sp_counted_ptr_inplaceIN5Catch5Clara6Detail13BoundValueRefIlEESaIvELN9__gnu_cxx12_Lock_policyE2EEEE3getEv
FN:86,86,_ZNSt15__allocated_ptrISaISt23_Sp_counted_ptr_inplaceIN5Catch5Clara6Detail15BoundFlagLambdaIZNS1_21makeCommandLineParserERNS1_10ConfigDataEEUlbE_EESaIvELN9__gnu_cxx12_Lock_policyE2EEEE3getEv
FN:86,86,_ZNSt15__allocated_ptrISaISt23_Sp_counted_ptr_inplaceIN5Catch5Clara6Detail15BoundFlagLambdaIZNS2_4HelpC4ERbEUlbE_EESaIvELN9__gnu_cxx12_Lock_policyE2EEEE3getEv
FN:86,86,_ZNSt15__allocated_ptrISaISt23_Sp_counted_ptr_inplaceIN5Catch5Clara6Detail15BoundManyLambdaIZNS1_21makeCommandLineParserERNS1_10ConfigDataEEUlRKNSt7__cxx1112basic_stringIcSt11char_traitsIcESaIcEEEE6_EESaIvELN9__gnu_cxx12_Lock_policyE2EEEE3getEv
FN:86,86,_ZNSt15__allocated_ptrISaISt23_Sp_counted_ptr_inplaceIN5Catch5Clara6Detail15BoundManyLambdaIZNS1_21makeCommandLineParserERNS1_10ConfigDataEEUlRKNSt7__cxx1112basic_stringIcSt11char_traitsIcESaIcEEEE_EESaIvELN9__gnu_cxx12_Lock_policyE2EEEE3getEv
FN:86,86,_ZNSt15__allocated_ptrISaISt23_Sp_counted_ptr_inplaceINSt7__cxx1112basic_stringIcSt11char_traitsIcESaIcEEESaIvELN9__gnu_cxx12_Lock_policyE2EEEE3getEv
FN:86,86,_ZNSt15__allocated_ptrISaISt23_Sp_counted_ptr_inplaceINSt8__detail4_NFAINSt7__cxx1112regex_traitsIcEEEESaIvELN9__gnu_cxx12_Lock_policyE2EEEE3getEv
FN:96,99,_ZSt18__allocate_guardedISaISt23_Sp_counted_ptr_inplaceIN5Catch5Clara6Detail11BoundLambdaIZNS1_21makeCommandLineParserERNS1_10ConfigDataEEUlRKNSt7__cxx1112basic_stringIcSt11char_traitsIcESaIcEEEE0_EESaIvELN9__gnu_cxx12_Lock_policyE2EEEESt15__allocated_ptrIT_ERSN_
FN:96,99,_ZSt18__allocate_guardedISaISt23_Sp_counted_ptr_inplaceIN5Catch5Clara6Detail11BoundLambdaIZNS1_21makeCommandLineParserERNS1_10ConfigDataEEUlRKNSt7__cxx1112basic_stringIcSt11char_traitsIcESaIcEEEE1_EESaIvELN9__gnu_cxx12_Lock_policyE2EEEESt15__allocated_ptrIT_ERSN_
FN:96,99,_ZSt18__allocate_guardedISaISt23_Sp_counted_ptr_inplaceIN5Catch5Clara6Detail11BoundLambdaIZNS1_21makeCommandLineParserERNS1_10ConfigDataEEUlRKNSt7__cxx1112basic_stringIcSt11char_traitsIcESaIcEEEE2_EESaIvELN9__gnu_cxx12_Lock_policyE2EEEESt15__allocated_ptrIT_ERSN_
FN:96,99,_ZSt18__allocate_guardedISaISt23_Sp_counted_ptr_inplaceIN5Catch5Clara6Detail11BoundLambdaIZNS1_21makeCommandLineParserERNS1_10ConfigDataEEUlRKNSt7__cxx1112basic_stringIcSt11char_traitsIcESaIcEEEE3_EESaIvELN9__gnu_cxx12_Lock_policyE2EEEESt15__allocated_ptrIT_ERSN_
FN:96,99,_ZSt18__allocate_guardedISaISt23_Sp_counted_ptr_inplaceIN5Catch5Clara6Detail11BoundLambdaIZNS1_21makeCommandLineParserERNS1_10ConfigDataEEUlRKNSt7__cxx1112basic_stringIcSt11char_traitsIcESaIcEEEE4_EESaIvELN9__gnu_cxx12_Lock_policyE2EEEESt15__allocated_ptrIT_ERSN_
FN:96,99,_ZSt18__allocate_guardedISaISt23_Sp_counted_ptr_inplaceIN5Catch5Clara6Detail11BoundLambdaIZNS1_21makeCommandLineParserERNS1_10ConfigDataEEUlRKNSt7__cxx1112basic_stringIcSt11char_traitsIcESaIcEEEE5_EESaIvELN9__gnu_cxx12_Lock_policyE2EEEESt15__allocated_ptrIT_ERSN_
FN:96,99,_ZSt18__allocate_guardedISaISt23_Sp_counted_ptr_inplaceIN5Catch5Clara6Detail11BoundLambdaIZNS1_21makeCommandLineParserERNS1_10ConfigDataEEUlRKNSt7__cxx1112basic_stringIcSt11char_traitsIcESaIcEEEE7_EESaIvELN9__gnu_cxx12_Lock_policyE2EEEESt15__allocated_ptrIT_ERSN_
FN:96,99,_ZSt18__allocate_guardedISaISt23_Sp_counted_ptr_inplaceIN5Catch5Clara6Detail11BoundLambdaIZNS1_21makeCommandLineParserERNS1_10ConfigDataEEUlRKNSt7__cxx1112basic_stringIcSt11char_traitsIcESaIcEEEE8_EESaIvELN9__gnu_cxx12_Lock_policyE2EEEESt15__allocated_ptrIT_ERSN_
FN:96,99,_ZSt18__allocate_guardedISaISt23_Sp_counted_ptr_inplaceIN5Catch5Clara6Detail11BoundLambdaIZNS1_21makeCommandLineParserERNS1_10ConfigDataEEUlbE0_EESaIvELN9__gnu_cxx12_Lock_policyE2EEEESt15__allocated_ptrIT_ERSF_
FN:96,99,_ZSt18__allocate_guardedISaISt23_Sp_counted_ptr_inplaceIN5Catch5Clara6Detail11BoundLambdaIZNS1_21makeCommandLineParserERNS1_10ConfigDataEEUliE_EESaIvELN9__gnu_cxx12_Lock_policyE2EEEESt15__allocated_ptrIT_ERSF_
FN:96,99,_ZSt18__allocate_guardedISaISt23_Sp_counted_ptr_inplaceIN5Catch5Clara6Detail12BoundFlagRefESaIvELN9__gnu_cxx12_Lock_policyE2EEEESt15__allocated_ptrIT_ERSB_
FN:96,99,_ZSt18__allocate_guardedISaISt23_Sp_counted_ptr_inplaceIN5Catch5Clara6Detail13BoundValueRefINSt7__cxx1112basic_stringIcSt11char_traitsIcESaIcEEEEESaIvELN9__gnu_cxx12_Lock_policyE2EEEESt15__allocated_ptrIT_ERSI_
FN:96,99,_ZSt18__allocate_guardedISaISt23_Sp_counted_ptr_inplaceIN5Catch5Clara6Detail13BoundValueRefISt6vectorINSt7__cxx1112basic_stringIcSt11char_traitsIcESaIcEEESaISB_EEEESaIvELN9__gnu_cxx12_Lock_policyE2EEEESt15__allocated_ptrIT_ERSL_
FN:96,99,_ZSt18__allocate_guardedISaISt23_Sp_counted_ptr_inplaceIN5Catch5Clara6Detail13BoundValueRefIdEESaIvELN9__gnu_cxx12_Lock_policyE2EEEESt15__allocated_ptrIT_ERSC_
FN:96,99,_ZSt18__allocate_guardedISaISt23_Sp_counted_ptr_inplaceIN5Catch5Clara6Detail13BoundValueRefIjEESaIvELN9__gnu_cxx12_Lock_policyE2EEEESt15__allocated_ptrIT_ERSC_
FN:96,99,_ZSt18__allocate_guardedISaISt23_Sp_counted_ptr_inplaceIN5Catch5Clara6Detail13BoundValueRefIlEESaIvELN9__gnu_cxx12_Lock_policyE2EEEESt15__allocated_ptrIT_ERSC_
FN:96,99,_ZSt18__allocate_guardedISaISt23_Sp_counted_ptr_inplaceIN5Catch5Clara6Detail15BoundFlagLambdaIZNS1_21makeCommandLineParserERNS1_10ConfigDataEEUlbE_EESaIvELN9__gnu_cxx12_Lock_policyE2EEEESt15__allocated_ptrIT_ERSF_
FN:96,99,_ZSt18__allocate_guardedISaISt23_Sp_counted_ptr_inplaceIN5Catch5Clara6Detail15BoundFlagLambdaIZNS2_4HelpC4ERbEUlbE_EESaIvELN9__gnu_cxx12_Lock_policyE2EEEESt15__allocated_ptrIT_ERSF_
FN:96,99,_ZSt18__allocate_guardedISaISt23_Sp_counted_ptr_inplaceIN5Catch5Clara6Detail15BoundManyLambdaIZNS1_21makeCommandLineParserERNS1_10ConfigDataEEUlRKNSt7__cxx1112basic_stringIcSt11char_traitsIcESaIcEEEE6_EESaIvELN9__gnu_cxx12_Lock_policyE2EEEESt15__allocated_ptrIT_ERSN_
FN:96,99,_ZSt18__allocate_guardedISaISt23_Sp_counted_ptr_inplaceIN5Catch5Clara6Detail15BoundManyLambdaIZNS1_21makeCommandLineParserERNS1_10ConfigDataEEUlRKNSt7__cxx1112basic_stringIcSt11char_traitsIcESaIcEEEE_EESaIvELN9__gnu_cxx12_Lock_policyE2EEEESt15__allocated_ptrIT_ERSN_
FN:96,99,_ZSt18__allocate_guardedISaISt23_Sp_counted_ptr_inplaceINSt7__cxx1112basic_stringIcSt11char_traitsIcESaIcEEESaIvELN9__gnu_cxx12_Lock_policyE2EEEESt15__allocated_ptrIT_ERSD_
FN:96,99,_ZSt18__allocate_guardedISaISt23_Sp_counted_ptr_inplaceINSt8__detail4_NFAINSt7__cxx1112regex_traitsIcEEEESaIvELN9__gnu_cxx12_Lock_policyE2EEEESt15__allocated_ptrIT_ERSD_
FNDA:612,_ZNSt15__allocated_ptrISaISt23_Sp_counted_ptr_inplaceIN5Catch5Clara6Detail11BoundLambdaIZNS1_21makeCommandLineParserERNS1_10ConfigDataEEUlRKNSt7__cxx1112basic_stringIcSt11char_traitsIcESaIcEEEE0_EESaIvELN9__gnu_cxx12_Lock_policyE2EEEEC2ERSL_PSK_
FNDA:612,_ZNSt15__allocated_ptrISaISt23_Sp_counted_ptr_inplaceIN5Catch5Clara6Detail11BoundLambdaIZNS1_21makeCommandLineParserERNS1_10ConfigDataEEUlRKNSt7__cxx1112basic_stringIcSt11char_traitsIcESaIcEEEE1_EESaIvELN9__gnu_cxx12_Lock_policyE2EEEEC2ERSL_PSK_
FNDA:612,_ZNSt15__allocated_ptrISaISt23_Sp_counted_ptr_inplaceIN5Catch5Clara6Detail11BoundLambdaIZNS1_21makeCommandLineParserERNS1_10ConfigDataEEUlRKNSt7__cxx1112basic_stringIcSt11char_traitsIcESaIcEEEE2_EESaIvELN9__gnu_cxx12_Lock_policyE2EEEEC2ERSL_PSK_
FNDA:612,_ZNSt15__allocated_ptrISaISt23_Sp_counted_ptr_inplaceIN5Catch5Clara6Detail11BoundLambdaIZNS1_21makeCommandLineParserERNS1_10ConfigDataEEUlRKNSt7__cxx1112basic_stringIcSt11char_traitsIcESaIcEEEE3_EESaIvELN9__gnu_cxx12_Lock_policyE2EEEEC2ERSL_PSK_
FNDA:612,_ZNSt15__allocated_ptrISaISt23_Sp_counted_ptr_inplaceIN5Catch5Clara6Detail11BoundLambdaIZNS1_21makeCommandLineParserERNS1_10ConfigDataEEUlRKNSt7__cxx1112basic_stringIcSt11char_traitsIcESaIcEEEE4_EESaIvELN9__gnu_cxx12_Lock_policyE2EEEEC2ERSL_PSK_
FNDA:612,_ZNSt15__allocated_ptrISaISt23_Sp_counted_ptr_inplaceIN5Catch5Clara6Detail11BoundLambdaIZNS1_21makeCommandLineParserERNS1_10ConfigDataEEUlRKNSt7__cxx1112basic_stringIcSt11char_traitsIcESaIcEEEE5_EESaIvELN9__gnu_cxx12_Lock_policyE2EEEEC2ERSL_PSK_
FNDA:612,_ZNSt15__allocated_ptrISaISt23_Sp_counted_ptr_inplaceIN5Catch5Clara6Detail11BoundLambdaIZNS1_21makeCommandLineParserERNS1_10ConfigDataEEUlRKNSt7__cxx1112basic_stringIcSt11char_traitsIcESaIcEEEE7_EESaIvELN9__gnu_cxx12_Lock_policyE2EEEEC2ERSL_PSK_
FNDA:612,_ZNSt15__allocated_ptrISaISt23_Sp_counted_ptr_inplaceIN5Catch5Clara6Detail11BoundLambdaIZNS1_21makeCommandLineParserERNS1_10ConfigDataEEUlRKNSt7__cxx1112basic_stringIcSt11char_traitsIcESaIcEEEE8_EESaIvELN9__gnu_cxx12_Lock_policyE2EEEEC2ERSL_PSK_
FNDA:612,_ZNSt15__allocated_ptrISaISt23_Sp_counted_ptr_inplaceIN5Catch5Clara6Detail11BoundLambdaIZNS1_21makeCommandLineParserERNS1_10ConfigDataEEUlbE0_EESaIvELN9__gnu_cxx12_Lock_policyE2EEEEC2ERSD_PSC_
FNDA:612,_ZNSt15__allocated_ptrISaISt23_Sp_counted_ptr_inplaceIN5Catch5Clara6Detail11BoundLambdaIZNS1_21makeCommandLineParserERNS1_10ConfigDataEEUliE_EESaIvELN9__gnu_cxx12_Lock_policyE2EEEEC2ERSD_PSC_
FNDA:7956,_ZNSt15__allocated_ptrISaISt23_Sp_counted_ptr_inplaceIN5Catch5Clara6Detail12BoundFlagRefESaIvELN9__gnu_cxx12_Lock_policyE2EEEEC2ERS9_PS8_
FNDA:1836,_ZNSt15__allocated_ptrISaISt23_Sp_counted_ptr_inplaceIN5Catch5Clara6Detail13BoundValueRefINSt7__cxx1112basic_stringIcSt11char_traitsIcESaIcEEEEESaIvELN9__gnu_cxx12_Lock_policyE2EEEEC2ERSG_PSF_
FNDA:1224,_ZNSt15__allocated_ptrISaISt23_Sp_counted_ptr_inplaceIN5Catch5Clara6Detail13BoundValueRefISt6vectorINSt7__cxx1112basic_stringIcSt11char_traitsIcESaIcEEESaISB_EEEESaIvELN9__gnu_cxx12_Lock_policyE2EEEEC2ERSJ_PSI_
FNDA:1224,_ZNSt15__allocated_ptrISaISt23_Sp_counted_ptr_inplaceIN5Catch5Clara6Detail13BoundValueRefIdEESaIvELN9__gnu_cxx12_Lock_policyE2EEEEC2ERSA_PS9_
FNDA:1224,_ZNSt15__allocated_ptrISaISt23_Sp_counted_ptr_inplaceIN5Catch5Clara6Detail13BoundValueRefIjEESaIvELN9__gnu_cxx12_Lock_policyE2EEEEC2ERSA_PS9_
FNDA:612,_ZNSt15__allocated_ptrISaISt23_Sp_counted_ptr_inplaceIN5Catch5Clara6Detail13BoundValueRefIlEESaIvELN9__gnu_cxx12_Lock_policyE2EEEEC2ERSA_PS9_
FNDA:612,_ZNSt15__allocated_ptrISaISt23_Sp_counted_ptr_inplaceIN5Catch5Clara6Detail15BoundFlagLambdaIZNS1_21makeCommandLineParserERNS1_10ConfigDataEEUlbE_EESaIvELN9__gnu_cxx12_Lock_policyE2EEEEC2ERSD_PSC_
FNDA:612,_ZNSt15__allocated_ptrISaISt23_Sp_counted_ptr_inplaceIN5Catch5Clara6Detail15BoundFlagLambdaIZNS2_4HelpC4ERbEUlbE_EESaIvELN9__gnu_cxx12_Lock_policyE2EEEEC2ERSD_PSC_
FNDA:612,_ZNSt15__allocated_ptrISaISt23_Sp_counted_ptr_inplaceIN5Catch5Clara6Detail15BoundManyLambdaIZNS1_21makeCommandLineParserERNS1_10ConfigDataEEUlRKNSt7__cxx1112basic_stringIcSt11char_traitsIcESaIcEEEE6_EESaIvELN9__gnu_cxx12_Lock_policyE2EEEEC2ERSL_PSK_
FNDA:612,_ZNSt15__allocated_ptrISaISt23_Sp_counted_ptr_inplaceIN5Catch5Clara6Detail15BoundManyLambdaIZNS1_21makeCommandLineParserERNS1_10ConfigDataEEUlRKNSt7__cxx1112basic_stringIcSt11char_traitsIcESaIcEEEE_EESaIvELN9__gnu_cxx12_Lock_policyE2EEEEC2ERSL_PSK_
FNDA:1836,_ZNSt15__allocated_ptrISaISt23_Sp_counted_ptr_inplaceINSt7__cxx1112basic_stringIcSt11char_traitsIcESaIcEEESaIvELN9__gnu_cxx12_Lock_policyE2EEEEC2ERSB_PSA_
FNDA:0,_ZNSt15__allocated_ptrISaISt23_Sp_counted_ptr_inplaceINSt8__detail4_NFAINSt7__cxx1112regex_traitsIcEEEESaIvELN9__gnu_cxx12_Lock_policyE2EEEEC2ERSB_PSA_
FNDA:612,_ZNSt15__allocated_ptrISaISt23_Sp_counted_ptr_inplaceIN5Catch5Clara6Detail11BoundLambdaIZNS1_21makeCommandLineParserERNS1_10ConfigDataEEUlRKNSt7__cxx1112basic_stringIcSt11char_traitsIcESaIcEEEE0_EESaIvELN9__gnu_cxx12_Lock_policyE2EEEED2Ev
FNDA:612,_ZNSt15__allocated_ptrISaISt23_Sp_counted_ptr_inplaceIN5Catch5Clara6Detail11BoundLambdaIZNS1_21makeCommandLineParserERNS1_10ConfigDataEEUlRKNSt7__cxx1112basic_stringIcSt11char_traitsIcESaIcEEEE1_EESaIvELN9__gnu_cxx12_Lock_policyE2EEEED2Ev
FNDA:612,_ZNSt15__allocated_ptrISaISt23_Sp_counted_ptr_inplaceIN5Catch5Clara6Detail11BoundLambdaIZNS1_21makeCommandLineParserERNS1_10ConfigDataEEUlRKNSt7__cxx1112basic_stringIcSt11char_traitsIcESaIcEEEE2_EESaIvELN9__gnu_cxx12_Lock_policyE2EEEED2Ev
FNDA:612,_ZNSt15__allocated_ptrISaISt23_Sp_counted_ptr_inplaceIN5Catch5Clara6Detail11BoundLambdaIZNS1_21makeCommandLineParserERNS1_10ConfigDataEEUlRKNSt7__cxx1112basic_stringIcSt11char_traitsIcESaIcEEEE3_EESaIvELN9__gnu_cxx12_Lock_policyE2EEEED2Ev
FNDA:612,_ZNSt15__allocated_ptrISaISt23_Sp_counted_ptr_inplaceIN5Catch5Clara6Detail11BoundLambdaIZNS1_21makeCommandLineParserERNS1_10ConfigDataEEUlRKNSt7__cxx1112basic_stringIcSt11char_traitsIcESaIcEEEE4_EESaIvELN9__gnu_cxx12_Lock_policyE2EEEED2Ev
FNDA:612,_ZNSt15__allocated_ptrISaISt23_Sp_counted_ptr_inplaceIN5Catch5Clara6Detail11BoundLambdaIZNS1_21makeCommandLineParserERNS1_10ConfigDataEEUlRKNSt7__cxx1112basic_stringIcSt11char_traitsIcESaIcEEEE5_EESaIvELN9__gnu_cxx12_Lock_policyE2EEEED2Ev
FNDA:612,_ZNSt15__allocated_ptrISaISt23_Sp_counted_ptr_inplaceIN5Catch5Clara6Detail11BoundLambdaIZNS1_21makeCommandLineParserERNS1_10ConfigDataEEUlRKNSt7__cxx1112basic_stringIcSt11char_traitsIcESaIcEEEE7_EESaIvELN9__gnu_cxx12_Lock_policyE2EEEED2Ev
FNDA:612,_ZNSt15__allocated_ptrISaISt23_Sp_counted_ptr_inplaceIN5Catch5Clara6Detail11BoundLambdaIZNS1_21makeCommandLineParserERNS1_10ConfigDataEEUlRKNSt7__cxx1112basic_stringIcSt11char_traitsIcESaIcEEEE8_EESaIvELN9__gnu_cxx12_Lock_policyE2EEEED2Ev
FNDA:612,_ZNSt15__allocated_ptrISaISt23_Sp_counted_ptr_inplaceIN5Catch5Clara6Detail11BoundLambdaIZNS1_21makeCommandLineParserERNS1_10ConfigDataEEUlbE0_EESaIvELN9__gnu_cxx12_Lock_policyE2EEEED2Ev
FNDA:612,_ZNSt15__allocated_ptrISaISt23_Sp_counted_ptr_inplaceIN5Catch5Clara6Detail11BoundLambdaIZNS1_21makeCommandLineParserERNS1_10ConfigDataEEUliE_EESaIvELN9__gnu_cxx12_Lock_policyE2EEEED2Ev
FNDA:7956,_ZNSt15__allocated_ptrISaISt23_Sp_counted_ptr_inplaceIN5Catch5Clara6Detail12BoundFlagRefESaIvELN9__gnu_cxx12_Lock_policyE2EEEED2Ev
FNDA:1836,_ZNSt15__allocated_ptrISaISt23_Sp_counted_ptr_inplaceIN5Catch5Clara6Detail13BoundValueRefINSt7__cxx1112basic_stringIcSt11char_traitsIcESaIcEEEEESaIvELN9__gnu_cxx12_Lock_policyE2EEEED2Ev
FNDA:1224,_ZNSt15__allocated_ptrISaISt23_Sp_counted_ptr_inplaceIN5Catch5Clara6Detail13BoundValueRefISt6vectorINSt7__cxx1112basic_stringIcSt11char_traitsIcESaIcEEESaISB_EEEESaIvELN9__gnu_cxx12_Lock_policyE2EEEED2Ev
FNDA:1224,_ZNSt15__allocated_ptrISaISt23_Sp_counted_ptr_inplaceIN5Catch5Clara6Detail13BoundValueRefIdEESaIvELN9__gnu_cxx12_Lock_policyE2EEEED2Ev
FNDA:1224,_ZNSt15__allocated_ptrISaISt23_Sp_counted_ptr_inplaceIN5Catch5Clara6Detail13BoundValueRefIjEESaIvELN9__gnu_cxx12_Lock_policyE2EEEED2Ev
FNDA:612,_ZNSt15__allocated_ptrISaISt23_Sp_counted_ptr_inplaceIN5Catch5Clara6Detail13BoundValueRefIlEESaIvELN9__gnu_cxx12_Lock_policyE2EEEED2Ev
FNDA:612,_ZNSt15__allocated_ptrISaISt23_Sp_counted_ptr_inplaceIN5Catch5Clara6Detail15BoundFlagLambdaIZNS1_21makeCommandLineParserERNS1_10ConfigDataEEUlbE_EESaIvELN9__gnu_cxx12_Lock_policyE2EEEED2Ev
FNDA:612,_ZNSt15__allocated_ptrISaISt23_Sp_counted_ptr_inplaceIN5Catch5Clara6Detail15BoundFlagLambdaIZNS2_4HelpC4ERbEUlbE_EESaIvELN9__gnu_cxx12_Lock_policyE2EEEED2Ev
FNDA:612,_ZNSt15__allocated_ptrISaISt23_Sp_counted_ptr_inplaceIN5Catch5Clara6Detail15BoundManyLambdaIZNS1_21makeCommandLineParserERNS1_10ConfigDataEEUlRKNSt7__cxx1112basic_stringIcSt11char_traitsIcESaIcEEEE6_EESaIvELN9__gnu_cxx12_Lock_policyE2EEEED2Ev
FNDA:612,_ZNSt15__allocated_ptrISaISt23_Sp_counted_ptr_inplaceIN5Catch5Clara6Detail15BoundManyLambdaIZNS1_21makeCommandLineParserERNS1_10ConfigDataEEUlRKNSt7__cxx1112basic_stringIcSt11char_traitsIcESaIcEEEE_EESaIvELN9__gnu_cxx12_Lock_policyE2EEEED2Ev
FNDA:1836,_ZNSt15__allocated_ptrISaISt23_Sp_counted_ptr_inplaceINSt7__cxx1112basic_stringIcSt11char_traitsIcESaIcEEESaIvELN9__gnu_cxx12_Lock_policyE2EEEED2Ev
FNDA:0,_ZNSt15__allocated_ptrISaISt23_Sp_counted_ptr_inplaceINSt8__detail4_NFAINSt7__cxx1112regex_traitsIcEEEESaIvELN9__gnu_cxx12_Lock_policyE2EEEED2Ev
FNDA:306,_ZNSt15__allocated_ptrISaISt23_Sp_counted_ptr_inplaceIN5Catch5Clara6Detail11BoundLambdaIZNS1_21makeCommandLineParserERNS1_10ConfigDataEEUlRKNSt7__cxx1112basic_stringIcSt11char_traitsIcESaIcEEEE0_EESaIvELN9__gnu_cxx12_Lock_policyE2EEEEaSEDn
FNDA:306,_ZNSt15__allocated_ptrISaISt23_Sp_counted_ptr_inplaceIN5Catch5Clara6Detail11BoundLambdaIZNS1_21makeCommandLineParserERNS1_10ConfigDataEEUlRKNSt7__cxx1112basic_stringIcSt11char_traitsIcESaIcEEEE1_EESaIvELN9__gnu_cxx12_Lock_policyE2EEEEaSEDn
FNDA:306,_ZNSt15__allocated_ptrISaISt23_Sp_counted_ptr_inplaceIN5Catch5Clara6Detail11BoundLambdaIZNS1_21makeCommandLineParserERNS1_10ConfigDataEEUlRKNSt7__cxx1112basic_stringIcSt11char_traitsIcESaIcEEEE2_EESaIvELN9__gnu_cxx12_Lock_policyE2EEEEaSEDn
FNDA:306,_ZNSt15__allocated_ptrISaISt23_Sp_counted_ptr_inplaceIN5Catch5Clara6Detail11BoundLambdaIZNS1_21makeCommandLineParserERNS1_10ConfigDataEEUlRKNSt7__cxx1112basic_stringIcSt11char_traitsIcESaIcEEEE3_EESaIvELN9__gnu_cxx12_Lock_policyE2EEEEaSEDn
FNDA:306,_ZNSt15__allocated_ptrISaISt23_Sp_counted_ptr_inplaceIN5Catch5Clara6Detail11BoundLambdaIZNS1_21makeCommandLineParserERNS1_10ConfigDataEEUlRKNSt7__cxx1112basic_stringIcSt11char_traitsIcESaIcEEEE4_EESaIvELN9__gnu_cxx12_Lock_policyE2EEEEaSEDn
FNDA:306,_ZNSt15__allocated_ptrISaISt23_Sp_counted_ptr_inplaceIN5Catch5Clara6Detail11BoundLambdaIZNS1_21makeCommandLineParserERNS1_10ConfigDataEEUlRKNSt7__cxx1112basic_stringIcSt11char_traitsIcESaIcEEEE5_EESaIvELN9__gnu_cxx12_Lock_policyE2EEEEaSEDn
FNDA:306,_ZNSt15__allocated_ptrISaISt23_Sp_counted_ptr_inplaceIN5Catch5Clara6Detail11BoundLambdaIZNS1_21makeCommandLineParserERNS1_10ConfigDataEEUlRKNSt7__cxx1112basic_stringIcSt11char_traitsIcESaIcEEEE7_EESaIvELN9__gnu_cxx12_Lock_policyE2EEEEaSEDn
FNDA:306,_ZNSt15__allocated_ptrISaISt23_Sp_counted_ptr_inplaceIN5Catch5Clara6Detail11BoundLambdaIZNS1_21makeCommandLineParserERNS1_10ConfigDataEEUlRKNSt7__cxx1112basic_stringIcSt11char_traitsIcESaIcEEEE8_EESaIvELN9__gnu_cxx12_Lock_policyE2EEEEaSEDn
FNDA:306,_ZNSt15__allocated_ptrISaISt23_Sp_counted_ptr_inplaceIN5Catch5Clara6Detail11BoundLambdaIZNS1_21makeCommandLineParserERNS1_10ConfigDataEEUlbE0_EESaIvELN9__gnu_cxx12_Lock_policyE2EEEEaSEDn
FNDA:306,_ZNSt15__allocated_ptrISaISt23_Sp_counted_ptr_inplaceIN5Catch5Clara6Detail11BoundLambdaIZNS1_21makeCommandLineParserERNS1_10ConfigDataEEUliE_EESaIvELN9__gnu_cxx12_Lock_policyE2EEEEaSEDn
FNDA:3978,_ZNSt15__allocated_ptrISaISt23_Sp_counted_ptr_inplaceIN5Catch5Clara6Detail12BoundFlagRefESaIvELN9__gnu_cxx12_Lock_policyE2EEEEaSEDn
FNDA:918,_ZNSt15__allocated_ptrISaISt23_Sp_counted_ptr_inplaceIN5Catch5Clara6Detail13BoundValueRefINSt7__cxx1112basic_stringIcSt11char_traitsIcESaIcEEEEESaIvELN9__gnu_cxx12_Lock_policyE2EEEEaSEDn
FNDA:612,_ZNSt15__allocated_ptrISaISt23_Sp_counted_ptr_inplaceIN5Catch5Clara6Detail13BoundValueRefISt6vectorINSt7__cxx1112basic_stringIcSt11char_traitsIcESaIcEEESaISB_EEEESaIvELN9__gnu_cxx12_Lock_policyE2EEEEaSEDn
FNDA:612,_ZNSt15__allocated_ptrISaISt23_Sp_counted_ptr_inplaceIN5Catch5Clara6Detail13BoundValueRefIdEESaIvELN9__gnu_cxx12_Lock_policyE2EEEEaSEDn
FNDA:612,_ZNSt15__allocated_ptrISaISt23_Sp_counted_ptr_inplaceIN5Catch5Clara6Detail13BoundValueRefIjEESaIvELN9__gnu_cxx12_Lock_policyE2EEEEaSEDn
FNDA:306,_ZNSt15__allocated_ptrISaISt23_Sp_counted_ptr_inplaceIN5Catch5Clara6Detail13BoundValueRefIlEESaIvELN9__gnu_cxx12_Lock_policyE2EEEEaSEDn
FNDA:306,_ZNSt15__allocated_ptrISaISt23_Sp_counted_ptr_inplaceIN5Catch5Clara6Detail15BoundFlagLambdaIZNS1_21makeCommandLineParserERNS1_10ConfigDataEEUlbE_EESaIvELN9__gnu_cxx12_Lock_policyE2EEEEaSEDn
FNDA:306,_ZNSt15__allocated_ptrISaISt23_Sp_counted_ptr_inplaceIN5Catch5Clara6Detail15BoundFlagLambdaIZNS2_4HelpC4ERbEUlbE_EESaIvELN9__gnu_cxx12_Lock_policyE2EEEEaSEDn
FNDA:306,_ZNSt15__allocated_ptrISaISt23_Sp_counted_ptr_inplaceIN5Catch5Clara6Detail15BoundManyLambdaIZNS1_21makeCommandLineParserERNS1_10ConfigDataEEUlRKNSt7__cxx1112basic_stringIcSt11char_traitsIcESaIcEEEE6_EESaIvELN9__gnu_cxx12_Lock_policyE2EEEEaSEDn
FNDA:306,_ZNSt15__allocated_ptrISaISt23_Sp_counted_ptr_inplaceIN5Catch5Clara6Detail15BoundManyLambdaIZNS1_21makeCommandLineParserERNS1_10ConfigDataEEUlRKNSt7__cxx1112basic_stringIcSt11char_traitsIcESaIcEEEE_EESaIvELN9__gnu_cxx12_Lock_policyE2EEEEaSEDn
FNDA:918,_ZNSt15__allocated_ptrISaISt23_Sp_counted_ptr_inplaceINSt7__cxx1112basic_stringIcSt11char_traitsIcESaIcEEESaIvELN9__gnu_cxx12_Lock_policyE2EEEEaSEDn
FNDA:0,_ZNSt15__allocated_ptrISaISt23_Sp_counted_ptr_inplaceINSt8__detail4_NFAINSt7__cxx1112regex_traitsIcEEEESaIvELN9__gnu_cxx12_Lock_policyE2EEEEaSEDn
FNDA:306,_ZNSt15__allocated_ptrISaISt23_Sp_counted_ptr_inplaceIN5Catch5Clara6Detail11BoundLambdaIZNS1_21makeCommandLineParserERNS1_10ConfigDataEEUlRKNSt7__cxx1112basic_stringIcSt11char_traitsIcESaIcEEEE0_EESaIvELN9__gnu_cxx12_Lock_policyE2EEEE3getEv
FNDA:306,_ZNSt15__allocated_ptrISaISt23_Sp_counted_ptr_inplaceIN5Catch5Clara6Detail11BoundLambdaIZNS1_21makeCommandLineParserERNS1_10ConfigDataEEUlRKNSt7__cxx1112basic_stringIcSt11char_traitsIcESaIcEEEE1_EESaIvELN9__gnu_cxx12_Lock_policyE2EEEE3getEv
FNDA:306,_ZNSt15__allocated_ptrISaISt23_Sp_counted_ptr_inplaceIN5Catch5Clara6Detail11BoundLambdaIZNS1_21makeCommandLineParserERNS1_10ConfigDataEEUlRKNSt7__cxx1112basic_stringIcSt11char_traitsIcESaIcEEEE2_EESaIvELN9__gnu_cxx12_Lock_policyE2EEEE3getEv
FNDA:306,_ZNSt15__allocated_ptrISaISt23_Sp_counted_ptr_inplaceIN5Catch5Clara6Detail11BoundLambdaIZNS1_21makeCommandLineParserERNS1_10ConfigDataEEUlRKNSt7__cxx1112basic_stringIcSt11char_traitsIcESaIcEEEE3_EESaIvELN9__gnu_cxx12_Lock_policyE2EEEE3getEv
FNDA:306,_ZNSt15__allocated_ptrISaISt23_Sp_counted_ptr_inplaceIN5Catch5Clara6Detail11BoundLambdaIZNS1_21makeCommandLineParserERNS1_10ConfigDataEEUlRKNSt7__cxx1112basic_stringIcSt11char_traitsIcESaIcEEEE4_EESaIvELN9__gnu_cxx12_Lock_policyE2EEEE3getEv
FNDA:306,_ZNSt15__allocated_ptrISaISt23_Sp_counted_ptr_inplaceIN5Catch5Clara6Detail11BoundLambdaIZNS1_21makeCommandLineParserERNS1_10ConfigDataEEUlRKNSt7__cxx1112basic_stringIcSt11char_traitsIcESaIcEEEE5_EESaIvELN9__gnu_cxx12_Lock_policyE2EEEE3getEv
FNDA:306,_ZNSt15__allocated_ptrISaISt23_Sp_counted_ptr_inplaceIN5Catch5Clara6Detail11BoundLambdaIZNS1_21makeCommandLineParserERNS1_10ConfigDataEEUlRKNSt7__cxx1112basic_stringIcSt11char_traitsIcESaIcEEEE7_EESaIvELN9__gnu_cxx12_Lock_policyE2EEEE3getEv
FNDA:306,_ZNSt15__allocated_ptrISaISt23_Sp_counted_ptr_inplaceIN5Catch5Clara6Detail11BoundLambdaIZNS1_21makeCommandLineParserERNS1_10ConfigDataEEUlRKNSt7__cxx1112basic_stringIcSt11char_traitsIcESaIcEEEE8_EESaIvELN9__gnu_cxx12_Lock_policyE2EEEE3getEv
FNDA:306,_ZNSt15__allocated_ptrISaISt23_Sp_counted_ptr_inplaceIN5Catch5Clara6Detail11BoundLambdaIZNS1_21makeCommandLineParserERNS1_10ConfigDataEEUlbE0_EESaIvELN9__gnu_cxx12_Lock_policyE2EEEE3getEv
FNDA:306,_ZNSt15__allocated_ptrISaISt23_Sp_counted_ptr_inplaceIN5Catch5Clara6Detail11BoundLambdaIZNS1_21makeCommandLineParserERNS1_10ConfigDataEEUliE_EESaIvELN9__gnu_cxx12_Lock_policyE2EEEE3getEv
FNDA:3978,_ZNSt15__allocated_ptrISaISt23_Sp_counted_ptr_inplaceIN5Catch5Clara6Detail12BoundFlagRefESaIvELN9__gnu_cxx12_Lock_policyE2EEEE3getEv
FNDA:918,_ZNSt15__allocated_ptrISaISt23_Sp_counted_ptr_inplaceIN5Catch5Clara6Detail13BoundValueRefINSt7__cxx1112basic_stringIcSt11char_traitsIcESaIcEEEEESaIvELN9__gnu_cxx12_Lock_policyE2EEEE3getEv
FNDA:612,_ZNSt15__allocated_ptrISaISt23_Sp_counted_ptr_inplaceIN5Catch5Clara6Detail13BoundValueRefISt6vectorINSt7__cxx1112basic_stringIcSt11char_traitsIcESaIcEEESaISB_EEEESaIvELN9__gnu_cxx12_Lock_policyE2EEEE3getEv
FNDA:612,_ZNSt15__allocated_ptrISaISt23_Sp_counted_ptr_inplaceIN5Catch5Clara6Detail13BoundValueRefIdEESaIvELN9__gnu_cxx12_Lock_policyE2EEEE3getEv
FNDA:612,_ZNSt15__allocated_ptrISaISt23_Sp_counted_ptr_inplaceIN5Catch5Clara6Detail13BoundValueRefIjEESaIvELN9__gnu_cxx12_Lock_policyE2EEEE3getEv
FNDA:306,_ZNSt15__allocated_ptrISaISt23_Sp_counted_ptr_inplaceIN5Catch5Clara6Detail13BoundValueRefIlEESaIvELN9__gnu_cxx12_Lock_policyE2EEEE3getEv
FNDA:306,_ZNSt15__allocated_ptrISaISt23_Sp_counted_ptr_inplaceIN5Catch5Clara6Detail15BoundFlagLambdaIZNS1_21makeCommandLineParserERNS1_10ConfigDataEEUlbE_EESaIvELN9__gnu_cxx12_Lock_policyE2EEEE3getEv
FNDA:306,_ZNSt15__allocated_ptrISaISt23_Sp_counted_ptr_inplaceIN5Catch5Clara6Detail15BoundFlagLambdaIZNS2_4HelpC4ERbEUlbE_EESaIvELN9__gnu_cxx12_Lock_policyE2EEEE3getEv
FNDA:306,_ZNSt15__allocated_ptrISaISt23_Sp_counted_ptr_inplaceIN5Catch5Clara6Detail15BoundManyLambdaIZNS1_21makeCommandLineParserERNS1_10ConfigDataEEUlRKNSt7__cxx1112basic_stringIcSt11char_traitsIcESaIcEEEE6_EESaIvELN9__gnu_cxx12_Lock_policyE2EEEE3getEv
FNDA:306,_ZNSt15__allocated_ptrISaISt23_Sp_counted_ptr_inplaceIN5Catch5Clara6Detail15BoundManyLambdaIZNS1_21makeCommandLineParserERNS1_10ConfigDataEEUlRKNSt7__cxx1112basic_stringIcSt11char_traitsIcESaIcEEEE_EESaIvELN9__gnu_cxx12_Lock_policyE2EEEE3getEv
FNDA:918,_ZNSt15__allocated_ptrISaISt23_Sp_counted_ptr_inplaceINSt7__cxx1112basic_stringIcSt11char_traitsIcESaIcEEESaIvELN9__gnu_cxx12_Lock_policyE2EEEE3getEv
FNDA:0,_ZNSt15__allocated_ptrISaISt23_Sp_counted_ptr_inplaceINSt8__detail4_NFAINSt7__cxx1112regex_traitsIcEEEESaIvELN9__gnu_cxx12_Lock_policyE2EEEE3getEv
FNDA:306,_ZSt18__allocate_guardedISaISt23_Sp_counted_ptr_inplaceIN5Catch5Clara6Detail11BoundLambdaIZNS1_21makeCommandLineParserERNS1_10ConfigDataEEUlRKNSt7__cxx1112basic_stringIcSt11char_traitsIcESaIcEEEE0_EESaIvELN9__gnu_cxx12_Lock_policyE2EEEESt15__allocated_ptrIT_ERSN_
FNDA:306,_ZSt18__allocate_guardedISaISt23_Sp_counted_ptr_inplaceIN5Catch5Clara6Detail11BoundLambdaIZNS1_21makeCommandLineParserERNS1_10ConfigDataEEUlRKNSt7__cxx1112basic_stringIcSt11char_traitsIcESaIcEEEE1_EESaIvELN9__gnu_cxx12_Lock_policyE2EEEESt15__allocated_ptrIT_ERSN_
FNDA:306,_ZSt18__allocate_guardedISaISt23_Sp_counted_ptr_inplaceIN5Catch5Clara6Detail11BoundLambdaIZNS1_21makeCommandLineParserERNS1_10ConfigDataEEUlRKNSt7__cxx1112basic_stringIcSt11char_traitsIcESaIcEEEE2_EESaIvELN9__gnu_cxx12_Lock_policyE2EEEESt15__allocated_ptrIT_ERSN_
FNDA:306,_ZSt18__allocate_guardedISaISt23_Sp_counted_ptr_inplaceIN5Catch5Clara6Detail11BoundLambdaIZNS1_21makeCommandLineParserERNS1_10ConfigDataEEUlRKNSt7__cxx1112basic_stringIcSt11char_traitsIcESaIcEEEE3_EESaIvELN9__gnu_cxx12_Lock_policyE2EEEESt15__allocated_ptrIT_ERSN_
FNDA:306,_ZSt18__allocate_guardedISaISt23_Sp_counted_ptr_inplaceIN5Catch5Clara6Detail11BoundLambdaIZNS1_21makeCommandLineParserERNS1_10ConfigDataEEUlRKNSt7__cxx1112basic_stringIcSt11char_traitsIcESaIcEEEE4_EESaIvELN9__gnu_cxx12_Lock_policyE2EEEESt15__allocated_ptrIT_ERSN_
FNDA:306,_ZSt18__allocate_guardedISaISt23_Sp_counted_ptr_inplaceIN5Catch5Clara6Detail11BoundLambdaIZNS1_21makeCommandLineParserERNS1_10ConfigDataEEUlRKNSt7__cxx1112basic_stringIcSt11char_traitsIcESaIcEEEE5_EESaIvELN9__gnu_cxx12_Lock_policyE2EEEESt15__allocated_ptrIT_ERSN_
FNDA:306,_ZSt18__allocate_guardedISaISt23_Sp_counted_ptr_inplaceIN5Catch5Clara6Detail11BoundLambdaIZNS1_21makeCommandLineParserERNS1_10ConfigDataEEUlRKNSt7__cxx1112basic_stringIcSt11char_traitsIcESaIcEEEE7_EESaIvELN9__gnu_cxx12_Lock_policyE2EEEESt15__allocated_ptrIT_ERSN_
FNDA:306,_ZSt18__allocate_guardedISaISt23_Sp_counted_ptr_inplaceIN5Catch5Clara6Detail11BoundLambdaIZNS1_21makeCommandLineParserERNS1_10ConfigDataEEUlRKNSt7__cxx1112basic_stringIcSt11char_traitsIcESaIcEEEE8_EESaIvELN9__gnu_cxx12_Lock_policyE2EEEESt15__allocated_ptrIT_ERSN_
FNDA:306,_ZSt18__allocate_guardedISaISt23_Sp_counted_ptr_inplaceIN5Catch5Clara6Detail11BoundLambdaIZNS1_21makeCommandLineParserERNS1_10ConfigDataEEUlbE0_EESaIvELN9__gnu_cxx12_Lock_policyE2EEEESt15__allocated_ptrIT_ERSF_
FNDA:306,_ZSt18__allocate_guardedISaISt23_Sp_counted_ptr_inplaceIN5Catch5Clara6Detail11BoundLambdaIZNS1_21makeCommandLineParserERNS1_10ConfigDataEEUliE_EESaIvELN9__gnu_cxx12_Lock_policyE2EEEESt15__allocated_ptrIT_ERSF_
FNDA:3978,_ZSt18__allocate_guardedISaISt23_Sp_counted_ptr_inplaceIN5Catch5Clara6Detail12BoundFlagRefESaIvELN9__gnu_cxx12_Lock_policyE2EEEESt15__allocated_ptrIT_ERSB_
FNDA:918,_ZSt18__allocate_guardedISaISt23_Sp_counted_ptr_inplaceIN5Catch5Clara6Detail13BoundValueRefINSt7__cxx1112basic_stringIcSt11char_traitsIcESaIcEEEEESaIvELN9__gnu_cxx12_Lock_policyE2EEEESt15__allocated_ptrIT_ERSI_
FNDA:612,_ZSt18__allocate_guardedISaISt23_Sp_counted_ptr_inplaceIN5Catch5Clara6Detail13BoundValueRefISt6vectorINSt7__cxx1112basic_stringIcSt11char_traitsIcESaIcEEESaISB_EEEESaIvELN9__gnu_cxx12_Lock_policyE2EEEESt15__allocated_ptrIT_ERSL_
FNDA:612,_ZSt18__allocate_guardedISaISt23_Sp_counted_ptr_inplaceIN5Catch5Clara6Detail13BoundValueRefIdEESaIvELN9__gnu_cxx12_Lock_policyE2EEEESt15__allocated_ptrIT_ERSC_
FNDA:612,_ZSt18__allocate_guardedISaISt23_Sp_counted_ptr_inplaceIN5Catch5Clara6Detail13BoundValueRefIjEESaIvELN9__gnu_cxx12_Lock_policyE2EEEESt15__allocated_ptrIT_ERSC_
FNDA:306,_ZSt18__allocate_guardedISaISt23_Sp_counted_ptr_inplaceIN5Catch5Clara6Detail13BoundValueRefIlEESaIvELN9__gnu_cxx12_Lock_policyE2EEEESt15__allocated_ptrIT_ERSC_
FNDA:306,_ZSt18__allocate_guardedISaISt23_Sp_counted_ptr_inplaceIN5Catch5Clara6Detail15BoundFlagLambdaIZNS1_21makeCommandLineParserERNS1_10ConfigDataEEUlbE_EESaIvELN9__gnu_cxx12_Lock_policyE2EEEESt15__allocated_ptrIT_ERSF_
FNDA:306,_ZSt18__allocate_guardedISaISt23_Sp_counted_ptr_inplaceIN5Catch5Clara6Detail15BoundFlagLambdaIZNS2_4HelpC4ERbEUlbE_EESaIvELN9__gnu_cxx12_Lock_policyE2EEEESt15__allocated_ptrIT_ERSF_
FNDA:306,_ZSt18__allocate_guardedISaISt23_Sp_counted_ptr_inplaceIN5Catch5Clara6Detail15BoundManyLambdaIZNS1_21makeCommandLineParserERNS1_10ConfigDataEEUlRKNSt7__cxx1112basic_stringIcSt11char_traitsIcESaIcEEEE6_EESaIvELN9__gnu_cxx12_Lock_policyE2EEEESt15__allocated_ptrIT_ERSN_
FNDA:306,_ZSt18__allocate_guardedISaISt23_Sp_counted_ptr_inplaceIN5Catch5Clara6Detail15BoundManyLambdaIZNS1_21makeCommandLineParserERNS1_10ConfigDataEEUlRKNSt7__cxx1112basic_stringIcSt11char_traitsIcESaIcEEEE_EESaIvELN9__gnu_cxx12_Lock_policyE2EEEESt15__allocated_ptrIT_ERSN_
FNDA:918,_ZSt18__allocate_guardedISaISt23_Sp_counted_ptr_inplaceINSt7__cxx1112basic_stringIcSt11char_traitsIcESaIcEEESaIvELN9__gnu_cxx12_Lock_policyE2EEEESt15__allocated_ptrIT_ERSD_
FNDA:0,_ZSt18__allocate_guardedISaISt23_Sp_counted_ptr_inplaceINSt8__detail4_NFAINSt7__cxx1112regex_traitsIcEEEESaIvELN9__gnu_cxx12_Lock_policyE2EEEESt15__allocated_ptrIT_ERSD_
FNF:110
FNH:105
DA:53,24480
DA:54,24480
DA:55,24480
DA:71,24480
DA:73,24480
DA:74,12240
DA:75,24480
DA:79,12240
DA:81,12240
DA:82,12240
DA:86,12240
DA:96,12240
DA:98,12240
LF:13
LH:13
end_of_record
TN:
SF:/usr/include/c++/13/bits/allocator.h
FNF:0
FNH:0
DA:163,244019115
DA:168,1126718209
DA:178,12552
DA:184,915
DA:217,0
DA:223,0
LF:6
LH:4
end_of_record
TN:
SF:/usr/include/c++/13/bits/atomic_base.h
FN:107,110,_ZStanSt12memory_orderSt23__memory_order_modifier
FNDA:120,_ZStanSt12memory_orderSt23__memory_order_modifier
FNF:1
FNH:1
DA:107,120
DA:109,120
DA:501,100
DA:502,120
DA:503,120
DA:505,100
DA:635,251022591
LF:7
LH:7
end_of_record
TN:
SF:/usr/include/c++/13/bits/basic_string.h
FN:3528,3541,_ZSt12__str_concatINSt7__cxx1112basic_stringIcSt11char_traitsIcESaIcEEEET_PKNS6_10value_typeENS6_9size_typeES9_SA_RKNS6_14allocator_typeE
FN:3571,3579,_ZStplIcSt11char_traitsIcESaIcEENSt7__cxx1112basic_stringIT_T0_T1_EEPKS5_RKS8_
FN:3625,3631,_ZStplIcSt11char_traitsIcESaIcEENSt7__cxx1112basic_stringIT_T0_T1_EERKS8_S5_
FN:3637,3639,_ZStplIcSt11char_traitsIcESaIcEENSt7__cxx1112basic_stringIT_T0_T1_EEOS8_RKS8_
FN:3651,3669,_ZStplIcSt11char_traitsIcESaIcEENSt7__cxx1112basic_stringIT_T0_T1_EEOS8_S9_
FN:3674,3676,_ZStplIcSt11char_traitsIcESaIcEENSt7__cxx1112basic_stringIT_T0_T1_EEPKS5_OS8_
FN:3681,3683,_ZStplIcSt11char_traitsIcESaIcEENSt7__cxx1112basic_stringIT_T0_T1_EES5_OS8_
FN:3688,3690,_ZStplIcSt11char_traitsIcESaIcEENSt7__cxx1112basic_stringIT_T0_T1_EEOS8_PKS5_
FN:3695,3697,_ZStplIcSt11char_traitsIcESaIcEENSt7__cxx1112basic_stringIT_T0_T1_EEOS8_S5_
FN:3710,3716,_ZSteqIcSt11char_traitsIcESaIcEEbRKNSt7__cxx1112basic_stringIT_T0_T1_EESA_
FN:3727,3732,_ZSteqIcSt11char_traitsIcESaIcEEbRKNSt7__cxx1112basic_stringIT_T0_T1_EEPKS5_
FN:3788,3791,_ZStneIcSt11char_traitsIcESaIcEEbRKNSt7__cxx1112basic_stringIT_T0_T1_EESA_
FN:3815,3817,_ZStneIcSt11char_traitsIcESaIcEEbRKNSt7__cxx1112basic_stringIT_T0_T1_EEPKS5_
FN:3829,3832,_ZStltIcSt11char_traitsIcESaIcEEbRKNSt7__cxx1112basic_stringIT_T0_T1_EESA_
FN:3911,3914,_ZStleIcSt11char_traitsIcESaIcEEbRKNSt7__cxx1112basic_stringIT_T0_T1_EESA_
FN:4140,4142,_ZNSt7__cxx116stoullERKNS_12basic_stringIcSt11char_traitsIcESaIcEEEPmi
FN:4204,4212,_ZNSt7__cxx119to_stringEm
FN:4251,4257,_ZNSt7__cxx119to_stringEd
FN:4487,4488,_ZNSt8literals15string_literalsli1sB5cxx11EPKcm
FN:641,650,_ZNSt7__cxx1112basic_stringIcSt11char_traitsIcESaIcEEC2IS3_EEPKcRKS3_
FN:641,650,_ZNSt7__cxx1112basic_stringIwSt11char_traitsIwESaIwEEC2IS3_EEPKwRKS3_
FN:664,666,_ZNSt7__cxx1112basic_stringIcSt11char_traitsIcESaIcEEC2IS3_EEmcRKS3_
FN:760,770,_ZNSt7__cxx1112basic_stringIcSt11char_traitsIcESaIcEEC2IN9__gnu_cxx17__normal_iteratorIPKcS4_EEvEET_SB_RKS3_
FN:760,770,_ZNSt7__cxx1112basic_stringIcSt11char_traitsIcESaIcEEC2IN9__gnu_cxx17__normal_iteratorIPcS4_EEvEET_SA_RKS3_
FN:760,770,_ZNSt7__cxx1112basic_stringIcSt11char_traitsIcESaIcEEC2IPcvEET_S7_RKS3_
FN:795,796,_ZNSt7__cxx1112basic_stringIwSt11char_traitsIwESaIwEEC2ISt17basic_string_viewIwS2_EvEERKT_RKS3_
FNDA:90,_ZSt12__str_concatINSt7__cxx1112basic_stringIcSt11char_traitsIcESaIcEEEET_PKNS6_10value_typeENS6_9size_typeES9_SA_RKNS6_14allocator_typeE
FNDA:90,_ZStplIcSt11char_traitsIcESaIcEENSt7__cxx1112basic_stringIT_T0_T1_EEPKS5_RKS8_
FNDA:0,_ZStplIcSt11char_traitsIcESaIcEENSt7__cxx1112basic_stringIT_T0_T1_EERKS8_S5_
FNDA:0,_ZStplIcSt11char_traitsIcESaIcEENSt7__cxx1112basic_stringIT_T0_T1_EEOS8_RKS8_
FNDA:30,_ZStplIcSt11char_traitsIcESaIcEENSt7__cxx1112basic_stringIT_T0_T1_EEOS8_S9_
FNDA:20,_ZStplIcSt11char_traitsIcESaIcEENSt7__cxx1112basic_stringIT_T0_T1_EEPKS5_OS8_
FNDA:0,_ZStplIcSt11char_traitsIcESaIcEENSt7__cxx1112basic_stringIT_T0_T1_EES5_OS8_
FNDA:30,_ZStplIcSt11char_traitsIcESaIcEENSt7__cxx1112basic_stringIT_T0_T1_EEOS8_PKS5_
FNDA:0,_ZStplIcSt11char_traitsIcESaIcEENSt7__cxx1112basic_stringIT_T0_T1_EEOS8_S5_
FNDA:18605,_ZSteqIcSt11char_traitsIcESaIcEEbRKNSt7__cxx1112basic_stringIT_T0_T1_EESA_
FNDA:0,_ZSteqIcSt11char_traitsIcESaIcEEbRKNSt7__cxx1112basic_stringIT_T0_T1_EEPKS5_
FNDA:0,_ZStneIcSt11char_traitsIcESaIcEEbRKNSt7__cxx1112basic_stringIT_T0_T1_EESA_
FNDA:0,_ZStneIcSt11char_traitsIcESaIcEEbRKNSt7__cxx1112basic_stringIT_T0_T1_EEPKS5_
FNDA:0,_ZStltIcSt11char_traitsIcESaIcEEbRKNSt7__cxx1112basic_stringIT_T0_T1_EESA_
FNDA:0,_ZStleIcSt11char_traitsIcESaIcEEbRKNSt7__cxx1112basic_stringIT_T0_T1_EESA_
FNDA:0,_ZNSt7__cxx116stoullERKNS_12basic_stringIcSt11char_traitsIcESaIcEEEPmi
FNDA:25,_ZNSt7__cxx119to_stringEm
FNDA:25,_ZNSt7__cxx119to_stringEd
FNDA:305,_ZNSt8literals15string_literalsli1sB5cxx11EPKcm
FNDA:6218,_ZNSt7__cxx1112basic_stringIcSt11char_traitsIcESaIcEEC2IS3_EEPKcRKS3_
FNDA:0,_ZNSt7__cxx1112basic_stringIwSt11char_traitsIwESaIwEEC2IS3_EEPKwRKS3_
FNDA:1395,_ZNSt7__cxx1112basic_stringIcSt11char_traitsIcESaIcEEC2IS3_EEmcRKS3_
FNDA:0,_ZNSt7__cxx1112basic_stringIcSt11char_traitsIcESaIcEEC2IN9__gnu_cxx17__normal_iteratorIPKcS4_EEvEET_SB_RKS3_
FNDA:0,_ZNSt7__cxx1112basic_stringIcSt11char_traitsIcESaIcEEC2IN9__gnu_cxx17__normal_iteratorIPcS4_EEvEET_SA_RKS3_
FNDA:25,_ZNSt7__cxx1112basic_stringIcSt11char_traitsIcESaIcEEC2IPcvEET_S7_RKS3_
FNDA:0,_ZNSt7__cxx1112basic_stringIwSt11char_traitsIwESaIwEEC2ISt17basic_string_viewIwS2_EvEERKT_RKS3_
FNF:26
FNH:12
DA:355,8332
DA:641,6218
DA:642,6218
DA:645,6218
DA:646,0
DA:648,6218
DA:649,6218
DA:650,6218
DA:664,1395
DA:665,1395
DA:666,1395
DA:760,25
DA:762,25
DA:765,25
DA:770,25
DA:795,0
DA:796,0
DA:3528,90
DA:3536,90
DA:3537,90
DA:3538,90
DA:3539,90
DA:3540,90
DA:3541,0
DA:3571,90
DA:3578,180
DA:3625,0
DA:3630,0
DA:3637,0
DA:3639,0
DA:3651,30
DA:3656,30
DA:3658,30
DA:3661,30
DA:3664,30
DA:3665,30
DA:3666,0
DA:3668,30
DA:3674,20
DA:3676,20
DA:3681,0
DA:3683,0
DA:3688,30
DA:3690,30
DA:3695,0
DA:3697,0
DA:3710,18605
DA:3714,18605
DA:3715,18605
DA:3727,0
DA:3730,0
DA:3731,0
DA:3788,0
DA:3791,0
DA:3815,0
DA:3817,0
DA:3829,0
DA:3832,0
DA:3911,0
DA:3914,0
DA:4140,0
DA:4141,0
DA:4142,0
DA:4204,25
DA:4209,25
DA:4210,25
DA:4211,25
DA:4212,0
DA:4251,25
DA:4253,25
DA:4256,25
DA:4487,305
DA:4488,915
LF:73
LH:45
end_of_record
TN:
SF:/usr/include/c++/13/bits/basic_string.tcc
FN:221,252,_ZNSt7__cxx1112basic_stringIcSt11char_traitsIcESaIcEE12_M_constructIN9__gnu_cxx17__normal_iteratorIPKcS4_EEEEvT_SB_St20forward_iterator_tag
FN:221,252,_ZNSt7__cxx1112basic_stringIcSt11char_traitsIcESaIcEE12_M_constructIN9__gnu_cxx17__normal_iteratorIPcS4_EEEEvT_SA_St20forward_iterator_tag
FN:221,252,_ZNSt7__cxx1112basic_stringIcSt11char_traitsIcESaIcEE12_M_constructIPKcEEvT_S8_St20forward_iterator_tag
FN:221,252,_ZNSt7__cxx1112basic_stringIcSt11char_traitsIcESaIcEE12_M_constructIPcEEvT_S7_St20forward_iterator_tag
FN:221,252,_ZNSt7__cxx1112basic_stringIwSt11char_traitsIwESaIwEE12_M_constructIPKwEEvT_S8_St20forward_iterator_tag
FN:239,239,_ZZNSt7__cxx1112basic_stringIcSt11char_traitsIcESaIcEE12_M_constructIN9__gnu_cxx17__normal_iteratorIPKcS4_EEEEvT_SB_St20forward_iterator_tagEN6_GuardC2EPS4_
FN:239,239,_ZZNSt7__cxx1112basic_stringIcSt11char_traitsIcESaIcEE12_M_constructIN9__gnu_cxx17__normal_iteratorIPcS4_EEEEvT_SA_St20forward_iterator_tagEN6_GuardC2EPS4_
FN:239,239,_ZZNSt7__cxx1112basic_stringIcSt11char_traitsIcESaIcEE12_M_constructIPKcEEvT_S8_St20forward_iterator_tagEN6_GuardC2EPS4_
FN:239,239,_ZZNSt7__cxx1112basic_stringIcSt11char_traitsIcESaIcEE12_M_constructIPcEEvT_S7_St20forward_iterator_tagEN6_GuardC2EPS4_
FN:239,239,_ZZNSt7__cxx1112basic_stringIwSt11char_traitsIwESaIwEE12_M_constructIPKwEEvT_S8_St20forward_iterator_tagEN6_GuardC2EPS4_
FN:242,242,_ZZNSt7__cxx1112basic_stringIcSt11char_traitsIcESaIcEE12_M_constructIN9__gnu_cxx17__normal_iteratorIPKcS4_EEEEvT_SB_St20forward_iterator_tagEN6_GuardD2Ev
FN:242,242,_ZZNSt7__cxx1112basic_stringIcSt11char_traitsIcESaIcEE12_M_constructIN9__gnu_cxx17__normal_iteratorIPcS4_EEEEvT_SA_St20forward_iterator_tagEN6_GuardD2Ev
FN:242,242,_ZZNSt7__cxx1112basic_stringIcSt11char_traitsIcESaIcEE12_M_constructIPKcEEvT_S8_St20forward_iterator_tagEN6_GuardD2Ev
FN:242,242,_ZZNSt7__cxx1112basic_stringIcSt11char_traitsIcESaIcEE12_M_constructIPcEEvT_S7_St20forward_iterator_tagEN6_GuardD2Ev
FN:242,242,_ZZNSt7__cxx1112basic_stringIwSt11char_traitsIwESaIwEE12_M_constructIPKwEEvT_S8_St20forward_iterator_tagEN6_GuardD2Ev
FNDA:0,_ZNSt7__cxx1112basic_stringIcSt11char_traitsIcESaIcEE12_M_constructIN9__gnu_cxx17__normal_iteratorIPKcS4_EEEEvT_SB_St20forward_iterator_tag
FNDA:0,_ZNSt7__cxx1112basic_stringIcSt11char_traitsIcESaIcEE12_M_constructIN9__gnu_cxx17__normal_iteratorIPcS4_EEEEvT_SA_St20forward_iterator_tag
FNDA:45933,_ZNSt7__cxx1112basic_stringIcSt11char_traitsIcESaIcEE12_M_constructIPKcEEvT_S8_St20forward_iterator_tag
FNDA:24466,_ZNSt7__cxx1112basic_stringIcSt11char_traitsIcESaIcEE12_M_constructIPcEEvT_S7_St20forward_iterator_tag
FNDA:0,_ZNSt7__cxx1112basic_stringIwSt11char_traitsIwESaIwEE12_M_constructIPKwEEvT_S8_St20forward_iterator_tag
FNDA:0,_ZZNSt7__cxx1112basic_stringIcSt11char_traitsIcESaIcEE12_M_constructIN9__gnu_cxx17__normal_iteratorIPKcS4_EEEEvT_SB_St20forward_iterator_tagEN6_GuardC2EPS4_
FNDA:0,_ZZNSt7__cxx1112basic_stringIcSt11char_traitsIcESaIcEE12_M_constructIN9__gnu_cxx17__normal_iteratorIPcS4_EEEEvT_SA_St20forward_iterator_tagEN6_GuardC2EPS4_
FNDA:45933,_ZZNSt7__cxx1112basic_stringIcSt11char_traitsIcESaIcEE12_M_constructIPKcEEvT_S8_St20forward_iterator_tagEN6_GuardC2EPS4_
FNDA:24466,_ZZNSt7__cxx1112basic_stringIcSt11char_traitsIcESaIcEE12_M_constructIPcEEvT_S7_St20forward_iterator_tagEN6_GuardC2EPS4_
FNDA:0,_ZZNSt7__cxx1112basic_stringIwSt11char_traitsIwESaIwEE12_M_constructIPKwEEvT_S8_St20forward_iterator_tagEN6_GuardC2EPS4_
FNDA:0,_ZZNSt7__cxx1112basic_stringIcSt11char_traitsIcESaIcEE12_M_constructIN9__gnu_cxx17__normal_iteratorIPKcS4_EEEEvT_SB_St20forward_iterator_tagEN6_GuardD2Ev
FNDA:0,_ZZNSt7__cxx1112basic_stringIcSt11char_traitsIcESaIcEE12_M_constructIN9__gnu_cxx17__normal_iteratorIPcS4_EEEEvT_SA_St20forward_iterator_tagEN6_GuardD2Ev
FNDA:45933,_ZZNSt7__cxx1112basic_stringIcSt11char_traitsIcESaIcEE12_M_constructIPKcEEvT_S8_St20forward_iterator_tagEN6_GuardD2Ev
FNDA:24466,_ZZNSt7__cxx1112basic_stringIcSt11char_traitsIcESaIcEE12_M_constructIPcEEvT_S7_St20forward_iterator_tagEN6_GuardD2Ev
FNDA:0,_ZZNSt7__cxx1112basic_stringIwSt11char_traitsIwESaIwEE12_M_constructIPKwEEvT_S8_St20forward_iterator_tagEN6_GuardD2Ev
FNF:15
FNH:6
DA:221,70399
DA:225,70399
DA:227,70399
DA:229,62067
DA:230,62067
DA:239,70399
DA:242,70399
DA:245,70399
DA:247,70399
DA:249,70399
DA:251,70399
DA:252,70399
LF:12
LH:12
end_of_record
TN:
SF:/usr/include/c++/13/bits/char_traits.h
FN:136,137,_ZN9__gnu_cxx11char_traitsIcE2eqERKcS3_
FN:136,137,_ZN9__gnu_cxx11char_traitsIwE2eqERKwS3_
FN:199,206,_ZN9__gnu_cxx11char_traitsIcE6lengthEPKc
FN:199,206,_ZN9__gnu_cxx11char_traitsIwE6lengthEPKw
FN:366,371,_ZNSt11char_traitsIcE2ltERKcS2_
FN:374,390,_ZNSt11char_traitsIcE7compareEPKcS2_m
FN:393,400,_ZNSt11char_traitsIcE6lengthEPKc
FN:427,436,_ZNSt11char_traitsIcE4copyEPcPKcm
FN:524,531,_ZNSt11char_traitsIwE6lengthEPKw
FNDA:0,_ZN9__gnu_cxx11char_traitsIcE2eqERKcS3_
FNDA:0,_ZN9__gnu_cxx11char_traitsIwE2eqERKwS3_
FNDA:0,_ZN9__gnu_cxx11char_traitsIcE6lengthEPKc
FNDA:0,_ZN9__gnu_cxx11char_traitsIwE6lengthEPKw
FNDA:0,_ZNSt11char_traitsIcE2ltERKcS2_
FNDA:835,_ZNSt11char_traitsIcE7compareEPKcS2_m
FNDA:6308,_ZNSt11char_traitsIcE6lengthEPKc
FNDA:0,_ZNSt11char_traitsIcE4copyEPcPKcm
FNDA:0,_ZNSt11char_traitsIwE6lengthEPKw
FNF:9
FNH:2
DA:136,0
DA:137,0
DA:199,0
DA:202,0
DA:203,0
DA:204,0
DA:205,0
DA:366,0
DA:369,0
DA:370,0
DA:374,835
DA:376,835
DA:377,0
DA:379,835
DA:381,0
DA:382,0
DA:383,0
DA:384,0
DA:385,0
DA:386,0
DA:389,835
DA:393,6308
DA:396,6308
DA:397,0
DA:399,6308
DA:427,0
DA:429,0
DA:430,0
DA:435,0
DA:524,0
DA:527,0
DA:528,0
DA:530,0
LF:33
LH:7
end_of_record
TN:
SF:/usr/include/c++/13/bits/charconv.h
FN:55,74,_ZNSt8__detail14__to_chars_lenImEEjT_i
FN:81,110,_ZNSt8__detail18__to_chars_10_implImEEvPcjT_
FNDA:25,_ZNSt8__detail14__to_chars_lenImEEjT_i
FNDA:25,_ZNSt8__detail18__to_chars_10_implImEEvPcjT_
FNF:2
FNH:2
DA:55,25
DA:61,25
DA:62,25
DA:63,25
DA:64,25
DA:67,25
DA:68,0
DA:69,0
DA:70,0
DA:71,0
DA:72,0
DA:81,25
DA:87,25
DA:93,25
DA:94,25
DA:96,0
DA:97,0
DA:98,0
DA:99,0
DA:100,0
DA:102,25
DA:104,0
DA:105,0
DA:106,0
DA:109,25
DA:110,25
LF:26
LH:13
end_of_record
TN:
SF:/usr/include/c++/13/bits/chrono.h
FN:1101,1108,_ZNSt6chronoplINS_3_V212steady_clockENS_8durationIlSt5ratioILl1ELl1000000000EEEElS5_EENS_10time_pointIT_NSt11common_typeIJT0_NS3_IT1_T2_EEEE4typeEEERKNS7_IS8_SA_EERKSD_
FN:1129,1136,_ZNSt6chronomiINS_3_V212steady_clockENS_8durationIlSt5ratioILl1ELl1000000000EEEElS4_ILl1ELl1EEEENS_10time_pointIT_NSt11common_typeIJT0_NS3_IT1_T2_EEEE4typeEEERKNS8_IS9_SB_EERKSE_
FN:1174,1176,_ZNSt6chronoltINS_3_V212steady_clockENS_8durationIlSt5ratioILl1ELl1000000000EEEES6_EEbRKNS_10time_pointIT_T0_EERKNS7_IS8_T1_EE
FN:1192,1194,_ZNSt6chronogeINS_3_V212steady_clockENS_8durationIlSt5ratioILl1ELl1000000000EEEES6_EEbRKNS_10time_pointIT_T0_EERKNS7_IS8_T1_EE
FN:221,226,_ZNSt6chrono20__duration_cast_implINS_8durationIlSt5ratioILl1ELl1000000000EEEES2_ILl1000000000ELl1EEdLb0ELb1EE6__castIdS2_ILl1ELl1EEEES4_RKNS1_IT_T0_EE
FN:221,226,_ZNSt6chrono20__duration_cast_implINS_8durationIlSt5ratioILl1ELl1000000000EEEES2_ILl1000000000ELl1EElLb0ELb1EE6__castIlS2_ILl1ELl1EEEES4_RKNS1_IT_T0_EE
FN:273,291,_ZNSt6chrono13duration_castINS_8durationIlSt5ratioILl1ELl1000000000EEEEdS2_ILl1ELl1EEEENSt9enable_ifIXsrNS_13__is_durationIT_EE5valueES8_E4typeERKNS1_IT0_T1_EE
FN:273,291,_ZNSt6chrono13duration_castINS_8durationIlSt5ratioILl1ELl1000000000EEEElS2_ILl1ELl1EEEENSt9enable_ifIXsrNS_13__is_durationIT_EE5valueES8_E4typeERKNS1_IT0_T1_EE
FN:273,291,_ZNSt6chrono13duration_castINS_8durationIlSt5ratioILl1ELl1000000000EEEElS3_EENSt9enable_ifIXsrNS_13__is_durationIT_EE5valueES7_E4typeERKNS1_IT0_T1_EE
FN:573,574,_ZNSt6chrono8durationIdSt5ratioILl1ELl1EEEC2IdvEERKT_
FN:573,574,_ZNSt6chrono8durationIlSt5ratioILl1ELl1000000000EEEC1IlvEERKT_
FN:573,574,_ZNSt6chrono8durationIlSt5ratioILl1ELl1000EEEC2IlvEERKT_
FN:573,574,_ZNSt6chrono8durationIlSt5ratioILl1ELl1EEEC2IivEERKT_
FN:581,582,_ZNSt6chrono8durationIlSt5ratioILl1ELl1000000000EEEC2IlS1_ILl1ELl1EEvEERKNS0_IT_T0_EE
FN:589,590,_ZNKSt6chrono8durationIdSt5ratioILl1ELl1000000000EEE5countEv
FN:589,590,_ZNKSt6chrono8durationIdSt5ratioILl1ELl1EEE5countEv
FN:589,590,_ZNKSt6chrono8durationIlSt5ratioILl1ELl1000000000EEE5countEv
FN:589,590,_ZNKSt6chrono8durationIlSt5ratioILl1ELl1EEE5countEv
FN:696,703,_ZNSt6chronoplIlSt5ratioILl1ELl1000000000EElS2_EENSt11common_typeIJNS_8durationIT_T0_EENS4_IT1_T2_EEEE4typeERKS7_RKSA_
FN:710,717,_ZNSt6chronomiIlSt5ratioILl1ELl1000000000EElS1_ILl1ELl1EEEENSt11common_typeIJNS_8durationIT_T0_EENS5_IT1_T2_EEEE4typeERKS8_RKSB_
FN:822,829,_ZNSt6chronoltIlSt5ratioILl1ELl1000000000EElS2_EEbRKNS_8durationIT_T0_EERKNS3_IT1_T2_EE
FN:936,938,_ZNSt6chrono10time_pointINS_3_V212steady_clockENS_8durationIlSt5ratioILl1ELl1000000000EEEEEC2ERKS6_
FN:949,950,_ZNKSt6chrono10time_pointINS_3_V212steady_clockENS_8durationIlSt5ratioILl1ELl1000000000EEEEE16time_since_epochEv
FNDA:5,_ZNSt6chronoplINS_3_V212steady_clockENS_8durationIlSt5ratioILl1ELl1000000000EEEElS5_EENS_10time_pointIT_NSt11common_typeIJT0_NS3_IT1_T2_EEEE4typeEEERKNS7_IS8_SA_EERKSD_
FNDA:5,_ZNSt6chronomiINS_3_V212steady_clockENS_8durationIlSt5ratioILl1ELl1000000000EEEElS4_ILl1ELl1EEEENS_10time_pointIT_NSt11common_typeIJT0_NS3_IT1_T2_EEEE4typeEEERKNS8_IS9_SB_EERKSE_
FNDA:144481,_ZNSt6chronoltINS_3_V212steady_clockENS_8durationIlSt5ratioILl1ELl1000000000EEEES6_EEbRKNS_10time_pointIT_T0_EERKNS7_IS8_T1_EE
FNDA:144481,_ZNSt6chronogeINS_3_V212steady_clockENS_8durationIlSt5ratioILl1ELl1000000000EEEES6_EEbRKNS_10time_pointIT_T0_EERKNS7_IS8_T1_EE
FNDA:5,_ZNSt6chrono20__duration_cast_implINS_8durationIlSt5ratioILl1ELl1000000000EEEES2_ILl1000000000ELl1EEdLb0ELb1EE6__castIdS2_ILl1ELl1EEEES4_RKNS1_IT_T0_EE
FNDA:5,_ZNSt6chrono20__duration_cast_implINS_8durationIlSt5ratioILl1ELl1000000000EEEES2_ILl1000000000ELl1EElLb0ELb1EE6__castIlS2_ILl1ELl1EEEES4_RKNS1_IT_T0_EE
FNDA:5,_ZNSt6chrono13duration_castINS_8durationIlSt5ratioILl1ELl1000000000EEEEdS2_ILl1ELl1EEEENSt9enable_ifIXsrNS_13__is_durationIT_EE5valueES8_E4typeERKNS1_IT0_T1_EE
FNDA:5,_ZNSt6chrono13duration_castINS_8durationIlSt5ratioILl1ELl1000000000EEEElS2_ILl1ELl1EEEENSt9enable_ifIXsrNS_13__is_durationIT_EE5valueES8_E4typeERKNS1_IT0_T1_EE
FNDA:610,_ZNSt6chrono13duration_castINS_8durationIlSt5ratioILl1ELl1000000000EEEElS3_EENSt9enable_ifIXsrNS_13__is_durationIT_EE5valueES7_E4typeERKNS1_IT0_T1_EE
FNDA:5,_ZNSt6chrono8durationIdSt5ratioILl1ELl1EEEC2IdvEERKT_
FNDA:20,_ZNSt6chrono8durationIlSt5ratioILl1ELl1000000000EEEC1IlvEERKT_
FNDA:0,_ZNSt6chrono8durationIlSt5ratioILl1ELl1000EEEC2IlvEERKT_
FNDA:5,_ZNSt6chrono8durationIlSt5ratioILl1ELl1EEEC2IivEERKT_
FNDA:5,_ZNSt6chrono8durationIlSt5ratioILl1ELl1000000000EEEC2IlS1_ILl1ELl1EEvEERKNS0_IT_T0_EE
FNDA:0,_ZNKSt6chrono8durationIdSt5ratioILl1ELl1000000000EEE5countEv
FNDA:5,_ZNKSt6chrono8durationIdSt5ratioILl1ELl1EEE5countEv
FNDA:289597,_ZNKSt6chrono8durationIlSt5ratioILl1ELl1000000000EEE5countEv
FNDA:5,_ZNKSt6chrono8durationIlSt5ratioILl1ELl1EEE5countEv
FNDA:5,_ZNSt6chronoplIlSt5ratioILl1ELl1000000000EElS2_EENSt11common_typeIJNS_8durationIT_T0_EENS4_IT1_T2_EEEE4typeERKS7_RKSA_
FNDA:5,_ZNSt6chronomiIlSt5ratioILl1ELl1000000000EElS1_ILl1ELl1EEEENSt11common_typeIJNS_8durationIT_T0_EENS5_IT1_T2_EEEE4typeERKS8_RKSB_
FNDA:144481,_ZNSt6chronoltIlSt5ratioILl1ELl1000000000EElS2_EEbRKNS_8durationIT_T0_EERKNS3_IT1_T2_EE
FNDA:10,_ZNSt6chrono10time_pointINS_3_V212steady_clockENS_8durationIlSt5ratioILl1ELl1000000000EEEEEC2ERKS6_
FNDA:289582,_ZNKSt6chrono10time_pointINS_3_V212steady_clockENS_8durationIlSt5ratioILl1ELl1000000000EEEEE16time_since_epochEv
FNF:23
FNH:21
DA:221,10
DA:224,20
DA:225,10
DA:273,620
DA:277,610
DA:287,10
DA:573,30
DA:574,30
DA:581,5
DA:582,5
DA:589,289607
DA:590,289607
DA:696,5
DA:702,5
DA:710,5
DA:716,5
DA:822,144481
DA:828,144481
DA:936,10
DA:937,10
DA:938,10
DA:949,289582
DA:950,289582
DA:1101,5
DA:1107,5
DA:1129,5
DA:1135,5
DA:1174,144481
DA:1176,144481
DA:1192,144481
DA:1194,144481
LF:31
LH:31
end_of_record
TN:
SF:/usr/include/c++/13/bits/cpp_type_traits.h
FN:607,608,_ZSt12__miter_baseIN9__gnu_cxx17__normal_iteratorIPKN5Catch12ReporterSpecESt6vectorIS3_SaIS3_EEEEET_SA_
FN:607,608,_ZSt12__miter_baseIN9__gnu_cxx17__normal_iteratorIPKN5Catch5Clara3ArgESt6vectorIS4_SaIS4_EEEEET_SB_
FN:607,608,_ZSt12__miter_baseIN9__gnu_cxx17__normal_iteratorIPKN5Catch5Clara3OptESt6vectorIS4_SaIS4_EEEEET_SB_
FN:607,608,_ZSt12__miter_baseIN9__gnu_cxx17__normal_iteratorIPKN5Catch9StringRefESt6vectorIS3_SaIS3_EEEEET_SA_
FN:607,608,_ZSt12__miter_baseIN9__gnu_cxx17__normal_iteratorIPKNSt6chrono8durationIdSt5ratioILl1ELl1000000000EEEESt6vectorIS6_SaIS6_EEEEET_SD_
FN:607,608,_ZSt12__miter_baseIN9__gnu_cxx17__normal_iteratorIPKNSt7__cxx1112basic_stringIcSt11char_traitsIcESaIcEEESt6vectorIS7_SaIS7_EEEEET_SE_
FN:607,608,_ZSt12__miter_baseIN9__gnu_cxx17__normal_iteratorIPKNSt7__cxx119sub_matchINS1_IPKcNS2_12basic_stringIcSt11char_traitsIcESaIcEEEEEEESt6vectorISC_SaISC_EEEEET_SJ_
FN:607,608,_ZSt12__miter_baseIN9__gnu_cxx17__normal_iteratorIPKPKN5Catch14TestCaseHandleESt6vectorIS5_SaIS5_EEEEET_SC_
FN:607,608,_ZSt12__miter_baseIN9__gnu_cxx17__normal_iteratorIPKcSt6vectorIcSaIcEEEEET_S8_
FN:607,608,_ZSt12__miter_baseIN9__gnu_cxx17__normal_iteratorIPKdSt6vectorIdSaIdEEEEET_S8_
FN:607,608,_ZSt12__miter_baseIN9__gnu_cxx17__normal_iteratorIPKmSt6vectorImSaImEEEEET_S8_
FN:607,608,_ZSt12__miter_baseIN9__gnu_cxx17__normal_iteratorIPN5Catch11MessageInfoESt6vectorIS3_SaIS3_EEEEET_S9_
FN:607,608,_ZSt12__miter_baseIN9__gnu_cxx17__normal_iteratorIPN5Catch14TestCaseHandleESt6vectorIS3_SaIS3_EEEEET_S9_
FN:607,608,_ZSt12__miter_baseIN9__gnu_cxx17__normal_iteratorIPN5Catch3TagESt6vectorIS3_SaIS3_EEEEET_S9_
FN:607,608,_ZSt12__miter_baseIN9__gnu_cxx17__normal_iteratorIPN5Catch5Clara6Detail5TokenESt6vectorIS5_SaIS5_EEEEET_SB_
FN:607,608,_ZSt12__miter_baseIN9__gnu_cxx17__normal_iteratorIPNSt7__cxx1112basic_stringIcSt11char_traitsIcESaIcEEESt6vectorIS7_SaIS7_EEEEET_SD_
FN:607,608,_ZSt12__miter_baseIN9__gnu_cxx17__normal_iteratorIPSt4pairISt6vectorIdSaIdEEdES3_IS6_SaIS6_EEEEET_SB_
FN:607,608,_ZSt12__miter_baseIN9__gnu_cxx17__normal_iteratorIPSt4pairImN5Catch14TestCaseHandleEESt6vectorIS5_SaIS5_EEEEET_SB_
FN:607,608,_ZSt12__miter_baseIN9__gnu_cxx17__normal_iteratorIPcSt6vectorIcSaIcEEEEET_S7_
FN:607,608,_ZSt12__miter_baseIN9__gnu_cxx17__normal_iteratorIPdSt6vectorIdSaIdEEEEET_S7_
FN:607,608,_ZSt12__miter_baseIN9__gnu_cxx17__normal_iteratorIPmSt6vectorImSaImEEEEET_S7_
FN:607,608,_ZSt12__miter_baseIPKcET_S2_
FN:607,608,_ZSt12__miter_baseIPKdET_S2_
FN:607,608,_ZSt12__miter_baseIPN5Catch12ReporterSpecEET_S3_
FN:607,608,_ZSt12__miter_baseIPN5Catch5Clara3ArgEET_S4_
FN:607,608,_ZSt12__miter_baseIPN5Catch5Clara3OptEET_S4_
FN:607,608,_ZSt12__miter_baseIPN5Catch6Detail10unique_ptrINS0_14IEventListenerEEEET_S6_
FN:607,608,_ZSt12__miter_baseIPN5Catch9StringRefEET_S3_
FN:607,608,_ZSt12__miter_baseIPNSt7__cxx1112basic_stringIcSt11char_traitsIcESaIcEEEET_S7_
FN:607,608,_ZSt12__miter_baseIPNSt7__cxx119sub_matchIN9__gnu_cxx17__normal_iteratorIPKcNS0_12basic_stringIcSt11char_traitsIcESaIcEEEEEEEET_SE_
FN:607,608,_ZSt12__miter_baseIPPN5Catch12JsonReporter6WriterEET_S5_
FN:607,608,_ZSt12__miter_baseIPPN5Catch15JsonArrayWriterEET_S4_
FN:607,608,_ZSt12__miter_baseIPPN5Catch16JsonObjectWriterEET_S4_
FN:607,608,_ZSt12__miter_baseIPPNSt8__detail9_StateSeqINSt7__cxx1112regex_traitsIcEEEEET_S8_
FN:607,608,_ZSt12__miter_baseIPPcET_S2_
FN:607,608,_ZSt12__miter_baseIPPlET_S2_
FN:607,608,_ZSt12__miter_baseIPcET_S1_
FN:607,608,_ZSt12__miter_baseIPdET_S1_
FNDA:0,_ZSt12__miter_baseIN9__gnu_cxx17__normal_iteratorIPKN5Catch12ReporterSpecESt6vectorIS3_SaIS3_EEEEET_SA_
FNDA:0,_ZSt12__miter_baseIN9__gnu_cxx17__normal_iteratorIPKN5Catch5Clara3ArgESt6vectorIS4_SaIS4_EEEEET_SB_
FNDA:0,_ZSt12__miter_baseIN9__gnu_cxx17__normal_iteratorIPKN5Catch5Clara3OptESt6vectorIS4_SaIS4_EEEEET_SB_
FNDA:0,_ZSt12__miter_baseIN9__gnu_cxx17__normal_iteratorIPKN5Catch9StringRefESt6vectorIS3_SaIS3_EEEEET_SA_
FNDA:0,_ZSt12__miter_baseIN9__gnu_cxx17__normal_iteratorIPKNSt6chrono8durationIdSt5ratioILl1ELl1000000000EEEESt6vectorIS6_SaIS6_EEEEET_SD_
FNDA:0,_ZSt12__miter_baseIN9__gnu_cxx17__normal_iteratorIPKNSt7__cxx1112basic_stringIcSt11char_traitsIcESaIcEEESt6vectorIS7_SaIS7_EEEEET_SE_
FNDA:0,_ZSt12__miter_baseIN9__gnu_cxx17__normal_iteratorIPKNSt7__cxx119sub_matchINS1_IPKcNS2_12basic_stringIcSt11char_traitsIcESaIcEEEEEEESt6vectorISC_SaISC_EEEEET_SJ_
FNDA:610,_ZSt12__miter_baseIN9__gnu_cxx17__normal_iteratorIPKPKN5Catch14TestCaseHandleESt6vectorIS5_SaIS5_EEEEET_SC_
FNDA:0,_ZSt12__miter_baseIN9__gnu_cxx17__normal_iteratorIPKcSt6vectorIcSaIcEEEEET_S8_
FNDA:1114401272,_ZSt12__miter_baseIN9__gnu_cxx17__normal_iteratorIPKdSt6vectorIdSaIdEEEEET_S8_
FNDA:5440,_ZSt12__miter_baseIN9__gnu_cxx17__normal_iteratorIPKmSt6vectorImSaImEEEEET_S8_
FNDA:0,_ZSt12__miter_baseIN9__gnu_cxx17__normal_iteratorIPN5Catch11MessageInfoESt6vectorIS3_SaIS3_EEEEET_S9_
FNDA:0,_ZSt12__miter_baseIN9__gnu_cxx17__normal_iteratorIPN5Catch14TestCaseHandleESt6vectorIS3_SaIS3_EEEEET_S9_
FNDA:0,_ZSt12__miter_baseIN9__gnu_cxx17__normal_iteratorIPN5Catch3TagESt6vectorIS3_SaIS3_EEEEET_S9_
FNDA:0,_ZSt12__miter_baseIN9__gnu_cxx17__normal_iteratorIPN5Catch5Clara6Detail5TokenESt6vectorIS5_SaIS5_EEEEET_SB_
FNDA:0,_ZSt12__miter_baseIN9__gnu_cxx17__normal_iteratorIPNSt7__cxx1112basic_stringIcSt11char_traitsIcESaIcEEESt6vectorIS7_SaIS7_EEEEET_SD_
FNDA:218,_ZSt12__miter_baseIN9__gnu_cxx17__normal_iteratorIPSt4pairISt6vectorIdSaIdEEdES3_IS6_SaIS6_EEEEET_SB_
FNDA:0,_ZSt12__miter_baseIN9__gnu_cxx17__normal_iteratorIPSt4pairImN5Catch14TestCaseHandleEESt6vectorIS5_SaIS5_EEEEET_SB_
FNDA:0,_ZSt12__miter_baseIN9__gnu_cxx17__normal_iteratorIPcSt6vectorIcSaIcEEEEET_S7_
FNDA:1400,_ZSt12__miter_baseIN9__gnu_cxx17__normal_iteratorIPdSt6vectorIdSaIdEEEEET_S7_
FNDA:582603242,_ZSt12__miter_baseIN9__gnu_cxx17__normal_iteratorIPmSt6vectorImSaImEEEEET_S7_
FNDA:0,_ZSt12__miter_baseIPKcET_S2_
FNDA:510,_ZSt12__miter_baseIPKdET_S2_
FNDA:0,_ZSt12__miter_baseIPN5Catch12ReporterSpecEET_S3_
FNDA:0,_ZSt12__miter_baseIPN5Catch5Clara3ArgEET_S4_
FNDA:0,_ZSt12__miter_baseIPN5Catch5Clara3OptEET_S4_
FNDA:0,_ZSt12__miter_baseIPN5Catch6Detail10unique_ptrINS0_14IEventListenerEEEET_S6_
FNDA:0,_ZSt12__miter_baseIPN5Catch9StringRefEET_S3_
FNDA:0,_ZSt12__miter_baseIPNSt7__cxx1112basic_stringIcSt11char_traitsIcESaIcEEEET_S7_
FNDA:0,_ZSt12__miter_baseIPNSt7__cxx119sub_matchIN9__gnu_cxx17__normal_iteratorIPKcNS0_12basic_stringIcSt11char_traitsIcESaIcEEEEEEEET_SE_
FNDA:0,_ZSt12__miter_baseIPPN5Catch12JsonReporter6WriterEET_S5_
FNDA:0,_ZSt12__miter_baseIPPN5Catch15JsonArrayWriterEET_S4_
FNDA:0,_ZSt12__miter_baseIPPN5Catch16JsonObjectWriterEET_S4_
FNDA:0,_ZSt12__miter_baseIPPNSt8__detail9_StateSeqINSt7__cxx1112regex_traitsIcEEEEET_S8_
FNDA:0,_ZSt12__miter_baseIPPcET_S2_
FNDA:0,_ZSt12__miter_baseIPPlET_S2_
FNDA:0,_ZSt12__miter_baseIPcET_S1_
FNDA:0,_ZSt12__miter_baseIPdET_S1_
FNF:38
FNH:7
DA:607,1697012692
DA:608,1697012692
LF:2
LH:2
end_of_record
TN:
SF:/usr/include/c++/13/bits/deque.tcc
FN:164,180,_ZNSt5dequeIN5Catch12JsonReporter6WriterESaIS2_EE12emplace_backIJS2_EEERS2_DpOT_
FN:164,180,_ZNSt5dequeIN5Catch15JsonArrayWriterESaIS1_EE12emplace_backIJS1_EEERS1_DpOT_
FN:164,180,_ZNSt5dequeIN5Catch16JsonObjectWriterESaIS1_EE12emplace_backIJRSoEEERS1_DpOT_
FN:164,180,_ZNSt5dequeIN5Catch16JsonObjectWriterESaIS1_EE12emplace_backIJS1_EEERS1_DpOT_
FN:164,180,_ZNSt5dequeINSt8__detail9_StateSeqINSt7__cxx1112regex_traitsIcEEEESaIS5_EE12emplace_backIJS5_EEERS5_DpOT_
FN:484,516,_ZNSt5dequeIN5Catch12JsonReporter6WriterESaIS2_EE16_M_push_back_auxIJS2_EEEvDpOT_
FN:484,516,_ZNSt5dequeIN5Catch15JsonArrayWriterESaIS1_EE16_M_push_back_auxIJS1_EEEvDpOT_
FN:484,516,_ZNSt5dequeIN5Catch16JsonObjectWriterESaIS1_EE16_M_push_back_auxIJRSoEEEvDpOT_
FN:484,516,_ZNSt5dequeIN5Catch16JsonObjectWriterESaIS1_EE16_M_push_back_auxIJS1_EEEvDpOT_
FN:484,516,_ZNSt5dequeINSt8__detail9_StateSeqINSt7__cxx1112regex_traitsIcEEEESaIS5_EE16_M_push_back_auxIJRKS5_EEEvDpOT_
FN:484,516,_ZNSt5dequeINSt8__detail9_StateSeqINSt7__cxx1112regex_traitsIcEEEESaIS5_EE16_M_push_back_auxIJS5_EEEvDpOT_
FN:484,516,_ZNSt5dequeIcSaIcEE16_M_push_back_auxIJRKcEEEvDpOT_
FN:484,516,_ZNSt5dequeIlSaIlEE16_M_push_back_auxIJRKlEEEvDpOT_
FN:560,568,_ZNSt5dequeIN5Catch12JsonReporter6WriterESaIS2_EE15_M_pop_back_auxEv
FN:560,568,_ZNSt5dequeIN5Catch15JsonArrayWriterESaIS1_EE15_M_pop_back_auxEv
FN:560,568,_ZNSt5dequeIN5Catch16JsonObjectWriterESaIS1_EE15_M_pop_back_auxEv
FN:560,568,_ZNSt5dequeINSt8__detail9_StateSeqINSt7__cxx1112regex_traitsIcEEEESaIS5_EE15_M_pop_back_auxEv
FN:560,568,_ZNSt5dequeIcSaIcEE15_M_pop_back_auxEv
FN:560,568,_ZNSt5dequeIlSaIlEE15_M_pop_back_auxEv
FN:859,877,_ZNSt5dequeIN5Catch15JsonArrayWriterESaIS1_EE19_M_destroy_data_auxESt15_Deque_iteratorIS1_RS1_PS1_ES7_
FN:859,877,_ZNSt5dequeIN5Catch16JsonObjectWriterESaIS1_EE19_M_destroy_data_auxESt15_Deque_iteratorIS1_RS1_PS1_ES7_
FN:931,973,_ZNSt5dequeIN5Catch12JsonReporter6WriterESaIS2_EE17_M_reallocate_mapEmb
FN:931,973,_ZNSt5dequeIN5Catch15JsonArrayWriterESaIS1_EE17_M_reallocate_mapEmb
FN:931,973,_ZNSt5dequeIN5Catch16JsonObjectWriterESaIS1_EE17_M_reallocate_mapEmb
FN:931,973,_ZNSt5dequeINSt8__detail9_StateSeqINSt7__cxx1112regex_traitsIcEEEESaIS5_EE17_M_reallocate_mapEmb
FN:931,973,_ZNSt5dequeIcSaIcEE17_M_reallocate_mapEmb
FN:931,973,_ZNSt5dequeIlSaIlEE17_M_reallocate_mapEmb
FNDA:2,_ZNSt5dequeIN5Catch12JsonReporter6WriterESaIS2_EE12emplace_backIJS2_EEERS2_DpOT_
FNDA:0,_ZNSt5dequeIN5Catch15JsonArrayWriterESaIS1_EE12emplace_backIJS1_EEERS1_DpOT_
FNDA:1,_ZNSt5dequeIN5Catch16JsonObjectWriterESaIS1_EE12emplace_backIJRSoEEERS1_DpOT_
FNDA:1,_ZNSt5dequeIN5Catch16JsonObjectWriterESaIS1_EE12emplace_backIJS1_EEERS1_DpOT_
FNDA:0,_ZNSt5dequeINSt8__detail9_StateSeqINSt7__cxx1112regex_traitsIcEEEESaIS5_EE12emplace_backIJS5_EEERS5_DpOT_
FNDA:0,_ZNSt5dequeIN5Catch12JsonReporter6WriterESaIS2_EE16_M_push_back_auxIJS2_EEEvDpOT_
FNDA:0,_ZNSt5dequeIN5Catch15JsonArrayWriterESaIS1_EE16_M_push_back_auxIJS1_EEEvDpOT_
FNDA:0,_ZNSt5dequeIN5Catch16JsonObjectWriterESaIS1_EE16_M_push_back_auxIJRSoEEEvDpOT_
FNDA:0,_ZNSt5dequeIN5Catch16JsonObjectWriterESaIS1_EE16_M_push_back_auxIJS1_EEEvDpOT_
FNDA:0,_ZNSt5dequeINSt8__detail9_StateSeqINSt7__cxx1112regex_traitsIcEEEESaIS5_EE16_M_push_back_auxIJRKS5_EEEvDpOT_
FNDA:0,_ZNSt5dequeINSt8__detail9_StateSeqINSt7__cxx1112regex_traitsIcEEEESaIS5_EE16_M_push_back_auxIJS5_EEEvDpOT_
FNDA:0,_ZNSt5dequeIcSaIcEE16_M_push_back_auxIJRKcEEEvDpOT_
FNDA:0,_ZNSt5dequeIlSaIlEE16_M_push_back_auxIJRKlEEEvDpOT_
FNDA:0,_ZNSt5dequeIN5Catch12JsonReporter6WriterESaIS2_EE15_M_pop_back_auxEv
FNDA:0,_ZNSt5dequeIN5Catch15JsonArrayWriterESaIS1_EE15_M_pop_back_auxEv
FNDA:0,_ZNSt5dequeIN5Catch16JsonObjectWriterESaIS1_EE15_M_pop_back_auxEv
FNDA:0,_ZNSt5dequeINSt8__detail9_StateSeqINSt7__cxx1112regex_traitsIcEEEESaIS5_EE15_M_pop_back_auxEv
FNDA:0,_ZNSt5dequeIcSaIcEE15_M_pop_back_auxEv
FNDA:0,_ZNSt5dequeIlSaIlEE15_M_pop_back_auxEv
FNDA:1,_ZNSt5dequeIN5Catch15JsonArrayWriterESaIS1_EE19_M_destroy_data_auxESt15_Deque_iteratorIS1_RS1_PS1_ES7_
FNDA:1,_ZNSt5dequeIN5Catch16JsonObjectWriterESaIS1_EE19_M_destroy_data_auxESt15_Deque_iteratorIS1_RS1_PS1_ES7_
FNDA:0,_ZNSt5dequeIN5Catch12JsonReporter6WriterESaIS2_EE17_M_reallocate_mapEmb
FNDA:0,_ZNSt5dequeIN5Catch15JsonArrayWriterESaIS1_EE17_M_reallocate_mapEmb
FNDA:0,_ZNSt5dequeIN5Catch16JsonObjectWriterESaIS1_EE17_M_reallocate_mapEmb
FNDA:0,_ZNSt5dequeINSt8__detail9_StateSeqINSt7__cxx1112regex_traitsIcEEEESaIS5_EE17_M_reallocate_mapEmb
FNDA:0,_ZNSt5dequeIcSaIcEE17_M_reallocate_mapEmb
FNDA:0,_ZNSt5dequeIlSaIlEE17_M_reallocate_mapEmb
FNF:27
FNH:5
DA:164,4
DA:167,4
DA:168,4
DA:170,4
DA:173,4
DA:176,0
DA:178,4
DA:484,0
DA:492,0
DA:493,0
DA:496,0
DA:497,0
DA:501,0
DA:507,0
DA:509,0
DA:511,0
DA:513,0
DA:514,0
DA:516,0
DA:560,0
DA:563,0
DA:564,0
DA:565,0
DA:566,0
DA:568,0
DA:859,2
DA:862,0
DA:863,2
DA:864,0
DA:865,0
DA:867,2
DA:869,0
DA:870,0
DA:871,0
DA:872,0
DA:875,2
DA:876,2
DA:877,2
DA:931,0
DA:934,0
DA:935,0
DA:936,0
DA:939,0
DA:941,0
DA:942,0
DA:943,0
DA:944,0
DA:945,0
DA:946,0
DA:949,0
DA:950,0
DA:951,0
DA:955,0
DA:956,0
DA:959,0
DA:960,0
DA:961,0
DA:962,0
DA:963,0
DA:965,0
DA:967,0
DA:968,0
DA:971,0
DA:972,0
DA:973,0
LF:65
LH:12
end_of_record
TN:
SF:/usr/include/c++/13/bits/exception.h
FN:62,62,_ZNSt9exceptionC2Ev
FN:65,65,_ZNSt9exceptionC2ERKS_
FNDA:0,_ZNSt9exceptionC2Ev
FNDA:0,_ZNSt9exceptionC2ERKS_
FNF:2
FNH:0
DA:62,0
DA:65,0
LF:2
LH:0
end_of_record
TN:
SF:/usr/include/c++/13/bits/exception_ptr.h
FN:119,121,_ZNSt15__exception_ptr13exception_ptrC2EDn
FN:123,125,_ZNSt15__exception_ptr13exception_ptrC2EOS0_
FN:172,174,_ZNSt15__exception_ptreqERKNS_13exception_ptrES2_
FN:195,201,_ZNSt15__exception_ptr13exception_ptrC2ERKS0_
FN:205,209,_ZNSt15__exception_ptr13exception_ptrD2Ev
FNDA:0,_ZNSt15__exception_ptr13exception_ptrC2EDn
FNDA:0,_ZNSt15__exception_ptr13exception_ptrC2EOS0_
FNDA:0,_ZNSt15__exception_ptreqERKNS_13exception_ptrES2_
FNDA:0,_ZNSt15__exception_ptr13exception_ptrC2ERKS0_
FNDA:0,_ZNSt15__exception_ptr13exception_ptrD2Ev
FNF:5
FNH:0
DA:119,0
DA:120,0
DA:121,0
DA:123,0
DA:124,0
DA:125,0
DA:172,0
DA:174,0
DA:195,0
DA:196,0
DA:197,0
DA:199,0
DA:200,0
DA:201,0
DA:205,0
DA:207,0
DA:208,0
DA:209,0
LF:18
LH:0
end_of_record
TN:
SF:/usr/include/c++/13/bits/functional_hash.h
FN:169,169,_ZNKSt4hashImEclEm
FNDA:2759405015,_ZNKSt4hashImEclEm
FNF:1
FNH:1
DA:169,2759405015
LF:1
LH:1
end_of_record
TN:
SF:/usr/include/c++/13/bits/hashtable.h
FN:1595,1610,_ZNSt10_HashtableINSt7__cxx1112basic_stringIcSt11char_traitsIcESaIcEEESt4pairIKS5_S5_ESaIS8_ENSt8__detail10_Select1stESt8equal_toIS5_ESt4hashIS5_ENSA_18_Mod_range_hashingENSA_20_Default_ranged_hashENSA_20_Prime_rehash_policyENSA_17_Hashtable_traitsILb1ELb0ELb1EEEED2Ev
FN:1595,1610,_ZNSt10_HashtableImSt4pairIKmdESaIS2_ENSt8__detail10_Select1stESt8equal_toImESt4hashImENS4_18_Mod_range_hashingENS4_20_Default_ranged_hashENS4_20_Prime_rehash_policyENS4_17_Hashtable_traitsILb0ELb0ELb1EEEED2Ev
FN:1664,1680,_ZNSt10_HashtableImSt4pairIKmdESaIS2_ENSt8__detail10_Select1stESt8equal_toImESt4hashImENS4_18_Mod_range_hashingENS4_20_Default_ranged_hashENS4_20_Prime_rehash_policyENS4_17_Hashtable_traitsILb0ELb0ELb1EEEE4findERS1_
FN:1687,1703,_ZNKSt10_HashtableImSt4pairIKmdESaIS2_ENSt8__detail10_Select1stESt8equal_toImESt4hashImENS4_18_Mod_range_hashingENS4_20_Default_ranged_hashENS4_20_Prime_rehash_policyENS4_17_Hashtable_traitsILb0ELb0ELb1EEEE4findERS1_
FN:1744,1766,_ZNKSt10_HashtableImSt4pairIKmdESaIS2_ENSt8__detail10_Select1stESt8equal_toImESt4hashImENS4_18_Mod_range_hashingENS4_20_Default_ranged_hashENS4_20_Prime_rehash_policyENS4_17_Hashtable_traitsILb0ELb0ELb1EEEE5countERS1_
FN:1919,1939,_ZNSt10_HashtableImSt4pairIKmdESaIS2_ENSt8__detail10_Select1stESt8equal_toImESt4hashImENS4_18_Mod_range_hashingENS4_20_Default_ranged_hashENS4_20_Prime_rehash_policyENS4_17_Hashtable_traitsILb0ELb0ELb1EEEE19_M_find_before_nodeERS1_
FN:1948,1970,_ZNKSt10_HashtableImSt4pairIKmdESaIS2_ENSt8__detail10_Select1stESt8equal_toImESt4hashImENS4_18_Mod_range_hashingENS4_20_Default_ranged_hashENS4_20_Prime_rehash_policyENS4_17_Hashtable_traitsILb0ELb0ELb1EEEE19_M_find_before_nodeEmRS1_m
FN:2007,2033,_ZNSt10_HashtableImSt4pairIKmdESaIS2_ENSt8__detail10_Select1stESt8equal_toImESt4hashImENS4_18_Mod_range_hashingENS4_20_Default_ranged_hashENS4_20_Prime_rehash_policyENS4_17_Hashtable_traitsILb0ELb0ELb1EEEE22_M_insert_bucket_beginEmPNS4_10_Hash_nodeIS2_Lb0EEE
FN:2040,2057,_ZNSt10_HashtableImSt4pairIKmdESaIS2_ENSt8__detail10_Select1stESt8equal_toImESt4hashImENS4_18_Mod_range_hashingENS4_20_Default_ranged_hashENS4_20_Prime_rehash_policyENS4_17_Hashtable_traitsILb0ELb0ELb1EEEE22_M_remove_bucket_beginEmPNS4_10_Hash_nodeIS2_Lb0EEEm
FN:2166,2189,_ZNSt10_HashtableImSt4pairIKmdESaIS2_ENSt8__detail10_Select1stESt8equal_toImESt4hashImENS4_18_Mod_range_hashingENS4_20_Default_ranged_hashENS4_20_Prime_rehash_policyENS4_17_Hashtable_traitsILb0ELb0ELb1EEEE21_M_insert_unique_nodeEmmPNS4_10_Hash_nodeIS2_Lb0EEEm
FN:2336,2357,_ZNSt10_HashtableImSt4pairIKmdESaIS2_ENSt8__detail10_Select1stESt8equal_toImESt4hashImENS4_18_Mod_range_hashingENS4_20_Default_ranged_hashENS4_20_Prime_rehash_policyENS4_17_Hashtable_traitsILb0ELb0ELb1EEEE8_M_eraseEmPNS4_15_Hash_node_baseEPNS4_10_Hash_nodeIS2_Lb0EEE
FN:2364,2398,_ZNSt10_HashtableImSt4pairIKmdESaIS2_ENSt8__detail10_Select1stESt8equal_toImESt4hashImENS4_18_Mod_range_hashingENS4_20_Default_ranged_hashENS4_20_Prime_rehash_policyENS4_17_Hashtable_traitsILb0ELb0ELb1EEEE8_M_eraseESt17integral_constantIbLb1EERS1_
FN:2520,2529,_ZNSt10_HashtableINSt7__cxx1112basic_stringIcSt11char_traitsIcESaIcEEESt4pairIKS5_S5_ESaIS8_ENSt8__detail10_Select1stESt8equal_toIS5_ESt4hashIS5_ENSA_18_Mod_range_hashingENSA_20_Default_ranged_hashENSA_20_Prime_rehash_policyENSA_17_Hashtable_traitsILb1ELb0ELb1EEEE5clearEv
FN:2520,2529,_ZNSt10_HashtableImSt4pairIKmdESaIS2_ENSt8__detail10_Select1stESt8equal_toImESt4hashImENS4_18_Mod_range_hashingENS4_20_Default_ranged_hashENS4_20_Prime_rehash_policyENS4_17_Hashtable_traitsILb0ELb0ELb1EEEE5clearEv
FN:2536,2552,_ZNSt10_HashtableImSt4pairIKmdESaIS2_ENSt8__detail10_Select1stESt8equal_toImESt4hashImENS4_18_Mod_range_hashingENS4_20_Default_ranged_hashENS4_20_Prime_rehash_policyENS4_17_Hashtable_traitsILb0ELb0ELb1EEEE6rehashEm
FN:2559,2574,_ZNSt10_HashtableImSt4pairIKmdESaIS2_ENSt8__detail10_Select1stESt8equal_toImESt4hashImENS4_18_Mod_range_hashingENS4_20_Default_ranged_hashENS4_20_Prime_rehash_policyENS4_17_Hashtable_traitsILb0ELb0ELb1EEEE9_M_rehashEmRS1_
FN:2582,2616,_ZNSt10_HashtableImSt4pairIKmdESaIS2_ENSt8__detail10_Select1stESt8equal_toImESt4hashImENS4_18_Mod_range_hashingENS4_20_Default_ranged_hashENS4_20_Prime_rehash_policyENS4_17_Hashtable_traitsILb0ELb0ELb1EEEE13_M_rehash_auxEmSt17integral_constantIbLb1EE
FN:305,308,_ZNSt10_HashtableImSt4pairIKmdESaIS2_ENSt8__detail10_Select1stESt8equal_toImESt4hashImENS4_18_Mod_range_hashingENS4_20_Default_ranged_hashENS4_20_Prime_rehash_policyENS4_17_Hashtable_traitsILb0ELb0ELb1EEEE12_Scoped_nodeC2IJRKSt21piecewise_construct_tSt5tupleIJRS1_EESL_IJEEEEEPNS4_16_Hashtable_allocISaINS4_10_Hash_nodeIS2_Lb0EEEEEEDpOT_
FN:311,311,_ZNSt10_HashtableImSt4pairIKmdESaIS2_ENSt8__detail10_Select1stESt8equal_toImESt4hashImENS4_18_Mod_range_hashingENS4_20_Default_ranged_hashENS4_20_Prime_rehash_policyENS4_17_Hashtable_traitsILb0ELb0ELb1EEEE12_Scoped_nodeD2Ev
FN:416,417,_ZNKSt10_HashtableINSt7__cxx1112basic_stringIcSt11char_traitsIcESaIcEEESt4pairIKS5_S5_ESaIS8_ENSt8__detail10_Select1stESt8equal_toIS5_ESt4hashIS5_ENSA_18_Mod_range_hashingENSA_20_Default_ranged_hashENSA_20_Prime_rehash_policyENSA_17_Hashtable_traitsILb1ELb0ELb1EEEE21_M_uses_single_bucketEPPNSA_15_Hash_node_baseE
FN:416,417,_ZNKSt10_HashtableImSt4pairIKmdESaIS2_ENSt8__detail10_Select1stESt8equal_toImESt4hashImENS4_18_Mod_range_hashingENS4_20_Default_ranged_hashENS4_20_Prime_rehash_policyENS4_17_Hashtable_traitsILb0ELb0ELb1EEEE21_M_uses_single_bucketEPPNS4_15_Hash_node_baseE
FN:424,428,_ZNSt10_HashtableImSt4pairIKmdESaIS2_ENSt8__detail10_Select1stESt8equal_toImESt4hashImENS4_18_Mod_range_hashingENS4_20_Default_ranged_hashENS4_20_Prime_rehash_policyENS4_17_Hashtable_traitsILb0ELb0ELb1EEEE22__small_size_thresholdEv
FN:434,443,_ZNSt10_HashtableImSt4pairIKmdESaIS2_ENSt8__detail10_Select1stESt8equal_toImESt4hashImENS4_18_Mod_range_hashingENS4_20_Default_ranged_hashENS4_20_Prime_rehash_policyENS4_17_Hashtable_traitsILb0ELb0ELb1EEEE19_M_allocate_bucketsEm
FN:446,452,_ZNSt10_HashtableINSt7__cxx1112basic_stringIcSt11char_traitsIcESaIcEEESt4pairIKS5_S5_ESaIS8_ENSt8__detail10_Select1stESt8equal_toIS5_ESt4hashIS5_ENSA_18_Mod_range_hashingENSA_20_Default_ranged_hashENSA_20_Prime_rehash_policyENSA_17_Hashtable_traitsILb1ELb0ELb1EEEE21_M_deallocate_bucketsEPPNSA_15_Hash_node_baseEm
FN:446,452,_ZNSt10_HashtableImSt4pairIKmdESaIS2_ENSt8__detail10_Select1stESt8equal_toImESt4hashImENS4_18_Mod_range_hashingENS4_20_Default_ranged_hashENS4_20_Prime_rehash_policyENS4_17_Hashtable_traitsILb0ELb0ELb1EEEE21_M_deallocate_bucketsEPPNS4_15_Hash_node_baseEm
FN:455,456,_ZNSt10_HashtableINSt7__cxx1112basic_stringIcSt11char_traitsIcESaIcEEESt4pairIKS5_S5_ESaIS8_ENSt8__detail10_Select1stESt8equal_toIS5_ESt4hashIS5_ENSA_18_Mod_range_hashingENSA_20_Default_ranged_hashENSA_20_Prime_rehash_policyENSA_17_Hashtable_traitsILb1ELb0ELb1EEEE21_M_deallocate_bucketsEv
FN:455,456,_ZNSt10_HashtableImSt4pairIKmdESaIS2_ENSt8__detail10_Select1stESt8equal_toImESt4hashImENS4_18_Mod_range_hashingENS4_20_Default_ranged_hashENS4_20_Prime_rehash_policyENS4_17_Hashtable_traitsILb0ELb0ELb1EEEE21_M_deallocate_bucketsEv
FN:464,465,_ZNKSt10_HashtableINSt7__cxx1112basic_stringIcSt11char_traitsIcESaIcEEESt4pairIKS5_S5_ESaIS8_ENSt8__detail10_Select1stESt8equal_toIS5_ESt4hashIS5_ENSA_18_Mod_range_hashingENSA_20_Default_ranged_hashENSA_20_Prime_rehash_policyENSA_17_Hashtable_traitsILb1ELb0ELb1EEEE8_M_beginEv
FN:464,465,_ZNKSt10_HashtableImSt4pairIKmdESaIS2_ENSt8__detail10_Select1stESt8equal_toImESt4hashImENS4_18_Mod_range_hashingENS4_20_Default_ranged_hashENS4_20_Prime_rehash_policyENS4_17_Hashtable_traitsILb0ELb0ELb1EEEE8_M_beginEv
FN:530,530,_ZNSt10_HashtableINSt7__cxx1112basic_stringIcSt11char_traitsIcESaIcEEESt4pairIKS5_S5_ESaIS8_ENSt8__detail10_Select1stESt8equal_toIS5_ESt4hashIS5_ENSA_18_Mod_range_hashingENSA_20_Default_ranged_hashENSA_20_Prime_rehash_policyENSA_17_Hashtable_traitsILb1ELb0ELb1EEEEC2Ev
FN:530,530,_ZNSt10_HashtableImSt4pairIKmdESaIS2_ENSt8__detail10_Select1stESt8equal_toImESt4hashImENS4_18_Mod_range_hashingENS4_20_Default_ranged_hashENS4_20_Prime_rehash_policyENS4_17_Hashtable_traitsILb0ELb0ELb1EEEEC2Ev
FN:623,624,_ZNSt10_HashtableImSt4pairIKmdESaIS2_ENSt8__detail10_Select1stESt8equal_toImESt4hashImENS4_18_Mod_range_hashingENS4_20_Default_ranged_hashENS4_20_Prime_rehash_policyENS4_17_Hashtable_traitsILb0ELb0ELb1EEEE5beginEv
FN:627,628,_ZNKSt10_HashtableImSt4pairIKmdESaIS2_ENSt8__detail10_Select1stESt8equal_toImESt4hashImENS4_18_Mod_range_hashingENS4_20_Default_ranged_hashENS4_20_Prime_rehash_policyENS4_17_Hashtable_traitsILb0ELb0ELb1EEEE5beginEv
FN:631,632,_ZNSt10_HashtableImSt4pairIKmdESaIS2_ENSt8__detail10_Select1stESt8equal_toImESt4hashImENS4_18_Mod_range_hashingENS4_20_Default_ranged_hashENS4_20_Prime_rehash_policyENS4_17_Hashtable_traitsILb0ELb0ELb1EEEE3endEv
FN:635,636,_ZNKSt10_HashtableImSt4pairIKmdESaIS2_ENSt8__detail10_Select1stESt8equal_toImESt4hashImENS4_18_Mod_range_hashingENS4_20_Default_ranged_hashENS4_20_Prime_rehash_policyENS4_17_Hashtable_traitsILb0ELb0ELb1EEEE3endEv
FN:647,648,_ZNKSt10_HashtableImSt4pairIKmdESaIS2_ENSt8__detail10_Select1stESt8equal_toImESt4hashImENS4_18_Mod_range_hashingENS4_20_Default_ranged_hashENS4_20_Prime_rehash_policyENS4_17_Hashtable_traitsILb0ELb0ELb1EEEE4sizeEv
FN:732,733,_ZNKSt10_HashtableImSt4pairIKmdESaIS2_ENSt8__detail10_Select1stESt8equal_toImESt4hashImENS4_18_Mod_range_hashingENS4_20_Default_ranged_hashENS4_20_Prime_rehash_policyENS4_17_Hashtable_traitsILb0ELb0ELb1EEEE15__rehash_policyEv
FN:792,793,_ZNKSt10_HashtableImSt4pairIKmdESaIS2_ENSt8__detail10_Select1stESt8equal_toImESt4hashImENS4_18_Mod_range_hashingENS4_20_Default_ranged_hashENS4_20_Prime_rehash_policyENS4_17_Hashtable_traitsILb0ELb0ELb1EEEE15_M_bucket_indexERKNS4_16_Hash_node_valueIS2_Lb0EEE
FN:796,797,_ZNKSt10_HashtableImSt4pairIKmdESaIS2_ENSt8__detail10_Select1stESt8equal_toImESt4hashImENS4_18_Mod_range_hashingENS4_20_Default_ranged_hashENS4_20_Prime_rehash_policyENS4_17_Hashtable_traitsILb0ELb0ELb1EEEE15_M_bucket_indexEm
FN:812,819,_ZNKSt10_HashtableImSt4pairIKmdESaIS2_ENSt8__detail10_Select1stESt8equal_toImESt4hashImENS4_18_Mod_range_hashingENS4_20_Default_ranged_hashENS4_20_Prime_rehash_policyENS4_17_Hashtable_traitsILb0ELb0ELb1EEEE12_M_find_nodeEmRS1_m
FN:983,984,_ZNSt10_HashtableImSt4pairIKmdESaIS2_ENSt8__detail10_Select1stESt8equal_toImESt4hashImENS4_18_Mod_range_hashingENS4_20_Default_ranged_hashENS4_20_Prime_rehash_policyENS4_17_Hashtable_traitsILb0ELb0ELb1EEEE5eraseERS1_
FNDA:120,_ZNSt10_HashtableINSt7__cxx1112basic_stringIcSt11char_traitsIcESaIcEEESt4pairIKS5_S5_ESaIS8_ENSt8__detail10_Select1stESt8equal_toIS5_ESt4hashIS5_ENSA_18_Mod_range_hashingENSA_20_Default_ranged_hashENSA_20_Prime_rehash_policyENSA_17_Hashtable_traitsILb1ELb0ELb1EEEED2Ev
FNDA:150,_ZNSt10_HashtableImSt4pairIKmdESaIS2_ENSt8__detail10_Select1stESt8equal_toImESt4hashImENS4_18_Mod_range_hashingENS4_20_Default_ranged_hashENS4_20_Prime_rehash_policyENS4_17_Hashtable_traitsILb0ELb0ELb1EEEED2Ev
FNDA:356207328,_ZNSt10_HashtableImSt4pairIKmdESaIS2_ENSt8__detail10_Select1stESt8equal_toImESt4hashImENS4_18_Mod_range_hashingENS4_20_Default_ranged_hashENS4_20_Prime_rehash_policyENS4_17_Hashtable_traitsILb0ELb0ELb1EEEE4findERS1_
FNDA:287613471,_ZNKSt10_HashtableImSt4pairIKmdESaIS2_ENSt8__detail10_Select1stESt8equal_toImESt4hashImENS4_18_Mod_range_hashingENS4_20_Default_ranged_hashENS4_20_Prime_rehash_policyENS4_17_Hashtable_traitsILb0ELb0ELb1EEEE4findERS1_
FNDA:287613471,_ZNKSt10_HashtableImSt4pairIKmdESaIS2_ENSt8__detail10_Select1stESt8equal_toImESt4hashImENS4_18_Mod_range_hashingENS4_20_Default_ranged_hashENS4_20_Prime_rehash_policyENS4_17_Hashtable_traitsILb0ELb0ELb1EEEE5countERS1_
FNDA:0,_ZNSt10_HashtableImSt4pairIKmdESaIS2_ENSt8__detail10_Select1stESt8equal_toImESt4hashImENS4_18_Mod_range_hashingENS4_20_Default_ranged_hashENS4_20_Prime_rehash_policyENS4_17_Hashtable_traitsILb0ELb0ELb1EEEE19_M_find_before_nodeERS1_
FNDA:1218150946,_ZNKSt10_HashtableImSt4pairIKmdESaIS2_ENSt8__detail10_Select1stESt8equal_toImESt4hashImENS4_18_Mod_range_hashingENS4_20_Default_ranged_hashENS4_20_Prime_rehash_policyENS4_17_Hashtable_traitsILb0ELb0ELb1EEEE19_M_find_before_nodeEmRS1_m
FNDA:287613466,_ZNSt10_HashtableImSt4pairIKmdESaIS2_ENSt8__detail10_Select1stESt8equal_toImESt4hashImENS4_18_Mod_range_hashingENS4_20_Default_ranged_hashENS4_20_Prime_rehash_policyENS4_17_Hashtable_traitsILb0ELb0ELb1EEEE22_M_insert_bucket_beginEmPNS4_10_Hash_nodeIS2_Lb0EEE
FNDA:108324446,_ZNSt10_HashtableImSt4pairIKmdESaIS2_ENSt8__detail10_Select1stESt8equal_toImESt4hashImENS4_18_Mod_range_hashingENS4_20_Default_ranged_hashENS4_20_Prime_rehash_policyENS4_17_Hashtable_traitsILb0ELb0ELb1EEEE22_M_remove_bucket_beginEmPNS4_10_Hash_nodeIS2_Lb0EEEm
FNDA:287613466,_ZNSt10_HashtableImSt4pairIKmdESaIS2_ENSt8__detail10_Select1stESt8equal_toImESt4hashImENS4_18_Mod_range_hashingENS4_20_Default_ranged_hashENS4_20_Prime_rehash_policyENS4_17_Hashtable_traitsILb0ELb0ELb1EEEE21_M_insert_unique_nodeEmmPNS4_10_Hash_nodeIS2_Lb0EEEm
FNDA:286716946,_ZNSt10_HashtableImSt4pairIKmdESaIS2_ENSt8__detail10_Select1stESt8equal_toImESt4hashImENS4_18_Mod_range_hashingENS4_20_Default_ranged_hashENS4_20_Prime_rehash_policyENS4_17_Hashtable_traitsILb0ELb0ELb1EEEE8_M_eraseEmPNS4_15_Hash_node_baseEPNS4_10_Hash_nodeIS2_Lb0EEE
FNDA:286716946,_ZNSt10_HashtableImSt4pairIKmdESaIS2_ENSt8__detail10_Select1stESt8equal_toImESt4hashImENS4_18_Mod_range_hashingENS4_20_Default_ranged_hashENS4_20_Prime_rehash_policyENS4_17_Hashtable_traitsILb0ELb0ELb1EEEE8_M_eraseESt17integral_constantIbLb1EERS1_
FNDA:120,_ZNSt10_HashtableINSt7__cxx1112basic_stringIcSt11char_traitsIcESaIcEEESt4pairIKS5_S5_ESaIS8_ENSt8__detail10_Select1stESt8equal_toIS5_ESt4hashIS5_ENSA_18_Mod_range_hashingENSA_20_Default_ranged_hashENSA_20_Prime_rehash_policyENSA_17_Hashtable_traitsILb1ELb0ELb1EEEE5clearEv
FNDA:155,_ZNSt10_HashtableImSt4pairIKmdESaIS2_ENSt8__detail10_Select1stESt8equal_toImESt4hashImENS4_18_Mod_range_hashingENS4_20_Default_ranged_hashENS4_20_Prime_rehash_policyENS4_17_Hashtable_traitsILb0ELb0ELb1EEEE5clearEv
FNDA:150,_ZNSt10_HashtableImSt4pairIKmdESaIS2_ENSt8__detail10_Select1stESt8equal_toImESt4hashImENS4_18_Mod_range_hashingENS4_20_Default_ranged_hashENS4_20_Prime_rehash_policyENS4_17_Hashtable_traitsILb0ELb0ELb1EEEE6rehashEm
FNDA:150,_ZNSt10_HashtableImSt4pairIKmdESaIS2_ENSt8__detail10_Select1stESt8equal_toImESt4hashImENS4_18_Mod_range_hashingENS4_20_Default_ranged_hashENS4_20_Prime_rehash_policyENS4_17_Hashtable_traitsILb0ELb0ELb1EEEE9_M_rehashEmRS1_
FNDA:150,_ZNSt10_HashtableImSt4pairIKmdESaIS2_ENSt8__detail10_Select1stESt8equal_toImESt4hashImENS4_18_Mod_range_hashingENS4_20_Default_ranged_hashENS4_20_Prime_rehash_policyENS4_17_Hashtable_traitsILb0ELb0ELb1EEEE13_M_rehash_auxEmSt17integral_constantIbLb1EE
FNDA:287613466,_ZNSt10_HashtableImSt4pairIKmdESaIS2_ENSt8__detail10_Select1stESt8equal_toImESt4hashImENS4_18_Mod_range_hashingENS4_20_Default_ranged_hashENS4_20_Prime_rehash_policyENS4_17_Hashtable_traitsILb0ELb0ELb1EEEE12_Scoped_nodeC2IJRKSt21piecewise_construct_tSt5tupleIJRS1_EESL_IJEEEEEPNS4_16_Hashtable_allocISaINS4_10_Hash_nodeIS2_Lb0EEEEEEDpOT_
FNDA:287613466,_ZNSt10_HashtableImSt4pairIKmdESaIS2_ENSt8__detail10_Select1stESt8equal_toImESt4hashImENS4_18_Mod_range_hashingENS4_20_Default_ranged_hashENS4_20_Prime_rehash_policyENS4_17_Hashtable_traitsILb0ELb0ELb1EEEE12_Scoped_nodeD2Ev
FNDA:120,_ZNKSt10_HashtableINSt7__cxx1112basic_stringIcSt11char_traitsIcESaIcEEESt4pairIKS5_S5_ESaIS8_ENSt8__detail10_Select1stESt8equal_toIS5_ESt4hashIS5_ENSA_18_Mod_range_hashingENSA_20_Default_ranged_hashENSA_20_Prime_rehash_policyENSA_17_Hashtable_traitsILb1ELb0ELb1EEEE21_M_uses_single_bucketEPPNSA_15_Hash_node_baseE
FNDA:300,_ZNKSt10_HashtableImSt4pairIKmdESaIS2_ENSt8__detail10_Select1stESt8equal_toImESt4hashImENS4_18_Mod_range_hashingENS4_20_Default_ranged_hashENS4_20_Prime_rehash_policyENS4_17_Hashtable_traitsILb0ELb0ELb1EEEE21_M_uses_single_bucketEPPNS4_15_Hash_node_baseE
FNDA:930537745,_ZNSt10_HashtableImSt4pairIKmdESaIS2_ENSt8__detail10_Select1stESt8equal_toImESt4hashImENS4_18_Mod_range_hashingENS4_20_Default_ranged_hashENS4_20_Prime_rehash_policyENS4_17_Hashtable_traitsILb0ELb0ELb1EEEE22__small_size_thresholdEv
FNDA:150,_ZNSt10_HashtableImSt4pairIKmdESaIS2_ENSt8__detail10_Select1stESt8equal_toImESt4hashImENS4_18_Mod_range_hashingENS4_20_Default_ranged_hashENS4_20_Prime_rehash_policyENS4_17_Hashtable_traitsILb0ELb0ELb1EEEE19_M_allocate_bucketsEm
FNDA:120,_ZNSt10_HashtableINSt7__cxx1112basic_stringIcSt11char_traitsIcESaIcEEESt4pairIKS5_S5_ESaIS8_ENSt8__detail10_Select1stESt8equal_toIS5_ESt4hashIS5_ENSA_18_Mod_range_hashingENSA_20_Default_ranged_hashENSA_20_Prime_rehash_policyENSA_17_Hashtable_traitsILb1ELb0ELb1EEEE21_M_deallocate_bucketsEPPNSA_15_Hash_node_baseEm
FNDA:300,_ZNSt10_HashtableImSt4pairIKmdESaIS2_ENSt8__detail10_Select1stESt8equal_toImESt4hashImENS4_18_Mod_range_hashingENS4_20_Default_ranged_hashENS4_20_Prime_rehash_policyENS4_17_Hashtable_traitsILb0ELb0ELb1EEEE21_M_deallocate_bucketsEPPNS4_15_Hash_node_baseEm
FNDA:120,_ZNSt10_HashtableINSt7__cxx1112basic_stringIcSt11char_traitsIcESaIcEEESt4pairIKS5_S5_ESaIS8_ENSt8__detail10_Select1stESt8equal_toIS5_ESt4hashIS5_ENSA_18_Mod_range_hashingENSA_20_Default_ranged_hashENSA_20_Prime_rehash_policyENSA_17_Hashtable_traitsILb1ELb0ELb1EEEE21_M_deallocate_bucketsEv
FNDA:300,_ZNSt10_HashtableImSt4pairIKmdESaIS2_ENSt8__detail10_Select1stESt8equal_toImESt4hashImENS4_18_Mod_range_hashingENS4_20_Default_ranged_hashENS4_20_Prime_rehash_policyENS4_17_Hashtable_traitsILb0ELb0ELb1EEEE21_M_deallocate_bucketsEv
FNDA:120,_ZNKSt10_HashtableINSt7__cxx1112basic_stringIcSt11char_traitsIcESaIcEEESt4pairIKS5_S5_ESaIS8_ENSt8__detail10_Select1stESt8equal_toIS5_ESt4hashIS5_ENSA_18_Mod_range_hashingENSA_20_Default_ranged_hashENSA_20_Prime_rehash_policyENSA_17_Hashtable_traitsILb1ELb0ELb1EEEE8_M_beginEv
FNDA:570,_ZNKSt10_HashtableImSt4pairIKmdESaIS2_ENSt8__detail10_Select1stESt8equal_toImESt4hashImENS4_18_Mod_range_hashingENS4_20_Default_ranged_hashENS4_20_Prime_rehash_policyENS4_17_Hashtable_traitsILb0ELb0ELb1EEEE8_M_beginEv
FNDA:120,_ZNSt10_HashtableINSt7__cxx1112basic_stringIcSt11char_traitsIcESaIcEEESt4pairIKS5_S5_ESaIS8_ENSt8__detail10_Select1stESt8equal_toIS5_ESt4hashIS5_ENSA_18_Mod_range_hashingENSA_20_Default_ranged_hashENSA_20_Prime_rehash_policyENSA_17_Hashtable_traitsILb1ELb0ELb1EEEEC2Ev
FNDA:150,_ZNSt10_HashtableImSt4pairIKmdESaIS2_ENSt8__detail10_Select1stESt8equal_toImESt4hashImENS4_18_Mod_range_hashingENS4_20_Default_ranged_hashENS4_20_Prime_rehash_policyENS4_17_Hashtable_traitsILb0ELb0ELb1EEEEC2Ev
FNDA:125,_ZNSt10_HashtableImSt4pairIKmdESaIS2_ENSt8__detail10_Select1stESt8equal_toImESt4hashImENS4_18_Mod_range_hashingENS4_20_Default_ranged_hashENS4_20_Prime_rehash_policyENS4_17_Hashtable_traitsILb0ELb0ELb1EEEE5beginEv
FNDA:140,_ZNKSt10_HashtableImSt4pairIKmdESaIS2_ENSt8__detail10_Select1stESt8equal_toImESt4hashImENS4_18_Mod_range_hashingENS4_20_Default_ranged_hashENS4_20_Prime_rehash_policyENS4_17_Hashtable_traitsILb0ELb0ELb1EEEE5beginEv
FNDA:356207578,_ZNSt10_HashtableImSt4pairIKmdESaIS2_ENSt8__detail10_Select1stESt8equal_toImESt4hashImENS4_18_Mod_range_hashingENS4_20_Default_ranged_hashENS4_20_Prime_rehash_policyENS4_17_Hashtable_traitsILb0ELb0ELb1EEEE3endEv
FNDA:280,_ZNKSt10_HashtableImSt4pairIKmdESaIS2_ENSt8__detail10_Select1stESt8equal_toImESt4hashImENS4_18_Mod_range_hashingENS4_20_Default_ranged_hashENS4_20_Prime_rehash_policyENS4_17_Hashtable_traitsILb0ELb0ELb1EEEE3endEv
FNDA:1218151226,_ZNKSt10_HashtableImSt4pairIKmdESaIS2_ENSt8__detail10_Select1stESt8equal_toImESt4hashImENS4_18_Mod_range_hashingENS4_20_Default_ranged_hashENS4_20_Prime_rehash_policyENS4_17_Hashtable_traitsILb0ELb0ELb1EEEE4sizeEv
FNDA:150,_ZNKSt10_HashtableImSt4pairIKmdESaIS2_ENSt8__detail10_Select1stESt8equal_toImESt4hashImENS4_18_Mod_range_hashingENS4_20_Default_ranged_hashENS4_20_Prime_rehash_policyENS4_17_Hashtable_traitsILb0ELb0ELb1EEEE15__rehash_policyEv
FNDA:1541254069,_ZNKSt10_HashtableImSt4pairIKmdESaIS2_ENSt8__detail10_Select1stESt8equal_toImESt4hashImENS4_18_Mod_range_hashingENS4_20_Default_ranged_hashENS4_20_Prime_rehash_policyENS4_17_Hashtable_traitsILb0ELb0ELb1EEEE15_M_bucket_indexERKNS4_16_Hash_node_valueIS2_Lb0EEE
FNDA:1218150946,_ZNKSt10_HashtableImSt4pairIKmdESaIS2_ENSt8__detail10_Select1stESt8equal_toImESt4hashImENS4_18_Mod_range_hashingENS4_20_Default_ranged_hashENS4_20_Prime_rehash_policyENS4_17_Hashtable_traitsILb0ELb0ELb1EEEE15_M_bucket_indexEm
FNDA:931434000,_ZNKSt10_HashtableImSt4pairIKmdESaIS2_ENSt8__detail10_Select1stESt8equal_toImESt4hashImENS4_18_Mod_range_hashingENS4_20_Default_ranged_hashENS4_20_Prime_rehash_policyENS4_17_Hashtable_traitsILb0ELb0ELb1EEEE12_M_find_nodeEmRS1_m
FNDA:286716946,_ZNSt10_HashtableImSt4pairIKmdESaIS2_ENSt8__detail10_Select1stESt8equal_toImESt4hashImENS4_18_Mod_range_hashingENS4_20_Default_ranged_hashENS4_20_Prime_rehash_policyENS4_17_Hashtable_traitsILb0ELb0ELb1EEEE5eraseERS1_
FNF:41
FNH:40
DA:305,287613466
DA:306,287613466
DA:307,287613466
DA:308,287613466
DA:311,287613466
DA:416,420
DA:417,420
DA:424,930537745
DA:427,930537745
DA:434,150
DA:436,150
DA:438,0
DA:439,0
DA:442,150
DA:446,420
DA:448,420
DA:449,270
DA:451,150
DA:455,420
DA:456,420
DA:464,690
DA:465,690
DA:530,270
DA:623,125
DA:624,125
DA:627,140
DA:628,140
DA:631,356207578
DA:632,356207578
DA:635,280
DA:636,280
DA:647,1218151226
DA:648,1218151226
DA:732,150
DA:733,150
DA:792,1541254069
DA:793,1541254069
DA:796,1218150946
DA:797,1218150946
DA:812,931434000
DA:815,931434000
DA:816,931434000
DA:817,68593882
DA:818,862840118
DA:983,286716946
DA:984,286716946
DA:1595,270
DA:1608,270
DA:1609,270
DA:1610,270
DA:1664,356207328
DA:1669,356207328
DA:1671,125
DA:1672,0
DA:1673,0
DA:1674,125
DA:1677,356207203
DA:1678,356207203
DA:1679,356207203
DA:1687,287613471
DA:1692,287613471
DA:1694,140
DA:1695,0
DA:1696,0
DA:1697,140
DA:1700,287613331
DA:1701,287613331
DA:1702,287613331
DA:1744,287613471
DA:1749,287613471
DA:1750,287613471
DA:1751,287613466
DA:1754,5
DA:1919,0
DA:1924,0
DA:1925,0
DA:1926,0
DA:1928,0
DA:1929,0
DA:1930,0
DA:1932,0
DA:1933,0
DA:1935,0
DA:1938,0
DA:1948,1218150946
DA:1954,1218150946
DA:1955,1218150946
DA:1956,326671801
DA:1958,891479145
DA:1959,609639031
DA:1961,1501118176
DA:1962,355310828
DA:1964,1145807348
DA:1965,536168317
DA:1966,609639031
DA:1969,536168317
DA:2007,287613466
DA:2011,287613466
DA:2015,178715758
DA:2016,178715758
DA:2023,108897708
DA:2024,108897708
DA:2026,108897708
DA:2029,108897568
DA:2031,108897708
DA:2033,287613466
DA:2040,108324446
DA:2045,108324446
DA:2049,108324446
DA:2050,108295999
DA:2053,108324446
DA:2054,0
DA:2055,108324446
DA:2057,108324446
DA:2166,287613466
DA:2172,287613466
DA:2174,287613466
DA:2177,287613466
DA:2179,0
DA:2180,0
DA:2183,287613466
DA:2186,287613466
DA:2187,287613466
DA:2188,287613466
DA:2336,286716946
DA:2341,286716946
DA:2342,108324446
DA:2343,108324446
DA:2344,178392500
DA:2346,178342460
DA:2347,178342460
DA:2348,178342460
DA:2351,286716946
DA:2352,286716946
DA:2353,286716946
DA:2354,286716946
DA:2356,286716946
DA:2364,286716946
DA:2372,286716946
DA:2374,0
DA:2375,0
DA:2376,0
DA:2379,0
DA:2380,0
DA:2384,286716946
DA:2385,286716946
DA:2388,286716946
DA:2389,286716946
DA:2390,0
DA:2393,286716946
DA:2396,286716946
DA:2397,286716946
DA:2520,275
DA:2524,275
DA:2525,275
DA:2526,275
DA:2527,275
DA:2528,275
DA:2529,275
DA:2536,150
DA:2540,150
DA:2542,150
DA:2544,150
DA:2546,150
DA:2547,150
DA:2551,0
DA:2552,150
DA:2559,150
DA:2565,150
DA:2567,0
DA:2571,0
DA:2572,0
DA:2574,150
DA:2582,150
DA:2586,150
DA:2587,150
DA:2588,150
DA:2589,150
DA:2590,150
DA:2592,0
DA:2594,0
DA:2595,0
DA:2597,0
DA:2598,0
DA:2599,0
DA:2600,0
DA:2601,0
DA:2602,0
DA:2606,0
DA:2607,0
DA:2610,0
DA:2613,150
DA:2614,150
DA:2615,150
DA:2616,150
LF:195
LH:153
end_of_record
TN:
SF:/usr/include/c++/13/bits/hashtable_policy.h
FN:112,113,_ZNKSt8__detail10_Select1stclIRKSt4pairIKmdEEEONS0_10__1st_typeIT_E4typeEOS8_
FN:1196,1200,_ZNSt8__detail12_Rehash_baseImSt4pairIKmdESaIS3_ENS_10_Select1stESt8equal_toImESt4hashImENS_18_Mod_range_hashingENS_20_Default_ranged_hashENS_20_Prime_rehash_policyENS_17_Hashtable_traitsILb0ELb0ELb1EEESt17integral_constantIbLb1EEE7reserveEm
FN:1218,1218,_ZNSt8__detail21_Hashtable_ebo_helperILi0ESaINS_10_Hash_nodeISt4pairIKNSt7__cxx1112basic_stringIcSt11char_traitsIcESaIcEEES8_ELb1EEEELb1EEC2Ev
FN:1218,1218,_ZNSt8__detail21_Hashtable_ebo_helperILi0ESaINS_10_Hash_nodeISt4pairIKmdELb0EEEELb1EEC2Ev
FN:1218,1218,_ZNSt8__detail21_Hashtable_ebo_helperILi0ESt8equal_toINSt7__cxx1112basic_stringIcSt11char_traitsIcESaIcEEEELb1EEC2Ev
FN:1218,1218,_ZNSt8__detail21_Hashtable_ebo_helperILi0ESt8equal_toImELb1EEC2Ev
FN:1218,1218,_ZNSt8__detail21_Hashtable_ebo_helperILi1ESt4hashINSt7__cxx1112basic_stringIcSt11char_traitsIcESaIcEEEELb1EEC2Ev
FN:1218,1218,_ZNSt8__detail21_Hashtable_ebo_helperILi1ESt4hashImELb1EEC2Ev
FN:1225,1225,_ZNKSt8__detail21_Hashtable_ebo_helperILi0ESt8equal_toImELb1EE7_M_cgetEv
FN:1225,1225,_ZNKSt8__detail21_Hashtable_ebo_helperILi1ESt4hashImELb1EE7_M_cgetEv
FN:1226,1226,_ZNSt8__detail21_Hashtable_ebo_helperILi0ESaINS_10_Hash_nodeISt4pairIKNSt7__cxx1112basic_stringIcSt11char_traitsIcESaIcEEES8_ELb1EEEELb1EE6_M_getEv
FN:1226,1226,_ZNSt8__detail21_Hashtable_ebo_helperILi0ESaINS_10_Hash_nodeISt4pairIKmdELb0EEEELb1EE6_M_getEv
FN:1301,1301,_ZNSt8__detail15_Hash_code_baseINSt7__cxx1112basic_stringIcSt11char_traitsIcESaIcEEESt4pairIKS6_S6_ENS_10_Select1stESt4hashIS6_ENS_18_Mod_range_hashingENS_20_Default_ranged_hashELb1EEC2Ev
FN:1301,1301,_ZNSt8__detail15_Hash_code_baseImSt4pairIKmdENS_10_Select1stESt4hashImENS_18_Mod_range_hashingENS_20_Default_ranged_hashELb0EEC2Ev
FN:1306,1311,_ZNKSt8__detail15_Hash_code_baseImSt4pairIKmdENS_10_Select1stESt4hashImENS_18_Mod_range_hashingENS_20_Default_ranged_hashELb0EE12_M_hash_codeERS2_
FN:1331,1332,_ZNKSt8__detail15_Hash_code_baseImSt4pairIKmdENS_10_Select1stESt4hashImENS_18_Mod_range_hashingENS_20_Default_ranged_hashELb0EE15_M_bucket_indexEmm
FN:1335,1343,_ZNKSt8__detail15_Hash_code_baseImSt4pairIKmdENS_10_Select1stESt4hashImENS_18_Mod_range_hashingENS_20_Default_ranged_hashELb0EE15_M_bucket_indexERKNS_16_Hash_node_valueIS3_Lb0EEEm
FN:1353,1354,_ZNKSt8__detail15_Hash_code_baseImSt4pairIKmdENS_10_Select1stESt4hashImENS_18_Mod_range_hashingENS_20_Default_ranged_hashELb0EE13_M_store_codeERNS_21_Hash_node_code_cacheILb0EEEm
FN:1375,1375,_ZNKSt8__detail15_Hash_code_baseImSt4pairIKmdENS_10_Select1stESt4hashImENS_18_Mod_range_hashingENS_20_Default_ranged_hashELb0EE7_M_hashEv
FN:1683,1684,_ZNSt8__detail15_Hashtable_baseImSt4pairIKmdENS_10_Select1stESt8equal_toImESt4hashImENS_18_Mod_range_hashingENS_20_Default_ranged_hashENS_17_Hashtable_traitsILb0ELb0ELb1EEEE9_S_equalsEmRKNS_21_Hash_node_code_cacheILb0EEE
FN:1701,1701,_ZNSt8__detail15_Hashtable_baseINSt7__cxx1112basic_stringIcSt11char_traitsIcESaIcEEESt4pairIKS6_S6_ENS_10_Select1stESt8equal_toIS6_ESt4hashIS6_ENS_18_Mod_range_hashingENS_20_Default_ranged_hashENS_17_Hashtable_traitsILb1ELb0ELb1EEEEC2Ev
FN:1701,1701,_ZNSt8__detail15_Hashtable_baseImSt4pairIKmdENS_10_Select1stESt8equal_toImESt4hashImENS_18_Mod_range_hashingENS_20_Default_ranged_hashENS_17_Hashtable_traitsILb0ELb0ELb1EEEEC2Ev
FN:1708,1716,_ZNKSt8__detail15_Hashtable_baseImSt4pairIKmdENS_10_Select1stESt8equal_toImESt4hashImENS_18_Mod_range_hashingENS_20_Default_ranged_hashENS_17_Hashtable_traitsILb0ELb0ELb1EEEE13_M_key_equalsERS2_RKNS_16_Hash_node_valueIS3_Lb0EEE
FN:1732,1734,_ZNKSt8__detail15_Hashtable_baseImSt4pairIKmdENS_10_Select1stESt8equal_toImESt4hashImENS_18_Mod_range_hashingENS_20_Default_ranged_hashENS_17_Hashtable_traitsILb0ELb0ELb1EEEE9_M_equalsERS2_mRKNS_16_Hash_node_valueIS3_Lb0EEE
FN:1760,1760,_ZNKSt8__detail15_Hashtable_baseImSt4pairIKmdENS_10_Select1stESt8equal_toImESt4hashImENS_18_Mod_range_hashingENS_20_Default_ranged_hashENS_17_Hashtable_traitsILb0ELb0ELb1EEEE5_M_eqEv
FN:1940,1940,_ZNSt8__detail16_Hashtable_allocISaINS_10_Hash_nodeISt4pairIKNSt7__cxx1112basic_stringIcSt11char_traitsIcESaIcEEES8_ELb1EEEEEC2Ev
FN:1940,1940,_ZNSt8__detail16_Hashtable_allocISaINS_10_Hash_nodeISt4pairIKmdELb0EEEEEC2Ev
FN:1950,1951,_ZNSt8__detail16_Hashtable_allocISaINS_10_Hash_nodeISt4pairIKNSt7__cxx1112basic_stringIcSt11char_traitsIcESaIcEEES8_ELb1EEEEE17_M_node_allocatorEv
FN:1950,1951,_ZNSt8__detail16_Hashtable_allocISaINS_10_Hash_nodeISt4pairIKmdELb0EEEEE17_M_node_allocatorEv
FN:1987,2005,_ZNSt8__detail16_Hashtable_allocISaINS_10_Hash_nodeISt4pairIKmdELb0EEEEE16_M_allocate_nodeIJRKSt21piecewise_construct_tSt5tupleIJRS3_EESC_IJEEEEEPS5_DpOT_
FN:2009,2013,_ZNSt8__detail16_Hashtable_allocISaINS_10_Hash_nodeISt4pairIKNSt7__cxx1112basic_stringIcSt11char_traitsIcESaIcEEES8_ELb1EEEEE18_M_deallocate_nodeEPSB_
FN:2009,2013,_ZNSt8__detail16_Hashtable_allocISaINS_10_Hash_nodeISt4pairIKmdELb0EEEEE18_M_deallocate_nodeEPS5_
FN:2017,2023,_ZNSt8__detail16_Hashtable_allocISaINS_10_Hash_nodeISt4pairIKNSt7__cxx1112basic_stringIcSt11char_traitsIcESaIcEEES8_ELb1EEEEE22_M_deallocate_node_ptrEPSB_
FN:2017,2023,_ZNSt8__detail16_Hashtable_allocISaINS_10_Hash_nodeISt4pairIKmdELb0EEEEE22_M_deallocate_node_ptrEPS5_
FN:2027,2035,_ZNSt8__detail16_Hashtable_allocISaINS_10_Hash_nodeISt4pairIKNSt7__cxx1112basic_stringIcSt11char_traitsIcESaIcEEES8_ELb1EEEEE19_M_deallocate_nodesEPSB_
FN:2027,2035,_ZNSt8__detail16_Hashtable_allocISaINS_10_Hash_nodeISt4pairIKmdELb0EEEEE19_M_deallocate_nodesEPS5_
FN:2039,2048,_ZNSt8__detail16_Hashtable_allocISaINS_10_Hash_nodeISt4pairIKmdELb0EEEEE19_M_allocate_bucketsEm
FN:2052,2060,_ZNSt8__detail16_Hashtable_allocISaINS_10_Hash_nodeISt4pairIKNSt7__cxx1112basic_stringIcSt11char_traitsIcESaIcEEES8_ELb1EEEEE21_M_deallocate_bucketsEPPNS_15_Hash_node_baseEm
FN:2052,2060,_ZNSt8__detail16_Hashtable_allocISaINS_10_Hash_nodeISt4pairIKmdELb0EEEEE21_M_deallocate_bucketsEPPNS_15_Hash_node_baseEm
FN:297,298,_ZNSt8__detail22_Hashtable_hash_traitsISt4hashImEE22__small_size_thresholdEv
FN:313,313,_ZNSt8__detail15_Hash_node_baseC2Ev
FN:380,381,_ZNKSt8__detail10_Hash_nodeISt4pairIKNSt7__cxx1112basic_stringIcSt11char_traitsIcESaIcEEES7_ELb1EE7_M_nextEv
FN:380,381,_ZNKSt8__detail10_Hash_nodeISt4pairIKmdELb0EE7_M_nextEv
FN:393,394,_ZNSt8__detail19_Node_iterator_baseISt4pairIKmdELb0EEC2EPNS_10_Hash_nodeIS3_Lb0EEE
FN:397,398,_ZNSt8__detail19_Node_iterator_baseISt4pairIKmdELb0EE7_M_incrEv
FN:407,409,_ZNSt8__detailneERKNS_19_Node_iterator_baseISt4pairIKmdELb0EEES6_
FN:436,437,_ZNSt8__detail14_Node_iteratorISt4pairIKmdELb0ELb0EEC2EPNS_10_Hash_nodeIS3_Lb0EEE
FN:444,445,_ZNKSt8__detail14_Node_iteratorISt4pairIKmdELb0ELb0EEptEv
FN:448,452,_ZNSt8__detail14_Node_iteratorISt4pairIKmdELb0ELb0EEppEv
FN:483,484,_ZNSt8__detail20_Node_const_iteratorISt4pairIKmdELb0ELb0EEC2EPNS_10_Hash_nodeIS3_Lb0EEE
FN:499,503,_ZNSt8__detail20_Node_const_iteratorISt4pairIKmdELb0ELb0EEppEv
FN:526,528,_ZNKSt8__detail18_Mod_range_hashingclEmm
FN:544,545,_ZNSt8__detail20_Prime_rehash_policyC2Ef
FN:557,558,_ZNKSt8__detail20_Prime_rehash_policy19_M_bkt_for_elementsEm
FN:571,572,_ZNKSt8__detail20_Prime_rehash_policy8_M_stateEv
FN:579,580,_ZNSt8__detail20_Prime_rehash_policy8_M_resetEm
FN:807,828,_ZNSt8__detail9_Map_baseImSt4pairIKmdESaIS3_ENS_10_Select1stESt8equal_toImESt4hashImENS_18_Mod_range_hashingENS_20_Default_ranged_hashENS_20_Prime_rehash_policyENS_17_Hashtable_traitsILb0ELb0ELb1EEELb1EEixERS2_
FNDA:3042372245,_ZNKSt8__detail10_Select1stclIRKSt4pairIKmdEEEONS0_10__1st_typeIT_E4typeEOS8_
FNDA:150,_ZNSt8__detail12_Rehash_baseImSt4pairIKmdESaIS3_ENS_10_Select1stESt8equal_toImESt4hashImENS_18_Mod_range_hashingENS_20_Default_ranged_hashENS_20_Prime_rehash_policyENS_17_Hashtable_traitsILb0ELb0ELb1EEESt17integral_constantIbLb1EEE7reserveEm
FNDA:120,_ZNSt8__detail21_Hashtable_ebo_helperILi0ESaINS_10_Hash_nodeISt4pairIKNSt7__cxx1112basic_stringIcSt11char_traitsIcESaIcEEES8_ELb1EEEELb1EEC2Ev
FNDA:150,_ZNSt8__detail21_Hashtable_ebo_helperILi0ESaINS_10_Hash_nodeISt4pairIKmdELb0EEEELb1EEC2Ev
FNDA:120,_ZNSt8__detail21_Hashtable_ebo_helperILi0ESt8equal_toINSt7__cxx1112basic_stringIcSt11char_traitsIcESaIcEEEELb1EEC2Ev
FNDA:150,_ZNSt8__detail21_Hashtable_ebo_helperILi0ESt8equal_toImELb1EEC2Ev
FNDA:120,_ZNSt8__detail21_Hashtable_ebo_helperILi1ESt4hashINSt7__cxx1112basic_stringIcSt11char_traitsIcESaIcEEEELb1EEC2Ev
FNDA:150,_ZNSt8__detail21_Hashtable_ebo_helperILi1ESt4hashImELb1EEC2Ev
FNDA:1501118176,_ZNKSt8__detail21_Hashtable_ebo_helperILi0ESt8equal_toImELb1EE7_M_cgetEv
FNDA:2759405015,_ZNKSt8__detail21_Hashtable_ebo_helperILi1ESt4hashImELb1EE7_M_cgetEv
FNDA:0,_ZNSt8__detail21_Hashtable_ebo_helperILi0ESaINS_10_Hash_nodeISt4pairIKNSt7__cxx1112basic_stringIcSt11char_traitsIcESaIcEEES8_ELb1EEEELb1EE6_M_getEv
FNDA:1150454164,_ZNSt8__detail21_Hashtable_ebo_helperILi0ESaINS_10_Hash_nodeISt4pairIKmdELb0EEEELb1EE6_M_getEv
FNDA:120,_ZNSt8__detail15_Hash_code_baseINSt7__cxx1112basic_stringIcSt11char_traitsIcESaIcEEESt4pairIKS6_S6_ENS_10_Select1stESt4hashIS6_ENS_18_Mod_range_hashingENS_20_Default_ranged_hashELb1EEC2Ev
FNDA:150,_ZNSt8__detail15_Hash_code_baseImSt4pairIKmdENS_10_Select1stESt4hashImENS_18_Mod_range_hashingENS_20_Default_ranged_hashELb0EEC2Ev
FNDA:2759405015,_ZNKSt8__detail15_Hash_code_baseImSt4pairIKmdENS_10_Select1stESt4hashImENS_18_Mod_range_hashingENS_20_Default_ranged_hashELb0EE12_M_hash_codeERS2_
FNDA:1218150946,_ZNKSt8__detail15_Hash_code_baseImSt4pairIKmdENS_10_Select1stESt4hashImENS_18_Mod_range_hashingENS_20_Default_ranged_hashELb0EE15_M_bucket_indexEmm
FNDA:1541254069,_ZNKSt8__detail15_Hash_code_baseImSt4pairIKmdENS_10_Select1stESt4hashImENS_18_Mod_range_hashingENS_20_Default_ranged_hashELb0EE15_M_bucket_indexERKNS_16_Hash_node_valueIS3_Lb0EEEm
FNDA:287613466,_ZNKSt8__detail15_Hash_code_baseImSt4pairIKmdENS_10_Select1stESt4hashImENS_18_Mod_range_hashingENS_20_Default_ranged_hashELb0EE13_M_store_codeERNS_21_Hash_node_code_cacheILb0EEEm
FNDA:2759405015,_ZNKSt8__detail15_Hash_code_baseImSt4pairIKmdENS_10_Select1stESt4hashImENS_18_Mod_range_hashingENS_20_Default_ranged_hashELb0EE7_M_hashEv
FNDA:1501118176,_ZNSt8__detail15_Hashtable_baseImSt4pairIKmdENS_10_Select1stESt8equal_toImESt4hashImENS_18_Mod_range_hashingENS_20_Default_ranged_hashENS_17_Hashtable_traitsILb0ELb0ELb1EEEE9_S_equalsEmRKNS_21_Hash_node_code_cacheILb0EEE
FNDA:120,_ZNSt8__detail15_Hashtable_baseINSt7__cxx1112basic_stringIcSt11char_traitsIcESaIcEEESt4pairIKS6_S6_ENS_10_Select1stESt8equal_toIS6_ESt4hashIS6_ENS_18_Mod_range_hashingENS_20_Default_ranged_hashENS_17_Hashtable_traitsILb1ELb0ELb1EEEEC2Ev
FNDA:150,_ZNSt8__detail15_Hashtable_baseImSt4pairIKmdENS_10_Select1stESt8equal_toImESt4hashImENS_18_Mod_range_hashingENS_20_Default_ranged_hashENS_17_Hashtable_traitsILb0ELb0ELb1EEEEC2Ev
FNDA:1501118176,_ZNKSt8__detail15_Hashtable_baseImSt4pairIKmdENS_10_Select1stESt8equal_toImESt4hashImENS_18_Mod_range_hashingENS_20_Default_ranged_hashENS_17_Hashtable_traitsILb0ELb0ELb1EEEE13_M_key_equalsERS2_RKNS_16_Hash_node_valueIS3_Lb0EEE
FNDA:1501118176,_ZNKSt8__detail15_Hashtable_baseImSt4pairIKmdENS_10_Select1stESt8equal_toImESt4hashImENS_18_Mod_range_hashingENS_20_Default_ranged_hashENS_17_Hashtable_traitsILb0ELb0ELb1EEEE9_M_equalsERS2_mRKNS_16_Hash_node_valueIS3_Lb0EEE
FNDA:1501118176,_ZNKSt8__detail15_Hashtable_baseImSt4pairIKmdENS_10_Select1stESt8equal_toImESt4hashImENS_18_Mod_range_hashingENS_20_Default_ranged_hashENS_17_Hashtable_traitsILb0ELb0ELb1EEEE5_M_eqEv
FNDA:120,_ZNSt8__detail16_Hashtable_allocISaINS_10_Hash_nodeISt4pairIKNSt7__cxx1112basic_stringIcSt11char_traitsIcESaIcEEES8_ELb1EEEEEC2Ev
FNDA:150,_ZNSt8__detail16_Hashtable_allocISaINS_10_Hash_nodeISt4pairIKmdELb0EEEEEC2Ev
FNDA:0,_ZNSt8__detail16_Hashtable_allocISaINS_10_Hash_nodeISt4pairIKNSt7__cxx1112basic_stringIcSt11char_traitsIcESaIcEEES8_ELb1EEEEE17_M_node_allocatorEv
FNDA:1150454164,_ZNSt8__detail16_Hashtable_allocISaINS_10_Hash_nodeISt4pairIKmdELb0EEEEE17_M_node_allocatorEv
FNDA:287613466,_ZNSt8__detail16_Hashtable_allocISaINS_10_Hash_nodeISt4pairIKmdELb0EEEEE16_M_allocate_nodeIJRKSt21piecewise_construct_tSt5tupleIJRS3_EESC_IJEEEEEPS5_DpOT_
FNDA:0,_ZNSt8__detail16_Hashtable_allocISaINS_10_Hash_nodeISt4pairIKNSt7__cxx1112basic_stringIcSt11char_traitsIcESaIcEEES8_ELb1EEEEE18_M_deallocate_nodeEPSB_
FNDA:287613466,_ZNSt8__detail16_Hashtable_allocISaINS_10_Hash_nodeISt4pairIKmdELb0EEEEE18_M_deallocate_nodeEPS5_
FNDA:0,_ZNSt8__detail16_Hashtable_allocISaINS_10_Hash_nodeISt4pairIKNSt7__cxx1112basic_stringIcSt11char_traitsIcESaIcEEES8_ELb1EEEEE22_M_deallocate_node_ptrEPSB_
FNDA:287613466,_ZNSt8__detail16_Hashtable_allocISaINS_10_Hash_nodeISt4pairIKmdELb0EEEEE22_M_deallocate_node_ptrEPS5_
FNDA:120,_ZNSt8__detail16_Hashtable_allocISaINS_10_Hash_nodeISt4pairIKNSt7__cxx1112basic_stringIcSt11char_traitsIcESaIcEEES8_ELb1EEEEE19_M_deallocate_nodesEPSB_
FNDA:155,_ZNSt8__detail16_Hashtable_allocISaINS_10_Hash_nodeISt4pairIKmdELb0EEEEE19_M_deallocate_nodesEPS5_
FNDA:150,_ZNSt8__detail16_Hashtable_allocISaINS_10_Hash_nodeISt4pairIKmdELb0EEEEE19_M_allocate_bucketsEm
FNDA:0,_ZNSt8__detail16_Hashtable_allocISaINS_10_Hash_nodeISt4pairIKNSt7__cxx1112basic_stringIcSt11char_traitsIcESaIcEEES8_ELb1EEEEE21_M_deallocate_bucketsEPPNS_15_Hash_node_baseEm
FNDA:150,_ZNSt8__detail16_Hashtable_allocISaINS_10_Hash_nodeISt4pairIKmdELb0EEEEE21_M_deallocate_bucketsEPPNS_15_Hash_node_baseEm
FNDA:930537745,_ZNSt8__detail22_Hashtable_hash_traitsISt4hashImEE22__small_size_thresholdEv
FNDA:287613736,_ZNSt8__detail15_Hash_node_baseC2Ev
FNDA:0,_ZNKSt8__detail10_Hash_nodeISt4pairIKNSt7__cxx1112basic_stringIcSt11char_traitsIcESaIcEEES7_ELb1EE7_M_nextEv
FNDA:2546831012,_ZNKSt8__detail10_Hash_nodeISt4pairIKmdELb0EE7_M_nextEv
FNDA:1574359069,_ZNSt8__detail19_Node_iterator_baseISt4pairIKmdELb0EEC2EPNS_10_Hash_nodeIS3_Lb0EEE
FNDA:0,_ZNSt8__detail19_Node_iterator_baseISt4pairIKmdELb0EE7_M_incrEv
FNDA:356207593,_ZNSt8__detailneERKNS_19_Node_iterator_baseISt4pairIKmdELb0EEES6_
FNDA:1286745318,_ZNSt8__detail14_Node_iteratorISt4pairIKmdELb0ELb0EEC2EPNS_10_Hash_nodeIS3_Lb0EEE
FNDA:356207343,_ZNKSt8__detail14_Node_iteratorISt4pairIKmdELb0ELb0EEptEv
FNDA:0,_ZNSt8__detail14_Node_iteratorISt4pairIKmdELb0ELb0EEppEv
FNDA:287613751,_ZNSt8__detail20_Node_const_iteratorISt4pairIKmdELb0ELb0EEC2EPNS_10_Hash_nodeIS3_Lb0EEE
FNDA:0,_ZNSt8__detail20_Node_const_iteratorISt4pairIKmdELb0ELb0EEppEv
FNDA:2759405015,_ZNKSt8__detail18_Mod_range_hashingclEmm
FNDA:270,_ZNSt8__detail20_Prime_rehash_policyC2Ef
FNDA:300,_ZNKSt8__detail20_Prime_rehash_policy19_M_bkt_for_elementsEm
FNDA:287613616,_ZNKSt8__detail20_Prime_rehash_policy8_M_stateEv
FNDA:0,_ZNSt8__detail20_Prime_rehash_policy8_M_resetEm
FNDA:287613466,_ZNSt8__detail9_Map_baseImSt4pairIKmdESaIS3_ENS_10_Select1stESt8equal_toImESt4hashImENS_18_Mod_range_hashingENS_20_Default_ranged_hashENS_20_Prime_rehash_policyENS_17_Hashtable_traitsILb0ELb0ELb1EEELb1EEixERS2_
FNF:57
FNH:47
DA:112,3042372245
DA:113,3042372245
DA:297,930537745
DA:298,930537745
DA:313,287613736
DA:333,0
DA:338,3042372245
DA:343,0
DA:348,3042372245
DA:380,2546831012
DA:381,2546831012
DA:393,1574359069
DA:394,1574359069
DA:397,0
DA:398,0
DA:407,356207593
DA:409,356207593
DA:436,1286745318
DA:437,1286745318
DA:444,356207343
DA:445,712414686
DA:448,0
DA:450,0
DA:451,0
DA:483,287613751
DA:484,287613751
DA:499,0
DA:501,0
DA:502,0
DA:526,2759405015
DA:528,2759405015
DA:544,270
DA:545,270
DA:557,300
DA:558,300
DA:571,287613616
DA:572,287613616
DA:579,0
DA:580,0
DA:807,287613466
DA:812,287613466
DA:813,287613466
DA:814,287613466
DA:815,287613466
DA:816,0
DA:818,287613466
DA:821,287613466
DA:822,0
DA:825,287613466
DA:826,287613466
DA:827,287613466
DA:828,287613466
DA:1196,150
DA:1198,150
DA:1199,150
DA:1200,150
DA:1218,810
DA:1225,4260523191
DA:1226,1150454164
DA:1301,270
DA:1306,2759405015
DA:1310,2759405015
DA:1331,1218150946
DA:1332,1218150946
DA:1335,1541254069
DA:1341,4623762207
DA:1342,1541254069
DA:1353,287613466
DA:1354,287613466
DA:1375,2759405015
DA:1683,1501118176
DA:1684,1501118176
DA:1701,270
DA:1708,1501118176
DA:1715,3002236352
DA:1732,1501118176
DA:1734,1501118176
DA:1760,1501118176
DA:1940,270
DA:1950,1150454164
DA:1951,1150454164
DA:1987,287613466
DA:1990,287613466
DA:1991,287613466
DA:1994,287613466
DA:1995,575226932
DA:1998,287613466
DA:2000,0
DA:2002,0
DA:2003,0
DA:2009,287613466
DA:2011,575226932
DA:2012,287613466
DA:2013,287613466
DA:2017,287613466
DA:2020,287613466
DA:2021,287613466
DA:2022,287613466
DA:2023,287613466
DA:2027,275
DA:2029,896795
DA:2031,896520
DA:2032,896520
DA:2033,896520
DA:2035,275
DA:2039,150
DA:2042,150
DA:2044,150
DA:2045,150
DA:2046,150
DA:2047,300
DA:2052,150
DA:2057,150
DA:2058,150
DA:2060,150
LF:115
LH:98
end_of_record
TN:
SF:/usr/include/c++/13/bits/invoke.h
FN:104,117,_ZSt10__invoke_rIbRNSt8__detail11_AnyMatcherINSt7__cxx1112regex_traitsIcEELb0ELb0ELb0EEEJcEENSt9enable_ifIX16is_invocable_r_vIT_T0_DpT1_EES8_E4typeEOS9_DpOSA_
FN:104,117,_ZSt10__invoke_rIbRNSt8__detail11_AnyMatcherINSt7__cxx1112regex_traitsIcEELb0ELb0ELb1EEEJcEENSt9enable_ifIX16is_invocable_r_vIT_T0_DpT1_EES8_E4typeEOS9_DpOSA_
FN:104,117,_ZSt10__invoke_rIbRNSt8__detail11_AnyMatcherINSt7__cxx1112regex_traitsIcEELb0ELb1ELb0EEEJcEENSt9enable_ifIX16is_invocable_r_vIT_T0_DpT1_EES8_E4typeEOS9_DpOSA_
FN:104,117,_ZSt10__invoke_rIbRNSt8__detail11_AnyMatcherINSt7__cxx1112regex_traitsIcEELb0ELb1ELb1EEEJcEENSt9enable_ifIX16is_invocable_r_vIT_T0_DpT1_EES8_E4typeEOS9_DpOSA_
FN:104,117,_ZSt10__invoke_rIbRNSt8__detail11_AnyMatcherINSt7__cxx1112regex_traitsIcEELb1ELb0ELb0EEEJcEENSt9enable_ifIX16is_invocable_r_vIT_T0_DpT1_EES8_E4typeEOS9_DpOSA_
FN:104,117,_ZSt10__invoke_rIbRNSt8__detail11_AnyMatcherINSt7__cxx1112regex_traitsIcEELb1ELb0ELb1EEEJcEENSt9enable_ifIX16is_invocable_r_vIT_T0_DpT1_EES8_E4typeEOS9_DpOSA_
FN:104,117,_ZSt10__invoke_rIbRNSt8__detail11_AnyMatcherINSt7__cxx1112regex_traitsIcEELb1ELb1ELb0EEEJcEENSt9enable_ifIX16is_invocable_r_vIT_T0_DpT1_EES8_E4typeEOS9_DpOSA_
FN:104,117,_ZSt10__invoke_rIbRNSt8__detail11_AnyMatcherINSt7__cxx1112regex_traitsIcEELb1ELb1ELb1EEEJcEENSt9enable_ifIX16is_invocable_r_vIT_T0_DpT1_EES8_E4typeEOS9_DpOSA_
FN:104,117,_ZSt10__invoke_rIbRNSt8__detail12_CharMatcherINSt7__cxx1112regex_traitsIcEELb0ELb0EEEJcEENSt9enable_ifIX16is_invocable_r_vIT_T0_DpT1_EES8_E4typeEOS9_DpOSA_
FN:104,117,_ZSt10__invoke_rIbRNSt8__detail12_CharMatcherINSt7__cxx1112regex_traitsIcEELb0ELb1EEEJcEENSt9enable_ifIX16is_invocable_r_vIT_T0_DpT1_EES8_E4typeEOS9_DpOSA_
FN:104,117,_ZSt10__invoke_rIbRNSt8__detail12_CharMatcherINSt7__cxx1112regex_traitsIcEELb1ELb0EEEJcEENSt9enable_ifIX16is_invocable_r_vIT_T0_DpT1_EES8_E4typeEOS9_DpOSA_
FN:104,117,_ZSt10__invoke_rIbRNSt8__detail12_CharMatcherINSt7__cxx1112regex_traitsIcEELb1ELb1EEEJcEENSt9enable_ifIX16is_invocable_r_vIT_T0_DpT1_EES8_E4typeEOS9_DpOSA_
FN:104,117,_ZSt10__invoke_rIbRNSt8__detail15_BracketMatcherINSt7__cxx1112regex_traitsIcEELb0ELb0EEEJcEENSt9enable_ifIX16is_invocable_r_vIT_T0_DpT1_EES8_E4typeEOS9_DpOSA_
FN:104,117,_ZSt10__invoke_rIbRNSt8__detail15_BracketMatcherINSt7__cxx1112regex_traitsIcEELb0ELb1EEEJcEENSt9enable_ifIX16is_invocable_r_vIT_T0_DpT1_EES8_E4typeEOS9_DpOSA_
FN:104,117,_ZSt10__invoke_rIbRNSt8__detail15_BracketMatcherINSt7__cxx1112regex_traitsIcEELb1ELb0EEEJcEENSt9enable_ifIX16is_invocable_r_vIT_T0_DpT1_EES8_E4typeEOS9_DpOSA_
FN:104,117,_ZSt10__invoke_rIbRNSt8__detail15_BracketMatcherINSt7__cxx1112regex_traitsIcEELb1ELb1EEEJcEENSt9enable_ifIX16is_invocable_r_vIT_T0_DpT1_EES8_E4typeEOS9_DpOSA_
FN:60,61,_ZSt13__invoke_implIbRNSt8__detail11_AnyMatcherINSt7__cxx1112regex_traitsIcEELb0ELb0ELb0EEEJcEET_St14__invoke_otherOT0_DpOT1_
FN:60,61,_ZSt13__invoke_implIbRNSt8__detail11_AnyMatcherINSt7__cxx1112regex_traitsIcEELb0ELb0ELb1EEEJcEET_St14__invoke_otherOT0_DpOT1_
FN:60,61,_ZSt13__invoke_implIbRNSt8__detail11_AnyMatcherINSt7__cxx1112regex_traitsIcEELb0ELb1ELb0EEEJcEET_St14__invoke_otherOT0_DpOT1_
FN:60,61,_ZSt13__invoke_implIbRNSt8__detail11_AnyMatcherINSt7__cxx1112regex_traitsIcEELb0ELb1ELb1EEEJcEET_St14__invoke_otherOT0_DpOT1_
FN:60,61,_ZSt13__invoke_implIbRNSt8__detail11_AnyMatcherINSt7__cxx1112regex_traitsIcEELb1ELb0ELb0EEEJcEET_St14__invoke_otherOT0_DpOT1_
FN:60,61,_ZSt13__invoke_implIbRNSt8__detail11_AnyMatcherINSt7__cxx1112regex_traitsIcEELb1ELb0ELb1EEEJcEET_St14__invoke_otherOT0_DpOT1_
FN:60,61,_ZSt13__invoke_implIbRNSt8__detail11_AnyMatcherINSt7__cxx1112regex_traitsIcEELb1ELb1ELb0EEEJcEET_St14__invoke_otherOT0_DpOT1_
FN:60,61,_ZSt13__invoke_implIbRNSt8__detail11_AnyMatcherINSt7__cxx1112regex_traitsIcEELb1ELb1ELb1EEEJcEET_St14__invoke_otherOT0_DpOT1_
FN:60,61,_ZSt13__invoke_implIbRNSt8__detail12_CharMatcherINSt7__cxx1112regex_traitsIcEELb0ELb0EEEJcEET_St14__invoke_otherOT0_DpOT1_
FN:60,61,_ZSt13__invoke_implIbRNSt8__detail12_CharMatcherINSt7__cxx1112regex_traitsIcEELb0ELb1EEEJcEET_St14__invoke_otherOT0_DpOT1_
FN:60,61,_ZSt13__invoke_implIbRNSt8__detail12_CharMatcherINSt7__cxx1112regex_traitsIcEELb1ELb0EEEJcEET_St14__invoke_otherOT0_DpOT1_
FN:60,61,_ZSt13__invoke_implIbRNSt8__detail12_CharMatcherINSt7__cxx1112regex_traitsIcEELb1ELb1EEEJcEET_St14__invoke_otherOT0_DpOT1_
FN:60,61,_ZSt13__invoke_implIbRNSt8__detail15_BracketMatcherINSt7__cxx1112regex_traitsIcEELb0ELb0EEEJcEET_St14__invoke_otherOT0_DpOT1_
FN:60,61,_ZSt13__invoke_implIbRNSt8__detail15_BracketMatcherINSt7__cxx1112regex_traitsIcEELb0ELb1EEEJcEET_St14__invoke_otherOT0_DpOT1_
FN:60,61,_ZSt13__invoke_implIbRNSt8__detail15_BracketMatcherINSt7__cxx1112regex_traitsIcEELb1ELb0EEEJcEET_St14__invoke_otherOT0_DpOT1_
FN:60,61,_ZSt13__invoke_implIbRNSt8__detail15_BracketMatcherINSt7__cxx1112regex_traitsIcEELb1ELb1EEEJcEET_St14__invoke_otherOT0_DpOT1_
FNDA:0,_ZSt10__invoke_rIbRNSt8__detail11_AnyMatcherINSt7__cxx1112regex_traitsIcEELb0ELb0ELb0EEEJcEENSt9enable_ifIX16is_invocable_r_vIT_T0_DpT1_EES8_E4typeEOS9_DpOSA_
FNDA:0,_ZSt10__invoke_rIbRNSt8__detail11_AnyMatcherINSt7__cxx1112regex_traitsIcEELb0ELb0ELb1EEEJcEENSt9enable_ifIX16is_invocable_r_vIT_T0_DpT1_EES8_E4typeEOS9_DpOSA_
FNDA:0,_ZSt10__invoke_rIbRNSt8__detail11_AnyMatcherINSt7__cxx1112regex_traitsIcEELb0ELb1ELb0EEEJcEENSt9enable_ifIX16is_invocable_r_vIT_T0_DpT1_EES8_E4typeEOS9_DpOSA_
FNDA:0,_ZSt10__invoke_rIbRNSt8__detail11_AnyMatcherINSt7__cxx1112regex_traitsIcEELb0ELb1ELb1EEEJcEENSt9enable_ifIX16is_invocable_r_vIT_T0_DpT1_EES8_E4typeEOS9_DpOSA_
FNDA:0,_ZSt10__invoke_rIbRNSt8__detail11_AnyMatcherINSt7__cxx1112regex_traitsIcEELb1ELb0ELb0EEEJcEENSt9enable_ifIX16is_invocable_r_vIT_T0_DpT1_EES8_E4typeEOS9_DpOSA_
FNDA:0,_ZSt10__invoke_rIbRNSt8__detail11_AnyMatcherINSt7__cxx1112regex_traitsIcEELb1ELb0ELb1EEEJcEENSt9enable_ifIX16is_invocable_r_vIT_T0_DpT1_EES8_E4typeEOS9_DpOSA_
FNDA:0,_ZSt10__invoke_rIbRNSt8__detail11_AnyMatcherINSt7__cxx1112regex_traitsIcEELb1ELb1ELb0EEEJcEENSt9enable_ifIX16is_invocable_r_vIT_T0_DpT1_EES8_E4typeEOS9_DpOSA_
FNDA:0,_ZSt10__invoke_rIbRNSt8__detail11_AnyMatcherINSt7__cxx1112regex_traitsIcEELb1ELb1ELb1EEEJcEENSt9enable_ifIX16is_invocable_r_vIT_T0_DpT1_EES8_E4typeEOS9_DpOSA_
FNDA:0,_ZSt10__invoke_rIbRNSt8__detail12_CharMatcherINSt7__cxx1112regex_traitsIcEELb0ELb0EEEJcEENSt9enable_ifIX16is_invocable_r_vIT_T0_DpT1_EES8_E4typeEOS9_DpOSA_
FNDA:0,_ZSt10__invoke_rIbRNSt8__detail12_CharMatcherINSt7__cxx1112regex_traitsIcEELb0ELb1EEEJcEENSt9enable_ifIX16is_invocable_r_vIT_T0_DpT1_EES8_E4typeEOS9_DpOSA_
FNDA:0,_ZSt10__invoke_rIbRNSt8__detail12_CharMatcherINSt7__cxx1112regex_traitsIcEELb1ELb0EEEJcEENSt9enable_ifIX16is_invocable_r_vIT_T0_DpT1_EES8_E4typeEOS9_DpOSA_
FNDA:0,_ZSt10__invoke_rIbRNSt8__detail12_CharMatcherINSt7__cxx1112regex_traitsIcEELb1ELb1EEEJcEENSt9enable_ifIX16is_invocable_r_vIT_T0_DpT1_EES8_E4typeEOS9_DpOSA_
FNDA:0,_ZSt10__invoke_rIbRNSt8__detail15_BracketMatcherINSt7__cxx1112regex_traitsIcEELb0ELb0EEEJcEENSt9enable_ifIX16is_invocable_r_vIT_T0_DpT1_EES8_E4typeEOS9_DpOSA_
FNDA:0,_ZSt10__invoke_rIbRNSt8__detail15_BracketMatcherINSt7__cxx1112regex_traitsIcEELb0ELb1EEEJcEENSt9enable_ifIX16is_invocable_r_vIT_T0_DpT1_EES8_E4typeEOS9_DpOSA_
FNDA:0,_ZSt10__invoke_rIbRNSt8__detail15_BracketMatcherINSt7__cxx1112regex_traitsIcEELb1ELb0EEEJcEENSt9enable_ifIX16is_invocable_r_vIT_T0_DpT1_EES8_E4typeEOS9_DpOSA_
FNDA:0,_ZSt10__invoke_rIbRNSt8__detail15_BracketMatcherINSt7__cxx1112regex_traitsIcEELb1ELb1EEEJcEENSt9enable_ifIX16is_invocable_r_vIT_T0_DpT1_EES8_E4typeEOS9_DpOSA_
FNDA:0,_ZSt13__invoke_implIbRNSt8__detail11_AnyMatcherINSt7__cxx1112regex_traitsIcEELb0ELb0ELb0EEEJcEET_St14__invoke_otherOT0_DpOT1_
FNDA:0,_ZSt13__invoke_implIbRNSt8__detail11_AnyMatcherINSt7__cxx1112regex_traitsIcEELb0ELb0ELb1EEEJcEET_St14__invoke_otherOT0_DpOT1_
FNDA:0,_ZSt13__invoke_implIbRNSt8__detail11_AnyMatcherINSt7__cxx1112regex_traitsIcEELb0ELb1ELb0EEEJcEET_St14__invoke_otherOT0_DpOT1_
FNDA:0,_ZSt13__invoke_implIbRNSt8__detail11_AnyMatcherINSt7__cxx1112regex_traitsIcEELb0ELb1ELb1EEEJcEET_St14__invoke_otherOT0_DpOT1_
FNDA:0,_ZSt13__invoke_implIbRNSt8__detail11_AnyMatcherINSt7__cxx1112regex_traitsIcEELb1ELb0ELb0EEEJcEET_St14__invoke_otherOT0_DpOT1_
FNDA:0,_ZSt13__invoke_implIbRNSt8__detail11_AnyMatcherINSt7__cxx1112regex_traitsIcEELb1ELb0ELb1EEEJcEET_St14__invoke_otherOT0_DpOT1_
FNDA:0,_ZSt13__invoke_implIbRNSt8__detail11_AnyMatcherINSt7__cxx1112regex_traitsIcEELb1ELb1ELb0EEEJcEET_St14__invoke_otherOT0_DpOT1_
FNDA:0,_ZSt13__invoke_implIbRNSt8__detail11_AnyMatcherINSt7__cxx1112regex_traitsIcEELb1ELb1ELb1EEEJcEET_St14__invoke_otherOT0_DpOT1_
FNDA:0,_ZSt13__invoke_implIbRNSt8__detail12_CharMatcherINSt7__cxx1112regex_traitsIcEELb0ELb0EEEJcEET_St14__invoke_otherOT0_DpOT1_
FNDA:0,_ZSt13__invoke_implIbRNSt8__detail12_CharMatcherINSt7__cxx1112regex_traitsIcEELb0ELb1EEEJcEET_St14__invoke_otherOT0_DpOT1_
FNDA:0,_ZSt13__invoke_implIbRNSt8__detail12_CharMatcherINSt7__cxx1112regex_traitsIcEELb1ELb0EEEJcEET_St14__invoke_otherOT0_DpOT1_
FNDA:0,_ZSt13__invoke_implIbRNSt8__detail12_CharMatcherINSt7__cxx1112regex_traitsIcEELb1ELb1EEEJcEET_St14__invoke_otherOT0_DpOT1_
FNDA:0,_ZSt13__invoke_implIbRNSt8__detail15_BracketMatcherINSt7__cxx1112regex_traitsIcEELb0ELb0EEEJcEET_St14__invoke_otherOT0_DpOT1_
FNDA:0,_ZSt13__invoke_implIbRNSt8__detail15_BracketMatcherINSt7__cxx1112regex_traitsIcEELb0ELb1EEEJcEET_St14__invoke_otherOT0_DpOT1_
FNDA:0,_ZSt13__invoke_implIbRNSt8__detail15_BracketMatcherINSt7__cxx1112regex_traitsIcEELb1ELb0EEEJcEET_St14__invoke_otherOT0_DpOT1_
FNDA:0,_ZSt13__invoke_implIbRNSt8__detail15_BracketMatcherINSt7__cxx1112regex_traitsIcEELb1ELb1EEEJcEET_St14__invoke_otherOT0_DpOT1_
FNF:32
FNH:0
DA:60,0
DA:61,0
DA:104,0
DA:114,0
DA:116,0
LF:5
LH:0
end_of_record
TN:
SF:/usr/include/c++/13/bits/ios_base.h
FN:1001,1005,_ZSt9uppercaseRSt8ios_base
FN:1017,1021,_ZSt7unitbufRSt8ios_base
FN:103,104,_ZStaNRSt13_Ios_FmtflagsS_
FN:1042,1046,_ZSt4leftRSt8ios_base
FN:1067,1071,_ZSt3hexRSt8ios_base
FN:1075,1079,_ZSt3octRSt8ios_base
FN:1084,1088,_ZSt5fixedRSt8ios_base
FN:130,131,_ZStorSt13_Ios_OpenmodeS_
FN:662,663,_ZNKSt8ios_base5flagsEv
FN:673,678,_ZNSt8ios_base5flagsESt13_Ios_Fmtflags
FN:689,694,_ZNSt8ios_base4setfESt13_Ios_Fmtflags
FN:706,712,_ZNSt8ios_base4setfESt13_Ios_FmtflagsS0_
FN:83,84,_ZStanSt13_Ios_FmtflagsS_
FN:87,88,_ZStorSt13_Ios_FmtflagsS_
FN:95,96,_ZStcoSt13_Ios_Fmtflags
FN:99,100,_ZStoRRSt13_Ios_FmtflagsS_
FNDA:0,_ZSt9uppercaseRSt8ios_base
FNDA:0,_ZSt7unitbufRSt8ios_base
FNDA:0,_ZStaNRSt13_Ios_FmtflagsS_
FNDA:0,_ZSt4leftRSt8ios_base
FNDA:0,_ZSt3hexRSt8ios_base
FNDA:0,_ZSt3octRSt8ios_base
FNDA:0,_ZSt5fixedRSt8ios_base
FNDA:0,_ZStorSt13_Ios_OpenmodeS_
FNDA:0,_ZNKSt8ios_base5flagsEv
FNDA:0,_ZNSt8ios_base5flagsESt13_Ios_Fmtflags
FNDA:0,_ZNSt8ios_base4setfESt13_Ios_Fmtflags
FNDA:0,_ZNSt8ios_base4setfESt13_Ios_FmtflagsS0_
FNDA:0,_ZStanSt13_Ios_FmtflagsS_
FNDA:0,_ZStorSt13_Ios_FmtflagsS_
FNDA:0,_ZStcoSt13_Ios_Fmtflags
FNDA:0,_ZStoRRSt13_Ios_FmtflagsS_
FNF:16
FNH:0
DA:83,0
DA:84,0
DA:87,0
DA:88,0
DA:95,0
DA:96,0
DA:99,0
DA:100,0
DA:103,0
DA:104,0
DA:130,0
DA:131,0
DA:662,0
DA:663,0
DA:673,0
DA:675,0
DA:676,0
DA:677,0
DA:689,0
DA:691,0
DA:692,0
DA:693,0
DA:706,0
DA:708,0
DA:709,0
DA:710,0
DA:711,0
DA:1001,0
DA:1003,0
DA:1004,0
DA:1017,0
DA:1019,0
DA:1020,0
DA:1042,0
DA:1044,0
DA:1045,0
DA:1067,0
DA:1069,0
DA:1070,0
DA:1075,0
DA:1077,0
DA:1078,0
DA:1084,0
DA:1086,0
DA:1087,0
LF:45
LH:0
end_of_record
TN:
SF:/usr/include/c++/13/bits/locale_classes.tcc
FN:192,203,_ZSt9use_facetIKSt5ctypeIcEERKT_RKSt6locale
FN:92,147,_ZSt15__try_use_facetIKSt5ctypeIcEEPKT_RKSt6locale
FNDA:0,_ZSt9use_facetIKSt5ctypeIcEERKT_RKSt6locale
FNDA:0,_ZSt15__try_use_facetIKSt5ctypeIcEEPKT_RKSt6locale
FNF:2
FNH:0
DA:92,0
DA:94,0
DA:95,0
DA:139,0
DA:140,0
DA:143,0
DA:192,0
DA:200,0
DA:201,0
DA:202,0
LF:10
LH:0
end_of_record
TN:
SF:/usr/include/c++/13/bits/locale_facets.h
FN:810,811,_ZNKSt5ctypeIcE7toupperEc
FN:843,844,_ZNKSt5ctypeIcE7tolowerEc
FN:860,861,_ZNKSt5ctypeIcE7tolowerEPcPKc
FN:880,886,_ZNKSt5ctypeIcE5widenEc
FN:939,947,_ZNKSt5ctypeIcE6narrowEcc
FNDA:0,_ZNKSt5ctypeIcE7toupperEc
FNDA:0,_ZNKSt5ctypeIcE7tolowerEc
FNDA:0,_ZNKSt5ctypeIcE7tolowerEPcPKc
FNDA:0,_ZNKSt5ctypeIcE5widenEc
FNDA:0,_ZNKSt5ctypeIcE6narrowEcc
FNF:5
FNH:0
DA:810,0
DA:811,0
DA:843,0
DA:844,0
DA:860,0
DA:861,0
DA:880,0
DA:882,0
DA:883,0
DA:884,0
DA:885,0
DA:939,0
DA:941,0
DA:942,0
DA:943,0
DA:944,0
DA:945,0
DA:946,0
LF:18
LH:0
end_of_record
TN:
SF:/usr/include/c++/13/bits/move.h
FN:138,139,_ZSt9addressofINSt8__detail10_Hash_nodeISt4pairIKNSt7__cxx1112basic_stringIcSt11char_traitsIcESaIcEEES8_ELb1EEEEPT_RSC_
FN:138,139,_ZSt9addressofINSt8__detail10_Hash_nodeISt4pairIKmdELb0EEEEPT_RS6_
FN:138,139,_ZSt9addressofIPNSt8__detail15_Hash_node_baseEEPT_RS3_
FN:189,200,_ZSt4swapIN5Catch14TestCaseHandleEENSt9enable_ifIXsrSt6__and_IJSt6__not_ISt15__is_tuple_likeIT_EESt21is_move_constructibleIS6_ESt18is_move_assignableIS6_EEE5valueEvE4typeERS6_SG_
FN:189,200,_ZSt4swapIN5Catch3TagEENSt9enable_ifIXsrSt6__and_IJSt6__not_ISt15__is_tuple_likeIT_EESt21is_move_constructibleIS6_ESt18is_move_assignableIS6_EEE5valueEvE4typeERS6_SG_
FN:189,200,_ZSt4swapIN5Catch6Colour4CodeEENSt9enable_ifIXsrSt6__and_IJSt6__not_ISt15__is_tuple_likeIT_EESt21is_move_constructibleIS7_ESt18is_move_assignableIS7_EEE5valueEvE4typeERS7_SH_
FN:189,200,_ZSt4swapIPFbRKSt9_Any_dataOcEENSt9enable_ifIXsrSt6__and_IJSt6__not_ISt15__is_tuple_likeIT_EESt21is_move_constructibleISA_ESt18is_move_assignableISA_EEE5valueEvE4typeERSA_SK_
FN:189,200,_ZSt4swapIPFbRSt9_Any_dataRKS0_St18_Manager_operationEENSt9enable_ifIXsrSt6__and_IJSt6__not_ISt15__is_tuple_likeIT_EESt21is_move_constructibleISB_ESt18is_move_assignableISB_EEE5valueEvE4typeERSB_SL_
FN:189,200,_ZSt4swapIPKN5Catch10ColourImplEENSt9enable_ifIXsrSt6__and_IJSt6__not_ISt15__is_tuple_likeIT_EESt21is_move_constructibleIS8_ESt18is_move_assignableIS8_EEE5valueEvE4typeERS8_SI_
FN:189,200,_ZSt4swapIPKNSt8__detail4_NFAINSt7__cxx1112regex_traitsIcEEEEENSt9enable_ifIXsrSt6__and_IJSt6__not_ISt15__is_tuple_likeIT_EESt21is_move_constructibleISC_ESt18is_move_assignableISC_EEE5valueEvE4typeERSC_SM_
FN:189,200,_ZSt4swapIPN5Catch5Clara6Detail17BoundValueRefBaseEENSt9enable_ifIXsrSt6__and_IJSt6__not_ISt15__is_tuple_likeIT_EESt21is_move_constructibleIS9_ESt18is_move_assignableIS9_EEE5valueEvE4typeERS9_SJ_
FN:189,200,_ZSt4swapIPN5Catch5Clara6Detail8BoundRefEENSt9enable_ifIXsrSt6__and_IJSt6__not_ISt15__is_tuple_likeIT_EESt21is_move_constructibleIS9_ESt18is_move_assignableIS9_EEE5valueEvE4typeERS9_SJ_
FN:189,200,_ZSt4swapIPNSt7__cxx1112basic_stringIcSt11char_traitsIcESaIcEEEENSt9enable_ifIXsrSt6__and_IJSt6__not_ISt15__is_tuple_likeIT_EESt21is_move_constructibleISB_ESt18is_move_assignableISB_EEE5valueEvE4typeERSB_SL_
FN:189,200,_ZSt4swapISt6localeENSt9enable_ifIXsrSt6__and_IJSt6__not_ISt15__is_tuple_likeIT_EESt21is_move_constructibleIS5_ESt18is_move_assignableIS5_EEE5valueEvE4typeERS5_SF_
FN:189,200,_ZSt4swapISt9_Any_dataENSt9enable_ifIXsrSt6__and_IJSt6__not_ISt15__is_tuple_likeIT_EESt21is_move_constructibleIS5_ESt18is_move_assignableIS5_EEE5valueEvE4typeERS5_SF_
FN:189,200,_ZSt4swapIbENSt9enable_ifIXsrSt6__and_IJSt6__not_ISt15__is_tuple_likeIT_EESt21is_move_constructibleIS4_ESt18is_move_assignableIS4_EEE5valueEvE4typeERS4_SE_
FN:189,200,_ZSt4swapIcENSt9enable_ifIXsrSt6__and_IJSt6__not_ISt15__is_tuple_likeIT_EESt21is_move_constructibleIS4_ESt18is_move_assignableIS4_EEE5valueEvE4typeERS4_SE_
FN:189,200,_ZSt4swapIdENSt9enable_ifIXsrSt6__and_IJSt6__not_ISt15__is_tuple_likeIT_EESt21is_move_constructibleIS4_ESt18is_move_assignableIS4_EEE5valueEvE4typeERS4_SE_
FN:189,200,_ZSt4swapIlENSt9enable_ifIXsrSt6__and_IJSt6__not_ISt15__is_tuple_likeIT_EESt21is_move_constructibleIS4_ESt18is_move_assignableIS4_EEE5valueEvE4typeERS4_SE_
FN:189,200,_ZSt4swapImENSt9enable_ifIXsrSt6__and_IJSt6__not_ISt15__is_tuple_likeIT_EESt21is_move_constructibleIS4_ESt18is_move_assignableIS4_EEE5valueEvE4typeERS4_SE_
FN:51,52,_ZSt11__addressofIKNSt8__detail11_AnyMatcherINSt7__cxx1112regex_traitsIcEELb0ELb0ELb0EEEEPT_RS7_
FN:51,52,_ZSt11__addressofIKNSt8__detail11_AnyMatcherINSt7__cxx1112regex_traitsIcEELb0ELb0ELb1EEEEPT_RS7_
FN:51,52,_ZSt11__addressofIKNSt8__detail11_AnyMatcherINSt7__cxx1112regex_traitsIcEELb0ELb1ELb0EEEEPT_RS7_
FN:51,52,_ZSt11__addressofIKNSt8__detail11_AnyMatcherINSt7__cxx1112regex_traitsIcEELb0ELb1ELb1EEEEPT_RS7_
FN:51,52,_ZSt11__addressofIKNSt8__detail11_AnyMatcherINSt7__cxx1112regex_traitsIcEELb1ELb0ELb0EEEEPT_RS7_
FN:51,52,_ZSt11__addressofIKNSt8__detail11_AnyMatcherINSt7__cxx1112regex_traitsIcEELb1ELb0ELb1EEEEPT_RS7_
FN:51,52,_ZSt11__addressofIKNSt8__detail11_AnyMatcherINSt7__cxx1112regex_traitsIcEELb1ELb1ELb0EEEEPT_RS7_
FN:51,52,_ZSt11__addressofIKNSt8__detail11_AnyMatcherINSt7__cxx1112regex_traitsIcEELb1ELb1ELb1EEEEPT_RS7_
FN:51,52,_ZSt11__addressofIKNSt8__detail12_CharMatcherINSt7__cxx1112regex_traitsIcEELb0ELb0EEEEPT_RS7_
FN:51,52,_ZSt11__addressofIKNSt8__detail12_CharMatcherINSt7__cxx1112regex_traitsIcEELb0ELb1EEEEPT_RS7_
FN:51,52,_ZSt11__addressofIKNSt8__detail12_CharMatcherINSt7__cxx1112regex_traitsIcEELb1ELb0EEEEPT_RS7_
FN:51,52,_ZSt11__addressofIKNSt8__detail12_CharMatcherINSt7__cxx1112regex_traitsIcEELb1ELb1EEEEPT_RS7_
FN:51,52,_ZSt11__addressofIKSt6vectorIN5Catch12ReporterSpecESaIS2_EEEPT_RS6_
FN:51,52,_ZSt11__addressofIKSt6vectorIN5Catch5Clara3ArgESaIS3_EEEPT_RS7_
FN:51,52,_ZSt11__addressofIKSt6vectorIN5Catch5Clara3OptESaIS3_EEEPT_RS7_
FN:51,52,_ZSt11__addressofIKSt6vectorIN5Catch9StringRefESaIS2_EEEPT_RS6_
FN:51,52,_ZSt11__addressofIKSt6vectorINSt7__cxx1112basic_stringIcSt11char_traitsIcESaIcEEESaIS6_EEEPT_RSA_
FN:51,52,_ZSt11__addressofIKSt6vectorINSt7__cxx119sub_matchIN9__gnu_cxx17__normal_iteratorIPKcNS1_12basic_stringIcSt11char_traitsIcESaIcEEEEEEESaISD_EEEPT_RSH_
FN:51,52,_ZSt11__addressofIKSt6vectorIdSaIdEEEPT_RS4_
FN:51,52,_ZSt11__addressofIKSt8_Rb_treeINSt7__cxx1112basic_stringIcSt11char_traitsIcESaIcEEESt4pairIKS6_S6_ESt10_Select1stIS9_ESt4lessIS6_ESaIS9_EEEPT_RSH_
FN:51,52,_ZSt11__addressofIN4givp6detail15EvaluationCacheEEPT_RS3_
FN:51,52,_ZSt11__addressofIN4givp6detail18ConvergenceMonitorEEPT_RS3_
FN:51,52,_ZSt11__addressofIN5Catch10ColumnInfoEEPT_RS2_
FN:51,52,_ZSt11__addressofIN5Catch11MessageInfoEEPT_RS2_
FN:51,52,_ZSt11__addressofIN5Catch11SectionInfoEEPT_RS2_
FN:51,52,_ZSt11__addressofIN5Catch12ReporterSpecEEPT_RS2_
FN:51,52,_ZSt11__addressofIN5Catch12_GLOBAL__N_113SummaryColumnEEPT_RS3_
FN:51,52,_ZSt11__addressofIN5Catch13ScopedMessageEEPT_RS2_
FN:51,52,_ZSt11__addressofIN5Catch14SectionEndInfoEEPT_RS2_
FN:51,52,_ZSt11__addressofIN5Catch14TestCaseHandleEEPT_RS2_
FN:51,52,_ZSt11__addressofIN5Catch15JsonArrayWriterEEPT_RS2_
FN:51,52,_ZSt11__addressofIN5Catch16JsonObjectWriterEEPT_RS2_
FN:51,52,_ZSt11__addressofIN5Catch19ListenerDescriptionEEPT_RS2_
FN:51,52,_ZSt11__addressofIN5Catch19ReporterDescriptionEEPT_RS2_
FN:51,52,_ZSt11__addressofIN5Catch21ProcessedReporterSpecEEPT_RS2_
FN:51,52,_ZSt11__addressofIN5Catch3TagEEPT_RS2_
FN:51,52,_ZSt11__addressofIN5Catch5Clara3ArgEEPT_RS3_
FN:51,52,_ZSt11__addressofIN5Catch5Clara3OptEEPT_RS3_
FN:51,52,_ZSt11__addressofIN5Catch5Clara6Detail11HelpColumnsEEPT_RS4_
FN:51,52,_ZSt11__addressofIN5Catch5Clara6Detail5TokenEEPT_RS4_
FN:51,52,_ZSt11__addressofIN5Catch6Detail10unique_ptrIKNS0_20IExceptionTranslatorEEEEPT_RS6_
FN:51,52,_ZSt11__addressofIN5Catch6Detail10unique_ptrINS0_12ITestInvokerEEEEPT_RS5_
FN:51,52,_ZSt11__addressofIN5Catch6Detail10unique_ptrINS0_12TestCaseInfoEEEEPT_RS5_
FN:51,52,_ZSt11__addressofIN5Catch6Detail10unique_ptrINS0_14IEventListenerEEEEPT_RS5_
FN:51,52,_ZSt11__addressofIN5Catch6Detail10unique_ptrINS0_16TestCaseTracking8ITrackerEEEEPT_RS6_
FN:51,52,_ZSt11__addressofIN5Catch6Detail10unique_ptrINS0_20EventListenerFactoryEEEEPT_RS5_
FN:51,52,_ZSt11__addressofIN5Catch6Detail10unique_ptrINS0_22CumulativeReporterBase11SectionNodeEEEEPT_RS6_
FN:51,52,_ZSt11__addressofIN5Catch6Detail10unique_ptrINS0_22CumulativeReporterBase4NodeINS0_13TestCaseStatsENS3_11SectionNodeEEEEEEPT_RS9_
FN:51,52,_ZSt11__addressofIN5Catch6Detail10unique_ptrINS0_8TestSpec7PatternEEEEPT_RS6_
FN:51,52,_ZSt11__addressofIN5Catch6Detail10unique_ptrINS1_8EnumInfoEEEEPT_RS5_
FN:51,52,_ZSt11__addressofIN5Catch6Detail10unique_ptrINSt7__cxx1119basic_ostringstreamIcSt11char_traitsIcESaIcEEEEEEPT_RSA_
FN:51,52,_ZSt11__addressofIN5Catch6Detail26AssertionOrBenchmarkResultEEPT_RS3_
FN:51,52,_ZSt11__addressofIN5Catch7TagInfoEEPT_RS2_
FN:51,52,_ZSt11__addressofIN5Catch8TestSpec11FilterMatchEEPT_RS3_
FN:51,52,_ZSt11__addressofIN5Catch8TestSpec6FilterEEPT_RS3_
FN:51,52,_ZSt11__addressofIN5Catch8TextFlow6Column14const_iteratorEEPT_RS4_
FN:51,52,_ZSt11__addressofIN5Catch8TextFlow6ColumnEEPT_RS3_
FN:51,52,_ZSt11__addressofIN5Catch9StringRefEEPT_RS2_
FN:51,52,_ZSt11__addressofINSt15__exception_ptr13exception_ptrEEPT_RS2_
FN:51,52,_ZSt11__addressofINSt6chrono10time_pointINS0_3_V212steady_clockENS0_8durationIlSt5ratioILl1ELl1000000000EEEEEEEPT_RS9_
FN:51,52,_ZSt11__addressofINSt7__cxx1112basic_stringIcSt11char_traitsIcESaIcEEEEPT_RS6_
FN:51,52,_ZSt11__addressofINSt7__cxx1112regex_traitsIcE10_RegexMaskEEPT_RS4_
FN:51,52,_ZSt11__addressofINSt7__cxx119sub_matchIN9__gnu_cxx17__normal_iteratorIPKcNS0_12basic_stringIcSt11char_traitsIcESaIcEEEEEEEEPT_RSD_
FN:51,52,_ZSt11__addressofINSt8__detail10_Hash_nodeISt4pairIKNSt7__cxx1112basic_stringIcSt11char_traitsIcESaIcEEES8_ELb1EEEEPT_RSC_
FN:51,52,_ZSt11__addressofINSt8__detail10_Hash_nodeISt4pairIKmdELb0EEEEPT_RS6_
FN:51,52,_ZSt11__addressofINSt8__detail6_StateIcEEEPT_RS3_
FN:51,52,_ZSt11__addressofIPNSt8__detail15_Hash_node_baseEEPT_RS3_
FN:51,52,_ZSt11__addressofISaISt23_Sp_counted_ptr_inplaceIN5Catch5Clara6Detail11BoundLambdaIZNS1_21makeCommandLineParserERNS1_10ConfigDataEEUlRKNSt7__cxx1112basic_stringIcSt11char_traitsIcESaIcEEEE0_EESaIvELN9__gnu_cxx12_Lock_policyE2EEEEPT_RSM_
FN:51,52,_ZSt11__addressofISaISt23_Sp_counted_ptr_inplaceIN5Catch5Clara6Detail11BoundLambdaIZNS1_21makeCommandLineParserERNS1_10ConfigDataEEUlRKNSt7__cxx1112basic_stringIcSt11char_traitsIcESaIcEEEE1_EESaIvELN9__gnu_cxx12_Lock_policyE2EEEEPT_RSM_
FN:51,52,_ZSt11__addressofISaISt23_Sp_counted_ptr_inplaceIN5Catch5Clara6Detail11BoundLambdaIZNS1_21makeCommandLineParserERNS1_10ConfigDataEEUlRKNSt7__cxx1112basic_stringIcSt11char_traitsIcESaIcEEEE2_EESaIvELN9__gnu_cxx12_Lock_policyE2EEEEPT_RSM_
FN:51,52,_ZSt11__addressofISaISt23_Sp_counted_ptr_inplaceIN5Catch5Clara6Detail11BoundLambdaIZNS1_21makeCommandLineParserERNS1_10ConfigDataEEUlRKNSt7__cxx1112basic_stringIcSt11char_traitsIcESaIcEEEE3_EESaIvELN9__gnu_cxx12_Lock_policyE2EEEEPT_RSM_
FN:51,52,_ZSt11__addressofISaISt23_Sp_counted_ptr_inplaceIN5Catch5Clara6Detail11BoundLambdaIZNS1_21makeCommandLineParserERNS1_10ConfigDataEEUlRKNSt7__cxx1112basic_stringIcSt11char_traitsIcESaIcEEEE4_EESaIvELN9__gnu_cxx12_Lock_policyE2EEEEPT_RSM_
FN:51,52,_ZSt11__addressofISaISt23_Sp_counted_ptr_inplaceIN5Catch5Clara6Detail11BoundLambdaIZNS1_21makeCommandLineParserERNS1_10ConfigDataEEUlRKNSt7__cxx1112basic_stringIcSt11char_traitsIcESaIcEEEE5_EESaIvELN9__gnu_cxx12_Lock_policyE2EEEEPT_RSM_
FN:51,52,_ZSt11__addressofISaISt23_Sp_counted_ptr_inplaceIN5Catch5Clara6Detail11BoundLambdaIZNS1_21makeCommandLineParserERNS1_10ConfigDataEEUlRKNSt7__cxx1112basic_stringIcSt11char_traitsIcESaIcEEEE7_EESaIvELN9__gnu_cxx12_Lock_policyE2EEEEPT_RSM_
FN:51,52,_ZSt11__addressofISaISt23_Sp_counted_ptr_inplaceIN5Catch5Clara6Detail11BoundLambdaIZNS1_21makeCommandLineParserERNS1_10ConfigDataEEUlRKNSt7__cxx1112basic_stringIcSt11char_traitsIcESaIcEEEE8_EESaIvELN9__gnu_cxx12_Lock_policyE2EEEEPT_RSM_
FN:51,52,_ZSt11__addressofISaISt23_Sp_counted_ptr_inplaceIN5Catch5Clara6Detail11BoundLambdaIZNS1_21makeCommandLineParserERNS1_10ConfigDataEEUlbE0_EESaIvELN9__gnu_cxx12_Lock_policyE2EEEEPT_RSE_
FN:51,52,_ZSt11__addressofISaISt23_Sp_counted_ptr_inplaceIN5Catch5Clara6Detail11BoundLambdaIZNS1_21makeCommandLineParserERNS1_10ConfigDataEEUliE_EESaIvELN9__gnu_cxx12_Lock_policyE2EEEEPT_RSE_
FN:51,52,_ZSt11__addressofISaISt23_Sp_counted_ptr_inplaceIN5Catch5Clara6Detail12BoundFlagRefESaIvELN9__gnu_cxx12_Lock_policyE2EEEEPT_RSA_
FN:51,52,_ZSt11__addressofISaISt23_Sp_counted_ptr_inplaceIN5Catch5Clara6Detail13BoundValueRefINSt7__cxx1112basic_stringIcSt11char_traitsIcESaIcEEEEESaIvELN9__gnu_cxx12_Lock_policyE2EEEEPT_RSH_
FN:51,52,_ZSt11__addressofISaISt23_Sp_counted_ptr_inplaceIN5Catch5Clara6Detail13BoundValueRefISt6vectorINSt7__cxx1112basic_stringIcSt11char_traitsIcESaIcEEESaISB_EEEESaIvELN9__gnu_cxx12_Lock_policyE2EEEEPT_RSK_
FN:51,52,_ZSt11__addressofISaISt23_Sp_counted_ptr_inplaceIN5Catch5Clara6Detail13BoundValueRefIdEESaIvELN9__gnu_cxx12_Lock_policyE2EEEEPT_RSB_
FN:51,52,_ZSt11__addressofISaISt23_Sp_counted_ptr_inplaceIN5Catch5Clara6Detail13BoundValueRefIjEESaIvELN9__gnu_cxx12_Lock_policyE2EEEEPT_RSB_
FN:51,52,_ZSt11__addressofISaISt23_Sp_counted_ptr_inplaceIN5Catch5Clara6Detail13BoundValueRefIlEESaIvELN9__gnu_cxx12_Lock_policyE2EEEEPT_RSB_
FN:51,52,_ZSt11__addressofISaISt23_Sp_counted_ptr_inplaceIN5Catch5Clara6Detail15BoundFlagLambdaIZNS1_21makeCommandLineParserERNS1_10ConfigDataEEUlbE_EESaIvELN9__gnu_cxx12_Lock_policyE2EEEEPT_RSE_
FN:51,52,_ZSt11__addressofISaISt23_Sp_counted_ptr_inplaceIN5Catch5Clara6Detail15BoundFlagLambdaIZNS2_4HelpC4ERbEUlbE_EESaIvELN9__gnu_cxx12_Lock_policyE2EEEEPT_RSE_
FN:51,52,_ZSt11__addressofISaISt23_Sp_counted_ptr_inplaceIN5Catch5Clara6Detail15BoundManyLambdaIZNS1_21makeCommandLineParserERNS1_10ConfigDataEEUlRKNSt7__cxx1112basic_stringIcSt11char_traitsIcESaIcEEEE6_EESaIvELN9__gnu_cxx12_Lock_policyE2EEEEPT_RSM_
FN:51,52,_ZSt11__addressofISaISt23_Sp_counted_ptr_inplaceIN5Catch5Clara6Detail15BoundManyLambdaIZNS1_21makeCommandLineParserERNS1_10ConfigDataEEUlRKNSt7__cxx1112basic_stringIcSt11char_traitsIcESaIcEEEE_EESaIvELN9__gnu_cxx12_Lock_policyE2EEEEPT_RSM_
FN:51,52,_ZSt11__addressofISaISt23_Sp_counted_ptr_inplaceINSt7__cxx1112basic_stringIcSt11char_traitsIcESaIcEEESaIvELN9__gnu_cxx12_Lock_policyE2EEEEPT_RSC_
FN:51,52,_ZSt11__addressofISaISt23_Sp_counted_ptr_inplaceINSt8__detail4_NFAINSt7__cxx1112regex_traitsIcEEEESaIvELN9__gnu_cxx12_Lock_policyE2EEEEPT_RSC_
FN:51,52,_ZSt11__addressofISt4pairIN9__gnu_cxx17__normal_iteratorIPKcNSt7__cxx1112basic_stringIcSt11char_traitsIcESaIcEEEEEiEEPT_RSD_
FN:51,52,_ZSt11__addressofISt4pairINSt7__cxx1112basic_stringIcSt11char_traitsIcESaIcEEES6_EEPT_RS8_
FN:51,52,_ZSt11__addressofISt4pairISt6vectorIdSaIdEEdEEPT_RS5_
FN:51,52,_ZSt11__addressofISt4pairIccEEPT_RS2_
FN:51,52,_ZSt11__addressofISt4pairIddEEPT_RS2_
FN:51,52,_ZSt11__addressofISt4pairIiN5Catch9StringRefEEEPT_RS4_
FN:51,52,_ZSt11__addressofISt4pairIlSt6vectorINSt7__cxx119sub_matchIN9__gnu_cxx17__normal_iteratorIPKcNS2_12basic_stringIcSt11char_traitsIcESaIcEEEEEEESaISE_EEEEPT_RSI_
FN:51,52,_ZSt11__addressofISt4pairImN5Catch14TestCaseHandleEEEPT_RS4_
FN:51,52,_ZSt11__addressofISt6vectorIdSaIdEEEPT_RS3_
FN:51,52,_ZSt11__addressofIZNK5Catch5Clara6Parser5parseERKNSt7__cxx1112basic_stringIcSt11char_traitsIcESaIcEEENS1_6Detail11TokenStreamEE10ParserInfoEPT_RSE_
FN:51,52,_ZSt11__addressofIdEPT_RS0_
FN:51,52,_ZSt11__addressofImEPT_RS0_
FN:70,71,_ZSt7forwardIN5Catch11MessageInfoEEOT_RNSt16remove_referenceIS2_E4typeE
FN:70,71,_ZSt7forwardIN5Catch11SectionInfoEEOT_RNSt16remove_referenceIS2_E4typeE
FN:70,71,_ZSt7forwardIN5Catch12JsonReporter6WriterEEOT_RNSt16remove_referenceIS3_E4typeE
FN:70,71,_ZSt7forwardIN5Catch12ReporterSpecEEOT_RNSt16remove_referenceIS2_E4typeE
FN:70,71,_ZSt7forwardIN5Catch12_GLOBAL__N_113SummaryColumnEEOT_RNSt16remove_referenceIS3_E4typeE
FN:70,71,_ZSt7forwardIN5Catch13ScopedMessageEEOT_RNSt16remove_referenceIS2_E4typeE
FN:70,71,_ZSt7forwardIN5Catch14MessageBuilderEEOT_RNSt16remove_referenceIS2_E4typeE
FN:70,71,_ZSt7forwardIN5Catch14SectionEndInfoEEOT_RNSt16remove_referenceIS2_E4typeE
FN:70,71,_ZSt7forwardIN5Catch14TestCaseHandleEEOT_RNSt16remove_referenceIS2_E4typeE
FN:70,71,_ZSt7forwardIN5Catch15JsonArrayWriterEEOT_RNSt16remove_referenceIS2_E4typeE
FN:70,71,_ZSt7forwardIN5Catch16JsonObjectWriterEEOT_RNSt16remove_referenceIS2_E4typeE
FN:70,71,_ZSt7forwardIN5Catch19ListenerDescriptionEEOT_RNSt16remove_referenceIS2_E4typeE
FN:70,71,_ZSt7forwardIN5Catch19ReporterDescriptionEEOT_RNSt16remove_referenceIS2_E4typeE
FN:70,71,_ZSt7forwardIN5Catch21ProcessedReporterSpecEEOT_RNSt16remove_referenceIS2_E4typeE
FN:70,71,_ZSt7forwardIN5Catch3TagEEOT_RNSt16remove_referenceIS2_E4typeE
FN:70,71,_ZSt7forwardIN5Catch5Clara3ArgEEOT_RNSt16remove_referenceIS3_E4typeE
FN:70,71,_ZSt7forwardIN5Catch5Clara3OptEEOT_RNSt16remove_referenceIS3_E4typeE
FN:70,71,_ZSt7forwardIN5Catch5Clara6Detail11HelpColumnsEEOT_RNSt16remove_referenceIS4_E4typeE
FN:70,71,_ZSt7forwardIN5Catch5Clara6Detail5TokenEEOT_RNSt16remove_referenceIS4_E4typeE
FN:70,71,_ZSt7forwardIN5Catch6Detail10unique_ptrIKNS0_20IExceptionTranslatorEEEEOT_RNSt16remove_referenceIS6_E4typeE
FN:70,71,_ZSt7forwardIN5Catch6Detail10unique_ptrINS0_12ITestInvokerEEEEOT_RNSt16remove_referenceIS5_E4typeE
FN:70,71,_ZSt7forwardIN5Catch6Detail10unique_ptrINS0_12TestCaseInfoEEEEOT_RNSt16remove_referenceIS5_E4typeE
FN:70,71,_ZSt7forwardIN5Catch6Detail10unique_ptrINS0_14IEventListenerEEEEOT_RNSt16remove_referenceIS5_E4typeE
FN:70,71,_ZSt7forwardIN5Catch6Detail10unique_ptrINS0_16IReporterFactoryEEEEOT_RNSt16remove_referenceIS5_E4typeE
FN:70,71,_ZSt7forwardIN5Catch6Detail10unique_ptrINS0_16TestCaseTracking8ITrackerEEEEOT_RNSt16remove_referenceIS6_E4typeE
FN:70,71,_ZSt7forwardIN5Catch6Detail10unique_ptrINS0_20EventListenerFactoryEEEEOT_RNSt16remove_referenceIS5_E4typeE
FN:70,71,_ZSt7forwardIN5Catch6Detail10unique_ptrINS0_22CumulativeReporterBase11SectionNodeEEEEOT_RNSt16remove_referenceIS6_E4typeE
FN:70,71,_ZSt7forwardIN5Catch6Detail10unique_ptrINS0_22CumulativeReporterBase4NodeINS0_13TestCaseStatsENS3_11SectionNodeEEEEEEOT_RNSt16remove_referenceIS9_E4typeE
FN:70,71,_ZSt7forwardIN5Catch6Detail10unique_ptrINS0_8TestSpec10TagPatternEEEEOT_RNSt16remove_referenceIS6_E4typeE
FN:70,71,_ZSt7forwardIN5Catch6Detail10unique_ptrINS0_8TestSpec11NamePatternEEEEOT_RNSt16remove_referenceIS6_E4typeE
FN:70,71,_ZSt7forwardIN5Catch6Detail10unique_ptrINS0_8TestSpec7PatternEEEEOT_RNSt16remove_referenceIS6_E4typeE
FN:70,71,_ZSt7forwardIN5Catch6Detail10unique_ptrINS1_8EnumInfoEEEEOT_RNSt16remove_referenceIS5_E4typeE
FN:70,71,_ZSt7forwardIN5Catch6Detail10unique_ptrINSt7__cxx1119basic_ostringstreamIcSt11char_traitsIcESaIcEEEEEEOT_RNSt16remove_referenceISA_E4typeE
FN:70,71,_ZSt7forwardIN5Catch7TagInfoEEOT_RNSt16remove_referenceIS2_E4typeE
FN:70,71,_ZSt7forwardIN5Catch8TagAliasEEOT_RNSt16remove_referenceIS2_E4typeE
FN:70,71,_ZSt7forwardIN5Catch8TestSpec11FilterMatchEEOT_RNSt16remove_referenceIS3_E4typeE
FN:70,71,_ZSt7forwardIN5Catch8TestSpec6FilterEEOT_RNSt16remove_referenceIS3_E4typeE
FN:70,71,_ZSt7forwardIN5Catch8TextFlow6Column14const_iteratorEEOT_RNSt16remove_referenceIS4_E4typeE
FN:70,71,_ZSt7forwardIN5Catch8TextFlow6ColumnEEOT_RNSt16remove_referenceIS3_E4typeE
FN:70,71,_ZSt7forwardIN5Catch9StringRefEEOT_RNSt16remove_referenceIS2_E4typeE
FN:70,71,_ZSt7forwardINSt15__exception_ptr13exception_ptrEEOT_RNSt16remove_referenceIS2_E4typeE
FN:70,71,_ZSt7forwardINSt6chrono10time_pointINS0_3_V212steady_clockENS0_8durationIlSt5ratioILl1ELl1000000000EEEEEEEOT_RNSt16remove_referenceIS9_E4typeE
FN:70,71,_ZSt7forwardINSt7__cxx1112basic_stringIcSt11char_traitsIcESaIcEEEEOT_RNSt16remove_referenceIS6_E4typeE
FN:70,71,_ZSt7forwardINSt7__cxx1112regex_traitsIcE10_RegexMaskEEOT_RNSt16remove_referenceIS4_E4typeE
FN:70,71,_ZSt7forwardINSt8__detail11_AnyMatcherINSt7__cxx1112regex_traitsIcEELb0ELb0ELb0EEEEOT_RNSt16remove_referenceIS6_E4typeE
FN:70,71,_ZSt7forwardINSt8__detail11_AnyMatcherINSt7__cxx1112regex_traitsIcEELb0ELb0ELb1EEEEOT_RNSt16remove_referenceIS6_E4typeE
FN:70,71,_ZSt7forwardINSt8__detail11_AnyMatcherINSt7__cxx1112regex_traitsIcEELb0ELb1ELb0EEEEOT_RNSt16remove_referenceIS6_E4typeE
FN:70,71,_ZSt7forwardINSt8__detail11_AnyMatcherINSt7__cxx1112regex_traitsIcEELb0ELb1ELb1EEEEOT_RNSt16remove_referenceIS6_E4typeE
FN:70,71,_ZSt7forwardINSt8__detail11_AnyMatcherINSt7__cxx1112regex_traitsIcEELb1ELb0ELb0EEEEOT_RNSt16remove_referenceIS6_E4typeE
FN:70,71,_ZSt7forwardINSt8__detail11_AnyMatcherINSt7__cxx1112regex_traitsIcEELb1ELb0ELb1EEEEOT_RNSt16remove_referenceIS6_E4typeE
FN:70,71,_ZSt7forwardINSt8__detail11_AnyMatcherINSt7__cxx1112regex_traitsIcEELb1ELb1ELb0EEEEOT_RNSt16remove_referenceIS6_E4typeE
FN:70,71,_ZSt7forwardINSt8__detail11_AnyMatcherINSt7__cxx1112regex_traitsIcEELb1ELb1ELb1EEEEOT_RNSt16remove_referenceIS6_E4typeE
FN:70,71,_ZSt7forwardINSt8__detail12_CharMatcherINSt7__cxx1112regex_traitsIcEELb0ELb0EEEEOT_RNSt16remove_referenceIS6_E4typeE
FN:70,71,_ZSt7forwardINSt8__detail12_CharMatcherINSt7__cxx1112regex_traitsIcEELb0ELb1EEEEOT_RNSt16remove_referenceIS6_E4typeE
FN:70,71,_ZSt7forwardINSt8__detail12_CharMatcherINSt7__cxx1112regex_traitsIcEELb1ELb0EEEEOT_RNSt16remove_referenceIS6_E4typeE
FN:70,71,_ZSt7forwardINSt8__detail12_CharMatcherINSt7__cxx1112regex_traitsIcEELb1ELb1EEEEOT_RNSt16remove_referenceIS6_E4typeE
FN:70,71,_ZSt7forwardINSt8__detail15_BracketMatcherINSt7__cxx1112regex_traitsIcEELb0ELb0EEEEOT_RNSt16remove_referenceIS6_E4typeE
FN:70,71,_ZSt7forwardINSt8__detail15_BracketMatcherINSt7__cxx1112regex_traitsIcEELb0ELb1EEEEOT_RNSt16remove_referenceIS6_E4typeE
FN:70,71,_ZSt7forwardINSt8__detail15_BracketMatcherINSt7__cxx1112regex_traitsIcEELb1ELb0EEEEOT_RNSt16remove_referenceIS6_E4typeE
FN:70,71,_ZSt7forwardINSt8__detail15_BracketMatcherINSt7__cxx1112regex_traitsIcEELb1ELb1EEEEOT_RNSt16remove_referenceIS6_E4typeE
FN:70,71,_ZSt7forwardINSt8__detail6_StateIcEEEOT_RNSt16remove_referenceIS3_E4typeE
FN:70,71,_ZSt7forwardINSt8__detail9_StateSeqINSt7__cxx1112regex_traitsIcEEEEEOT_RNSt16remove_referenceIS6_E4typeE
FN:70,71,_ZSt7forwardION5Catch9StringRefEEOT_RNSt16remove_referenceIS3_E4typeE
FN:70,71,_ZSt7forwardIONSt7__cxx1112basic_stringIcSt11char_traitsIcESaIcEEEEOT_RNSt16remove_referenceIS7_E4typeE
FN:70,71,_ZSt7forwardIPKN5Catch14TestCaseHandleEEOT_RNSt16remove_referenceIS4_E4typeE
FN:70,71,_ZSt7forwardIPKN5Catch22CumulativeReporterBase4NodeINS0_13TestCaseStatsENS1_11SectionNodeEEEEOT_RNSt16remove_referenceIS8_E4typeE
FN:70,71,_ZSt7forwardIPKSt6vectorIdSaIdEEEOT_RNSt16remove_referenceIS5_E4typeE
FN:70,71,_ZSt7forwardIPN5Catch12ITestInvokerEEOT_RNSt16remove_referenceIS3_E4typeE
FN:70,71,_ZSt7forwardIPN5Catch12TestCaseInfoEEOT_RNSt16remove_referenceIS3_E4typeE
FN:70,71,_ZSt7forwardIPN5Catch16TestCaseTracking8ITrackerEEOT_RNSt16remove_referenceIS4_E4typeE
FN:70,71,_ZSt7forwardIRA13_KcEOT_RNSt16remove_referenceIS3_E4typeE
FN:70,71,_ZSt7forwardIRA2_KcEOT_RNSt16remove_referenceIS3_E4typeE
FN:70,71,_ZSt7forwardIRFdRKSt6vectorIdSaIdEEEEOT_RNSt16remove_referenceIS7_E4typeE
FN:70,71,_ZSt7forwardIRKN5Catch10ColumnInfoEEOT_RNSt16remove_referenceIS4_E4typeE
FN:70,71,_ZSt7forwardIRKN5Catch11MessageInfoEEOT_RNSt16remove_referenceIS4_E4typeE
FN:70,71,_ZSt7forwardIRKN5Catch11SectionInfoEEOT_RNSt16remove_referenceIS4_E4typeE
FN:70,71,_ZSt7forwardIRKN5Catch12ReporterSpecEEOT_RNSt16remove_referenceIS4_E4typeE
FN:70,71,_ZSt7forwardIRKN5Catch14AssertionStatsEEOT_RNSt16remove_referenceIS4_E4typeE
FN:70,71,_ZSt7forwardIRKN5Catch14BenchmarkStatsINSt6chrono8durationIdSt5ratioILl1ELl1000000000EEEEEEEOT_RNSt16remove_referenceISA_E4typeE
FN:70,71,_ZSt7forwardIRKN5Catch14SourceLineInfoEEOT_RNSt16remove_referenceIS4_E4typeE
FN:70,71,_ZSt7forwardIRKN5Catch14TestCaseHandleEEOT_RNSt16remove_referenceIS4_E4typeE
FN:70,71,_ZSt7forwardIRKN5Catch5Clara3ArgEEOT_RNSt16remove_referenceIS5_E4typeE
FN:70,71,_ZSt7forwardIRKN5Catch5Clara3OptEEOT_RNSt16remove_referenceIS5_E4typeE
FN:70,71,_ZSt7forwardIRKN5Catch6Detail26AssertionOrBenchmarkResultEEOT_RNSt16remove_referenceIS5_E4typeE
FN:70,71,_ZSt7forwardIRKN5Catch8TextFlow6Column14const_iteratorEEOT_RNSt16remove_referenceIS6_E4typeE
FN:70,71,_ZSt7forwardIRKN5Catch8TextFlow6ColumnEEOT_RNSt16remove_referenceIS5_E4typeE
FN:70,71,_ZSt7forwardIRKN5Catch9StringRefEEOT_RNSt16remove_referenceIS4_E4typeE
FN:70,71,_ZSt7forwardIRKNSt15__exception_ptr13exception_ptrEEOT_RNSt16remove_referenceIS4_E4typeE
FN:70,71,_ZSt7forwardIRKNSt7__cxx1112basic_stringIcSt11char_traitsIcESaIcEEEEOT_RNSt16remove_referenceIS8_E4typeE
FN:70,71,_ZSt7forwardIRKNSt7__cxx1112regex_traitsIcE10_RegexMaskEEOT_RNSt16remove_referenceIS6_E4typeE
FN:70,71,_ZSt7forwardIRKNSt7__cxx119sub_matchIN9__gnu_cxx17__normal_iteratorIPKcNS0_12basic_stringIcSt11char_traitsIcESaIcEEEEEEEEOT_RNSt16remove_referenceISF_E4typeE
FN:70,71,_ZSt7forwardIRKNSt8__detail11_AnyMatcherINSt7__cxx1112regex_traitsIcEELb0ELb0ELb0EEEEOT_RNSt16remove_referenceIS8_E4typeE
FN:70,71,_ZSt7forwardIRKNSt8__detail11_AnyMatcherINSt7__cxx1112regex_traitsIcEELb0ELb0ELb1EEEEOT_RNSt16remove_referenceIS8_E4typeE
FN:70,71,_ZSt7forwardIRKNSt8__detail11_AnyMatcherINSt7__cxx1112regex_traitsIcEELb0ELb1ELb0EEEEOT_RNSt16remove_referenceIS8_E4typeE
FN:70,71,_ZSt7forwardIRKNSt8__detail11_AnyMatcherINSt7__cxx1112regex_traitsIcEELb0ELb1ELb1EEEEOT_RNSt16remove_referenceIS8_E4typeE
FN:70,71,_ZSt7forwardIRKNSt8__detail11_AnyMatcherINSt7__cxx1112regex_traitsIcEELb1ELb0ELb0EEEEOT_RNSt16remove_referenceIS8_E4typeE
FN:70,71,_ZSt7forwardIRKNSt8__detail11_AnyMatcherINSt7__cxx1112regex_traitsIcEELb1ELb0ELb1EEEEOT_RNSt16remove_referenceIS8_E4typeE
FN:70,71,_ZSt7forwardIRKNSt8__detail11_AnyMatcherINSt7__cxx1112regex_traitsIcEELb1ELb1ELb0EEEEOT_RNSt16remove_referenceIS8_E4typeE
FN:70,71,_ZSt7forwardIRKNSt8__detail11_AnyMatcherINSt7__cxx1112regex_traitsIcEELb1ELb1ELb1EEEEOT_RNSt16remove_referenceIS8_E4typeE
FN:70,71,_ZSt7forwardIRKNSt8__detail12_CharMatcherINSt7__cxx1112regex_traitsIcEELb0ELb0EEEEOT_RNSt16remove_referenceIS8_E4typeE
FN:70,71,_ZSt7forwardIRKNSt8__detail12_CharMatcherINSt7__cxx1112regex_traitsIcEELb0ELb1EEEEOT_RNSt16remove_referenceIS8_E4typeE
FN:70,71,_ZSt7forwardIRKNSt8__detail12_CharMatcherINSt7__cxx1112regex_traitsIcEELb1ELb0EEEEOT_RNSt16remove_referenceIS8_E4typeE
FN:70,71,_ZSt7forwardIRKNSt8__detail12_CharMatcherINSt7__cxx1112regex_traitsIcEELb1ELb1EEEEOT_RNSt16remove_referenceIS8_E4typeE
FN:70,71,_ZSt7forwardIRKNSt8__detail15_BracketMatcherINSt7__cxx1112regex_traitsIcEELb0ELb0EEEEOT_RNSt16remove_referenceIS8_E4typeE
FN:70,71,_ZSt7forwardIRKNSt8__detail15_BracketMatcherINSt7__cxx1112regex_traitsIcEELb0ELb1EEEEOT_RNSt16remove_referenceIS8_E4typeE
FN:70,71,_ZSt7forwardIRKNSt8__detail15_BracketMatcherINSt7__cxx1112regex_traitsIcEELb1ELb0EEEEOT_RNSt16remove_referenceIS8_E4typeE
FN:70,71,_ZSt7forwardIRKNSt8__detail15_BracketMatcherINSt7__cxx1112regex_traitsIcEELb1ELb1EEEEOT_RNSt16remove_referenceIS8_E4typeE
FN:70,71,_ZSt7forwardIRKNSt8__detail9_StateSeqINSt7__cxx1112regex_traitsIcEEEEEOT_RNSt16remove_referenceIS8_E4typeE
FN:70,71,_ZSt7forwardIRKPKN5Catch12TestCaseInfoEEOT_RNSt16remove_referenceIS6_E4typeE
FN:70,71,_ZSt7forwardIRKPKN5Catch14TestCaseHandleEEOT_RNSt16remove_referenceIS6_E4typeE
FN:70,71,_ZSt7forwardIRKPKcEOT_RNSt16remove_referenceIS4_E4typeE
FN:70,71,_ZSt7forwardIRKPN5Catch10ISingletonEEOT_RNSt16remove_referenceIS5_E4typeE
FN:70,71,_ZSt7forwardIRKPN5Catch22CumulativeReporterBase11SectionNodeEEOT_RNSt16remove_referenceIS6_E4typeE
FN:70,71,_ZSt7forwardIRKSt21piecewise_construct_tEOT_RNSt16remove_referenceIS3_E4typeE
FN:70,71,_ZSt7forwardIRKSt4pairIKNSt7__cxx1112basic_stringIcSt11char_traitsIcESaIcEEES6_EEOT_RNSt16remove_referenceISB_E4typeE
FN:70,71,_ZSt7forwardIRKSt4pairIKmdEEOT_RNSt16remove_referenceIS5_E4typeE
FN:70,71,_ZSt7forwardIRKSt4pairINSt7__cxx1112basic_stringIcSt11char_traitsIcESaIcEEES6_EEOT_RNSt16remove_referenceISA_E4typeE
FN:70,71,_ZSt7forwardIRKSt4pairIccEEOT_RNSt16remove_referenceIS4_E4typeE
FN:70,71,_ZSt7forwardIRKSt4pairIddEEOT_RNSt16remove_referenceIS4_E4typeE
FN:70,71,_ZSt7forwardIRKSt6localeEOT_RNSt16remove_referenceIS3_E4typeE
FN:70,71,_ZSt7forwardIRKSt6vectorINSt7__cxx119sub_matchIN9__gnu_cxx17__normal_iteratorIPKcNS1_12basic_stringIcSt11char_traitsIcESaIcEEEEEEESaISD_EEEOT_RNSt16remove_referenceISI_E4typeE
FN:70,71,_ZSt7forwardIRKSt6vectorIdSaIdEEEOT_RNSt16remove_referenceIS5_E4typeE
FN:70,71,_ZSt7forwardIRKZN5Catch21makeCommandLineParserERNS0_10ConfigDataEEUlRKNSt7__cxx1112basic_stringIcSt11char_traitsIcESaIcEEEE0_EOT_RNSt16remove_referenceISE_E4typeE
FN:70,71,_ZSt7forwardIRKZN5Catch21makeCommandLineParserERNS0_10ConfigDataEEUlRKNSt7__cxx1112basic_stringIcSt11char_traitsIcESaIcEEEE1_EOT_RNSt16remove_referenceISE_E4typeE
FN:70,71,_ZSt7forwardIRKZN5Catch21makeCommandLineParserERNS0_10ConfigDataEEUlRKNSt7__cxx1112basic_stringIcSt11char_traitsIcESaIcEEEE2_EOT_RNSt16remove_referenceISE_E4typeE
FN:70,71,_ZSt7forwardIRKZN5Catch21makeCommandLineParserERNS0_10ConfigDataEEUlRKNSt7__cxx1112basic_stringIcSt11char_traitsIcESaIcEEEE3_EOT_RNSt16remove_referenceISE_E4typeE
FN:70,71,_ZSt7forwardIRKZN5Catch21makeCommandLineParserERNS0_10ConfigDataEEUlRKNSt7__cxx1112basic_stringIcSt11char_traitsIcESaIcEEEE4_EOT_RNSt16remove_referenceISE_E4typeE
FN:70,71,_ZSt7forwardIRKZN5Catch21makeCommandLineParserERNS0_10ConfigDataEEUlRKNSt7__cxx1112basic_stringIcSt11char_traitsIcESaIcEEEE5_EOT_RNSt16remove_referenceISE_E4typeE
FN:70,71,_ZSt7forwardIRKZN5Catch21makeCommandLineParserERNS0_10ConfigDataEEUlRKNSt7__cxx1112basic_stringIcSt11char_traitsIcESaIcEEEE6_EOT_RNSt16remove_referenceISE_E4typeE
FN:70,71,_ZSt7forwardIRKZN5Catch21makeCommandLineParserERNS0_10ConfigDataEEUlRKNSt7__cxx1112basic_stringIcSt11char_traitsIcESaIcEEEE7_EOT_RNSt16remove_referenceISE_E4typeE
FN:70,71,_ZSt7forwardIRKZN5Catch21makeCommandLineParserERNS0_10ConfigDataEEUlRKNSt7__cxx1112basic_stringIcSt11char_traitsIcESaIcEEEE8_EOT_RNSt16remove_referenceISE_E4typeE
FN:70,71,_ZSt7forwardIRKZN5Catch21makeCommandLineParserERNS0_10ConfigDataEEUlRKNSt7__cxx1112basic_stringIcSt11char_traitsIcESaIcEEEE_EOT_RNSt16remove_referenceISE_E4typeE
FN:70,71,_ZSt7forwardIRKZN5Catch21makeCommandLineParserERNS0_10ConfigDataEEUlbE0_EOT_RNSt16remove_referenceIS6_E4typeE
FN:70,71,_ZSt7forwardIRKZN5Catch21makeCommandLineParserERNS0_10ConfigDataEEUlbE_EOT_RNSt16remove_referenceIS6_E4typeE
FN:70,71,_ZSt7forwardIRKZN5Catch21makeCommandLineParserERNS0_10ConfigDataEEUliE_EOT_RNSt16remove_referenceIS6_E4typeE
FN:70,71,_ZSt7forwardIRKZN5Catch5Clara4HelpC4ERbEUlbE_EOT_RNSt16remove_referenceIS7_E4typeE
FN:70,71,_ZSt7forwardIRKcEOT_RNSt16remove_referenceIS2_E4typeE
FN:70,71,_ZSt7forwardIRKdEOT_RNSt16remove_referenceIS2_E4typeE
FN:70,71,_ZSt7forwardIRKlEOT_RNSt16remove_referenceIS2_E4typeE
FN:70,71,_ZSt7forwardIRKmEOT_RNSt16remove_referenceIS2_E4typeE
FN:70,71,_ZSt7forwardIRN5Catch12ReporterSpecEEOT_RNSt16remove_referenceIS3_E4typeE
FN:70,71,_ZSt7forwardIRN5Catch5Clara3ArgEEOT_RNSt16remove_referenceIS4_E4typeE
FN:70,71,_ZSt7forwardIRN5Catch5Clara3OptEEOT_RNSt16remove_referenceIS4_E4typeE
FN:70,71,_ZSt7forwardIRN5Catch6Detail10unique_ptrINS0_16IReporterFactoryEEEEOT_RNSt16remove_referenceIS6_E4typeE
FN:70,71,_ZSt7forwardIRN5Catch9ResultWas6OfTypeEEOT_RNSt16remove_referenceIS4_E4typeE
FN:70,71,_ZSt7forwardIRN5Catch9StringRefEEOT_RNSt16remove_referenceIS3_E4typeE
FN:70,71,_ZSt7forwardIRNSt15regex_constants18syntax_option_typeEEOT_RNSt16remove_referenceIS3_E4typeE
FN:70,71,_ZSt7forwardIRNSt7__cxx1112basic_stringIcSt11char_traitsIcESaIcEEEEOT_RNSt16remove_referenceIS7_E4typeE
FN:70,71,_ZSt7forwardIRNSt7__cxx119sub_matchIN9__gnu_cxx17__normal_iteratorIPKcNS0_12basic_stringIcSt11char_traitsIcESaIcEEEEEEEEOT_RNSt16remove_referenceISE_E4typeE
FN:70,71,_ZSt7forwardIRNSt8__detail11_AnyMatcherINSt7__cxx1112regex_traitsIcEELb0ELb0ELb0EEEEOT_RNSt16remove_referenceIS7_E4typeE
FN:70,71,_ZSt7forwardIRNSt8__detail11_AnyMatcherINSt7__cxx1112regex_traitsIcEELb0ELb0ELb1EEEEOT_RNSt16remove_referenceIS7_E4typeE
FN:70,71,_ZSt7forwardIRNSt8__detail11_AnyMatcherINSt7__cxx1112regex_traitsIcEELb0ELb1ELb0EEEEOT_RNSt16remove_referenceIS7_E4typeE
FN:70,71,_ZSt7forwardIRNSt8__detail11_AnyMatcherINSt7__cxx1112regex_traitsIcEELb0ELb1ELb1EEEEOT_RNSt16remove_referenceIS7_E4typeE
FN:70,71,_ZSt7forwardIRNSt8__detail11_AnyMatcherINSt7__cxx1112regex_traitsIcEELb1ELb0ELb0EEEEOT_RNSt16remove_referenceIS7_E4typeE
FN:70,71,_ZSt7forwardIRNSt8__detail11_AnyMatcherINSt7__cxx1112regex_traitsIcEELb1ELb0ELb1EEEEOT_RNSt16remove_referenceIS7_E4typeE
FN:70,71,_ZSt7forwardIRNSt8__detail11_AnyMatcherINSt7__cxx1112regex_traitsIcEELb1ELb1ELb0EEEEOT_RNSt16remove_referenceIS7_E4typeE
FN:70,71,_ZSt7forwardIRNSt8__detail11_AnyMatcherINSt7__cxx1112regex_traitsIcEELb1ELb1ELb1EEEEOT_RNSt16remove_referenceIS7_E4typeE
FN:70,71,_ZSt7forwardIRNSt8__detail12_CharMatcherINSt7__cxx1112regex_traitsIcEELb0ELb0EEEEOT_RNSt16remove_referenceIS7_E4typeE
FN:70,71,_ZSt7forwardIRNSt8__detail12_CharMatcherINSt7__cxx1112regex_traitsIcEELb0ELb1EEEEOT_RNSt16remove_referenceIS7_E4typeE
FN:70,71,_ZSt7forwardIRNSt8__detail12_CharMatcherINSt7__cxx1112regex_traitsIcEELb1ELb0EEEEOT_RNSt16remove_referenceIS7_E4typeE
FN:70,71,_ZSt7forwardIRNSt8__detail12_CharMatcherINSt7__cxx1112regex_traitsIcEELb1ELb1EEEEOT_RNSt16remove_referenceIS7_E4typeE
FN:70,71,_ZSt7forwardIRNSt8__detail15_BracketMatcherINSt7__cxx1112regex_traitsIcEELb0ELb0EEEEOT_RNSt16remove_referenceIS7_E4typeE
FN:70,71,_ZSt7forwardIRNSt8__detail15_BracketMatcherINSt7__cxx1112regex_traitsIcEELb0ELb1EEEEOT_RNSt16remove_referenceIS7_E4typeE
FN:70,71,_ZSt7forwardIRNSt8__detail15_BracketMatcherINSt7__cxx1112regex_traitsIcEELb1ELb0EEEEOT_RNSt16remove_referenceIS7_E4typeE
FN:70,71,_ZSt7forwardIRNSt8__detail15_BracketMatcherINSt7__cxx1112regex_traitsIcEELb1ELb1EEEEOT_RNSt16remove_referenceIS7_E4typeE
FN:70,71,_ZSt7forwardIRPSt13_Rb_tree_nodeIN5Catch9StringRefEEEOT_RNSt16remove_referenceIS6_E4typeE
FN:70,71,_ZSt7forwardIRPSt13_Rb_tree_nodeIPKN5Catch12TestCaseInfoEEEOT_RNSt16remove_referenceIS8_E4typeE
FN:70,71,_ZSt7forwardIRPSt13_Rb_tree_nodeIPKN5Catch14TestCaseHandleEEEOT_RNSt16remove_referenceIS8_E4typeE
FN:70,71,_ZSt7forwardIRPSt13_Rb_tree_nodeISt4pairIKN5Catch9StringRefENS2_7TagInfoEEEEOT_RNSt16remove_referenceISA_E4typeE
FN:70,71,_ZSt7forwardIRPSt13_Rb_tree_nodeISt4pairIKN5Catch9StringRefESt6vectorIPKNS2_22CumulativeReporterBase4NodeINS2_13TestCaseStatsENS6_11SectionNodeEEESaISC_EEEEEOT_RNSt16remove_referenceISJ_E4typeE
FN:70,71,_ZSt7forwardIRPSt13_Rb_tree_nodeISt4pairIKNSt7__cxx1112basic_stringIcSt11char_traitsIcESaIcEEEN5Catch6Detail10unique_ptrINS9_16IReporterFactoryEEEEEEOT_RNSt16remove_referenceISI_E4typeE
FN:70,71,_ZSt7forwardIRPSt13_Rb_tree_nodeISt4pairIKNSt7__cxx1112basic_stringIcSt11char_traitsIcESaIcEEEN5Catch8TagAliasEEEEOT_RNSt16remove_referenceISF_E4typeE
FN:70,71,_ZSt7forwardIRPSt13_Rb_tree_nodeISt4pairIKNSt7__cxx1112basic_stringIcSt11char_traitsIcESaIcEEES7_EEEOT_RNSt16remove_referenceISD_E4typeE
FN:70,71,_ZSt7forwardIRPSt13_Rb_tree_nodeISt4pairIKllEEEOT_RNSt16remove_referenceIS7_E4typeE
FN:70,71,_ZSt7forwardIRPSt18_Rb_tree_node_baseEOT_RNSt16remove_referenceIS3_E4typeE
FN:70,71,_ZSt7forwardIRSoEOT_RNSt16remove_referenceIS1_E4typeE
FN:70,71,_ZSt7forwardIRSt17_Rb_tree_iteratorIN5Catch9StringRefEEEOT_RNSt16remove_referenceIS5_E4typeE
FN:70,71,_ZSt7forwardIRSt17_Rb_tree_iteratorIPKN5Catch12TestCaseInfoEEEOT_RNSt16remove_referenceIS7_E4typeE
FN:70,71,_ZSt7forwardIRSt17_Rb_tree_iteratorISt4pairIKN5Catch9StringRefENS2_7TagInfoEEEEOT_RNSt16remove_referenceIS9_E4typeE
FN:70,71,_ZSt7forwardIRSt17_Rb_tree_iteratorISt4pairIKNSt7__cxx1112basic_stringIcSt11char_traitsIcESaIcEEEN5Catch6Detail10unique_ptrINS9_16IReporterFactoryEEEEEEOT_RNSt16remove_referenceISH_E4typeE
FN:70,71,_ZSt7forwardIRSt17_Rb_tree_iteratorISt4pairIKNSt7__cxx1112basic_stringIcSt11char_traitsIcESaIcEEEN5Catch8TagAliasEEEEOT_RNSt16remove_referenceISE_E4typeE
FN:70,71,_ZSt7forwardIRSt17_Rb_tree_iteratorISt4pairIKNSt7__cxx1112basic_stringIcSt11char_traitsIcESaIcEEES7_EEEOT_RNSt16remove_referenceISC_E4typeE
FN:70,71,_ZSt7forwardIRSt6vectorINSt7__cxx1112basic_stringIcSt11char_traitsIcESaIcEEESaIS6_EEEOT_RNSt16remove_referenceISA_E4typeE
FN:70,71,_ZSt7forwardIRZL22CATCH2_INTERNAL_TEST_6vEUlRKSt6vectorIdSaIdEEE_EOT_RNSt16remove_referenceIS7_E4typeE
FN:70,71,_ZSt7forwardIRZL22CATCH2_INTERNAL_TEST_8vEUlRKSt6vectorIdSaIdEEE_EOT_RNSt16remove_referenceIS7_E4typeE
FN:70,71,_ZSt7forwardIRZL23CATCH2_INTERNAL_TEST_12vEUlRKSt6vectorIdSaIdEEE_EOT_RNSt16remove_referenceIS7_E4typeE
FN:70,71,_ZSt7forwardIRZL23CATCH2_INTERNAL_TEST_14vEUlRKSt6vectorIdSaIdEEE_EOT_RNSt16remove_referenceIS7_E4typeE
FN:70,71,_ZSt7forwardIRZL23CATCH2_INTERNAL_TEST_16vEUlRKSt6vectorIdSaIdEEE_EOT_RNSt16remove_referenceIS7_E4typeE
FN:70,71,_ZSt7forwardIRZL23CATCH2_INTERNAL_TEST_28vEUlRKSt6vectorIdSaIdEEE_EOT_RNSt16remove_referenceIS7_E4typeE
FN:70,71,_ZSt7forwardIRZL23CATCH2_INTERNAL_TEST_42vEUlRKSt6vectorIdSaIdEEE_EOT_RNSt16remove_referenceIS7_E4typeE
FN:70,71,_ZSt7forwardIRZL23CATCH2_INTERNAL_TEST_44vEUlRKSt6vectorIdSaIdEEE_EOT_RNSt16remove_referenceIS7_E4typeE
FN:70,71,_ZSt7forwardIRbEOT_RNSt16remove_referenceIS1_E4typeE
FN:70,71,_ZSt7forwardIRdEOT_RNSt16remove_referenceIS1_E4typeE
FN:70,71,_ZSt7forwardIRiEOT_RNSt16remove_referenceIS1_E4typeE
FN:70,71,_ZSt7forwardIRjEOT_RNSt16remove_referenceIS1_E4typeE
FN:70,71,_ZSt7forwardIRlEOT_RNSt16remove_referenceIS1_E4typeE
FN:70,71,_ZSt7forwardIRmEOT_RNSt16remove_referenceIS1_E4typeE
FN:70,71,_ZSt7forwardISt17_Rb_tree_iteratorIN5Catch9StringRefEEEOT_RNSt16remove_referenceIS4_E4typeE
FN:70,71,_ZSt7forwardISt17_Rb_tree_iteratorIPKN5Catch12TestCaseInfoEEEOT_RNSt16remove_referenceIS6_E4typeE
FN:70,71,_ZSt7forwardISt17_Rb_tree_iteratorIPKN5Catch14TestCaseHandleEEEOT_RNSt16remove_referenceIS6_E4typeE
FN:70,71,_ZSt7forwardISt4pairIN5Catch9StringRefENS1_7TagInfoEEEOT_RNSt16remove_referenceIS5_E4typeE
FN:70,71,_ZSt7forwardISt4pairINSt7__cxx1112basic_stringIcSt11char_traitsIcESaIcEEEN5Catch8TagAliasEEEOT_RNSt16remove_referenceISA_E4typeE
FN:70,71,_ZSt7forwardISt4pairINSt7__cxx1112basic_stringIcSt11char_traitsIcESaIcEEES6_EEOT_RNSt16remove_referenceIS8_E4typeE
FN:70,71,_ZSt7forwardISt4pairISt6vectorIdSaIdEEdEEOT_RNSt16remove_referenceIS5_E4typeE
FN:70,71,_ZSt7forwardISt4pairIccEEOT_RNSt16remove_referenceIS2_E4typeE
FN:70,71,_ZSt7forwardISt4pairIiN5Catch9StringRefEEEOT_RNSt16remove_referenceIS4_E4typeE
FN:70,71,_ZSt7forwardISt4pairIlSt6vectorINSt7__cxx119sub_matchIN9__gnu_cxx17__normal_iteratorIPKcNS2_12basic_stringIcSt11char_traitsIcESaIcEEEEEEESaISE_EEEEOT_RNSt16remove_referenceISI_E4typeE
FN:70,71,_ZSt7forwardISt4pairImN5Catch14TestCaseHandleEEEOT_RNSt16remove_referenceIS4_E4typeE
FN:70,71,_ZSt7forwardISt5tupleIJEEEOT_RNSt16remove_referenceIS2_E4typeE
FN:70,71,_ZSt7forwardISt5tupleIJON5Catch9StringRefEEEEOT_RNSt16remove_referenceIS5_E4typeE
FN:70,71,_ZSt7forwardISt5tupleIJONSt7__cxx1112basic_stringIcSt11char_traitsIcESaIcEEEEEEOT_RNSt16remove_referenceIS9_E4typeE
FN:70,71,_ZSt7forwardISt5tupleIJRKlEEEOT_RNSt16remove_referenceIS4_E4typeE
FN:70,71,_ZSt7forwardISt5tupleIJRKmEEEOT_RNSt16remove_referenceIS4_E4typeE
FN:70,71,_ZSt7forwardISt6vectorIdSaIdEEEOT_RNSt16remove_referenceIS3_E4typeE
FN:70,71,_ZSt7forwardIZL23CATCH2_INTERNAL_TEST_16vEUlRKSt6vectorIdSaIdEEE_EOT_RNSt16remove_referenceIS6_E4typeE
FN:70,71,_ZSt7forwardIZL23CATCH2_INTERNAL_TEST_18vEUlRKSt6vectorIdSaIdEEE_EOT_RNSt16remove_referenceIS6_E4typeE
FN:70,71,_ZSt7forwardIZL23CATCH2_INTERNAL_TEST_20vEUlRKSt6vectorIdSaIdEEE_EOT_RNSt16remove_referenceIS6_E4typeE
FN:70,71,_ZSt7forwardIZL23CATCH2_INTERNAL_TEST_22vEUlRKSt6vectorIdSaIdEEE_EOT_RNSt16remove_referenceIS6_E4typeE
FN:70,71,_ZSt7forwardIZL23CATCH2_INTERNAL_TEST_24vEUlRKSt6vectorIdSaIdEEE_EOT_RNSt16remove_referenceIS6_E4typeE
FN:70,71,_ZSt7forwardIZNK5Catch5Clara6Parser5parseERKNSt7__cxx1112basic_stringIcSt11char_traitsIcESaIcEEENS1_6Detail11TokenStreamEE10ParserInfoEOT_RNSt16remove_referenceISE_E4typeE
FN:70,71,_ZSt7forwardIbEOT_RNSt16remove_referenceIS0_E4typeE
FN:70,71,_ZSt7forwardIcEOT_RNSt16remove_referenceIS0_E4typeE
FN:70,71,_ZSt7forwardIdEOT_RNSt16remove_referenceIS0_E4typeE
FN:70,71,_ZSt7forwardIiEOT_RNSt16remove_referenceIS0_E4typeE
FN:70,71,_ZSt7forwardIjEOT_RNSt16remove_referenceIS0_E4typeE
FN:70,71,_ZSt7forwardImEOT_RNSt16remove_referenceIS0_E4typeE
FN:97,98,_ZSt4moveIRN4givp10GivpConfigEEONSt16remove_referenceIT_E4typeEOS4_
FN:97,98,_ZSt4moveIRN5Catch11MessageInfoEEONSt16remove_referenceIT_E4typeEOS4_
FN:97,98,_ZSt4moveIRN5Catch11SectionInfoEEONSt16remove_referenceIT_E4typeEOS4_
FN:97,98,_ZSt4moveIRN5Catch12ReporterSpecEEONSt16remove_referenceIT_E4typeEOS4_
FN:97,98,_ZSt4moveIRN5Catch12_GLOBAL__N_113BySectionInfoEEONSt16remove_referenceIT_E4typeEOS5_
FN:97,98,_ZSt4moveIRN5Catch12_GLOBAL__N_113SummaryColumnEEONSt16remove_referenceIT_E4typeEOS5_
FN:97,98,_ZSt4moveIRN5Catch13ScopedMessageEEONSt16remove_referenceIT_E4typeEOS4_
FN:97,98,_ZSt4moveIRN5Catch14SectionEndInfoEEONSt16remove_referenceIT_E4typeEOS4_
FN:97,98,_ZSt4moveIRN5Catch14TestCaseHandleEEONSt16remove_referenceIT_E4typeEOS4_
FN:97,98,_ZSt4moveIRN5Catch19ListenerDescriptionEEONSt16remove_referenceIT_E4typeEOS4_
FN:97,98,_ZSt4moveIRN5Catch19ReporterDescriptionEEONSt16remove_referenceIT_E4typeEOS4_
FN:97,98,_ZSt4moveIRN5Catch21ProcessedReporterSpecEEONSt16remove_referenceIT_E4typeEOS4_
FN:97,98,_ZSt4moveIRN5Catch3TagEEONSt16remove_referenceIT_E4typeEOS4_
FN:97,98,_ZSt4moveIRN5Catch5Clara3ArgEEONSt16remove_referenceIT_E4typeEOS5_
FN:97,98,_ZSt4moveIRN5Catch5Clara3OptEEONSt16remove_referenceIT_E4typeEOS5_
FN:97,98,_ZSt4moveIRN5Catch5Clara6Detail11HelpColumnsEEONSt16remove_referenceIT_E4typeEOS6_
FN:97,98,_ZSt4moveIRN5Catch5Clara6Detail5TokenEEONSt16remove_referenceIT_E4typeEOS6_
FN:97,98,_ZSt4moveIRN5Catch6Colour4CodeEEONSt16remove_referenceIT_E4typeEOS5_
FN:97,98,_ZSt4moveIRN5Catch6Detail10unique_ptrIKNS0_20IExceptionTranslatorEEEEONSt16remove_referenceIT_E4typeEOS8_
FN:97,98,_ZSt4moveIRN5Catch6Detail10unique_ptrINS0_12ITestInvokerEEEEONSt16remove_referenceIT_E4typeEOS7_
FN:97,98,_ZSt4moveIRN5Catch6Detail10unique_ptrINS0_12TestCaseInfoEEEEONSt16remove_referenceIT_E4typeEOS7_
FN:97,98,_ZSt4moveIRN5Catch6Detail10unique_ptrINS0_14IEventListenerEEEEONSt16remove_referenceIT_E4typeEOS7_
FN:97,98,_ZSt4moveIRN5Catch6Detail10unique_ptrINS0_16TestCaseTracking8ITrackerEEEEONSt16remove_referenceIT_E4typeEOS8_
FN:97,98,_ZSt4moveIRN5Catch6Detail10unique_ptrINS0_20EventListenerFactoryEEEEONSt16remove_referenceIT_E4typeEOS7_
FN:97,98,_ZSt4moveIRN5Catch6Detail10unique_ptrINS0_22CumulativeReporterBase11SectionNodeEEEEONSt16remove_referenceIT_E4typeEOS8_
FN:97,98,_ZSt4moveIRN5Catch6Detail10unique_ptrINS0_22CumulativeReporterBase4NodeINS0_13TestCaseStatsENS3_11SectionNodeEEEEEEONSt16remove_referenceIT_E4typeEOSB_
FN:97,98,_ZSt4moveIRN5Catch6Detail10unique_ptrINS0_8TestSpec7PatternEEEEONSt16remove_referenceIT_E4typeEOS8_
FN:97,98,_ZSt4moveIRN5Catch6Detail10unique_ptrINS1_8EnumInfoEEEEONSt16remove_referenceIT_E4typeEOS7_
FN:97,98,_ZSt4moveIRN5Catch6Detail10unique_ptrINSt7__cxx1119basic_ostringstreamIcSt11char_traitsIcESaIcEEEEEEONSt16remove_referenceIT_E4typeEOSC_
FN:97,98,_ZSt4moveIRN5Catch7TagInfoEEONSt16remove_referenceIT_E4typeEOS4_
FN:97,98,_ZSt4moveIRN5Catch8TestSpec11FilterMatchEEONSt16remove_referenceIT_E4typeEOS5_
FN:97,98,_ZSt4moveIRN5Catch8TestSpec6FilterEEONSt16remove_referenceIT_E4typeEOS5_
FN:97,98,_ZSt4moveIRN5Catch8TextFlow6Column14const_iteratorEEONSt16remove_referenceIT_E4typeEOS6_
FN:97,98,_ZSt4moveIRN5Catch8TextFlow6ColumnEEONSt16remove_referenceIT_E4typeEOS5_
FN:97,98,_ZSt4moveIRN5Catch9StringRefEEONSt16remove_referenceIT_E4typeEOS4_
FN:97,98,_ZSt4moveIRN9__gnu_cxx5__ops15_Iter_comp_iterIZN4givp6detail28bidirectional_path_relinkingIZL23CATCH2_INTERNAL_TEST_38vEUlRKSt6vectorIdSaIdEEE_NS4_3RngEEESt4pairIS8_dERKT_SA_SA_mRSt8optionalINS4_15EvaluationCacheEERT0_RKSI_INSt6chrono10time_pointINSO_3_V212steady_clockENSO_8durationIlSt5ratioILl1ELl1000000000EEEEEEEEUlmmE_EEEONSt16remove_referenceISF_E4typeEOSF_
FN:97,98,_ZSt4moveIRN9__gnu_cxx5__ops15_Iter_comp_iterIZN4givp6detail28bidirectional_path_relinkingIZL23CATCH2_INTERNAL_TEST_40vEUlRKSt6vectorIdSaIdEEE_NS4_3RngEEESt4pairIS8_dERKT_SA_SA_mRSt8optionalINS4_15EvaluationCacheEERT0_RKSI_INSt6chrono10time_pointINSO_3_V212steady_clockENSO_8durationIlSt5ratioILl1ELl1000000000EEEEEEEEUlmmE_EEEONSt16remove_referenceISF_E4typeEOSF_
FN:97,98,_ZSt4moveIRN9__gnu_cxx5__ops15_Iter_comp_iterIZN4givp6detail28bidirectional_path_relinkingIZNS4_3runIRFdRKSt6vectorIdSaIdEEEEENS3_14OptimizeResultEOT_RKS7_ISt4pairIddESaISI_EENS3_10GivpConfigEEUlSB_E_NS4_3RngEEESH_IS9_dERKSF_SB_SB_mRSt8optionalINS4_15EvaluationCacheEERT0_RKST_INSt6chrono10time_pointINSZ_3_V212steady_clockENSZ_8durationIlSt5ratioILl1ELl1000000000EEEEEEEEUlmmE_EEEONSt16remove_referenceISF_E4typeESG_
FN:97,98,_ZSt4moveIRN9__gnu_cxx5__ops15_Iter_comp_iterIZN4givp6detail28bidirectional_path_relinkingIZNS4_3runIRZL22CATCH2_INTERNAL_TEST_6vEUlRKSt6vectorIdSaIdEEE_EENS3_14OptimizeResultEOT_RKS7_ISt4pairIddESaISI_EENS3_10GivpConfigEEUlSB_E_NS4_3RngEEESH_IS9_dERKSF_SB_SB_mRSt8optionalINS4_15EvaluationCacheEERT0_RKST_INSt6chrono10time_pointINSZ_3_V212steady_clockENSZ_8durationIlSt5ratioILl1ELl1000000000EEEEEEEEUlmmE_EEEONSt16remove_referenceISF_E4typeESG_
FN:97,98,_ZSt4moveIRN9__gnu_cxx5__ops15_Iter_comp_iterIZN4givp6detail28bidirectional_path_relinkingIZNS4_3runIRZL22CATCH2_INTERNAL_TEST_8vEUlRKSt6vectorIdSaIdEEE_EENS3_14OptimizeResultEOT_RKS7_ISt4pairIddESaISI_EENS3_10GivpConfigEEUlSB_E_NS4_3RngEEESH_IS9_dERKSF_SB_SB_mRSt8optionalINS4_15EvaluationCacheEERT0_RKST_INSt6chrono10time_pointINSZ_3_V212steady_clockENSZ_8durationIlSt5ratioILl1ELl1000000000EEEEEEEEUlmmE_EEEONSt16remove_referenceISF_E4typeESG_
FN:97,98,_ZSt4moveIRN9__gnu_cxx5__ops15_Iter_comp_iterIZN4givp6detail28bidirectional_path_relinkingIZNS4_3runIRZL23CATCH2_INTERNAL_TEST_12vEUlRKSt6vectorIdSaIdEEE_EENS3_14OptimizeResultEOT_RKS7_ISt4pairIddESaISI_EENS3_10GivpConfigEEUlSB_E_NS4_3RngEEESH_IS9_dERKSF_SB_SB_mRSt8optionalINS4_15EvaluationCacheEERT0_RKST_INSt6chrono10time_pointINSZ_3_V212steady_clockENSZ_8durationIlSt5ratioILl1ELl1000000000EEEEEEEEUlmmE_EEEONSt16remove_referenceISF_E4typeESG_
FN:97,98,_ZSt4moveIRN9__gnu_cxx5__ops15_Iter_comp_iterIZN4givp6detail28bidirectional_path_relinkingIZNS4_3runIRZL23CATCH2_INTERNAL_TEST_14vEUlRKSt6vectorIdSaIdEEE_EENS3_14OptimizeResultEOT_RKS7_ISt4pairIddESaISI_EENS3_10GivpConfigEEUlSB_E_NS4_3RngEEESH_IS9_dERKSF_SB_SB_mRSt8optionalINS4_15EvaluationCacheEERT0_RKST_INSt6chrono10time_pointINSZ_3_V212steady_clockENSZ_8durationIlSt5ratioILl1ELl1000000000EEEEEEEEUlmmE_EEEONSt16remove_referenceISF_E4typeESG_
FN:97,98,_ZSt4moveIRN9__gnu_cxx5__ops15_Iter_comp_iterIZN4givp6detail28bidirectional_path_relinkingIZNS4_3runIRZL23CATCH2_INTERNAL_TEST_16vEUlRKSt6vectorIdSaIdEEE_EENS3_14OptimizeResultEOT_RKS7_ISt4pairIddESaISI_EENS3_10GivpConfigEEUlSB_E_NS4_3RngEEESH_IS9_dERKSF_SB_SB_mRSt8optionalINS4_15EvaluationCacheEERT0_RKST_INSt6chrono10time_pointINSZ_3_V212steady_clockENSZ_8durationIlSt5ratioILl1ELl1000000000EEEEEEEEUlmmE_EEEONSt16remove_referenceISF_E4typeESG_
FN:97,98,_ZSt4moveIRN9__gnu_cxx5__ops15_Iter_comp_iterIZN4givp6detail28bidirectional_path_relinkingIZNS4_3runIRZL23CATCH2_INTERNAL_TEST_28vEUlRKSt6vectorIdSaIdEEE_EENS3_14OptimizeResultEOT_RKS7_ISt4pairIddESaISI_EENS3_10GivpConfigEEUlSB_E_NS4_3RngEEESH_IS9_dERKSF_SB_SB_mRSt8optionalINS4_15EvaluationCacheEERT0_RKST_INSt6chrono10time_pointINSZ_3_V212steady_clockENSZ_8durationIlSt5ratioILl1ELl1000000000EEEEEEEEUlmmE_EEEONSt16remove_referenceISF_E4typeESG_
FN:97,98,_ZSt4moveIRN9__gnu_cxx5__ops15_Iter_comp_iterIZN4givp6detail28bidirectional_path_relinkingIZNS4_3runIRZL23CATCH2_INTERNAL_TEST_42vEUlRKSt6vectorIdSaIdEEE_EENS3_14OptimizeResultEOT_RKS7_ISt4pairIddESaISI_EENS3_10GivpConfigEEUlSB_E_NS4_3RngEEESH_IS9_dERKSF_SB_SB_mRSt8optionalINS4_15EvaluationCacheEERT0_RKST_INSt6chrono10time_pointINSZ_3_V212steady_clockENSZ_8durationIlSt5ratioILl1ELl1000000000EEEEEEEEUlmmE_EEEONSt16remove_referenceISF_E4typeESG_
FN:97,98,_ZSt4moveIRN9__gnu_cxx5__ops15_Iter_comp_iterIZN4givp6detail28bidirectional_path_relinkingIZNS4_3runIRZL23CATCH2_INTERNAL_TEST_44vEUlRKSt6vectorIdSaIdEEE_EENS3_14OptimizeResultEOT_RKS7_ISt4pairIddESaISI_EENS3_10GivpConfigEEUlSB_E_NS4_3RngEEESH_IS9_dERKSF_SB_SB_mRSt8optionalINS4_15EvaluationCacheEERT0_RKST_INSt6chrono10time_pointINSZ_3_V212steady_clockENSZ_8durationIlSt5ratioILl1ELl1000000000EEEEEEEEUlmmE_EEEONSt16remove_referenceISF_E4typeESG_
FN:97,98,_ZSt4moveIRN9__gnu_cxx5__ops15_Iter_comp_iterIZN4givp6detail28bidirectional_path_relinkingIZNS4_3runIZL23CATCH2_INTERNAL_TEST_16vEUlRKSt6vectorIdSaIdEEE_EENS3_14OptimizeResultEOT_RKS7_ISt4pairIddESaISH_EENS3_10GivpConfigEEUlSB_E_NS4_3RngEEESG_IS9_dERKSE_SB_SB_mRSt8optionalINS4_15EvaluationCacheEERT0_RKSS_INSt6chrono10time_pointINSY_3_V212steady_clockENSY_8durationIlSt5ratioILl1ELl1000000000EEEEEEEEUlmmE_EEEONSt16remove_referenceISE_E4typeESF_
FN:97,98,_ZSt4moveIRN9__gnu_cxx5__ops15_Iter_comp_iterIZN4givp6detail28bidirectional_path_relinkingIZNS4_3runIZL23CATCH2_INTERNAL_TEST_18vEUlRKSt6vectorIdSaIdEEE_EENS3_14OptimizeResultEOT_RKS7_ISt4pairIddESaISH_EENS3_10GivpConfigEEUlSB_E_NS4_3RngEEESG_IS9_dERKSE_SB_SB_mRSt8optionalINS4_15EvaluationCacheEERT0_RKSS_INSt6chrono10time_pointINSY_3_V212steady_clockENSY_8durationIlSt5ratioILl1ELl1000000000EEEEEEEEUlmmE_EEEONSt16remove_referenceISE_E4typeESF_
FN:97,98,_ZSt4moveIRN9__gnu_cxx5__ops15_Iter_comp_iterIZN4givp6detail28bidirectional_path_relinkingIZNS4_3runIZL23CATCH2_INTERNAL_TEST_20vEUlRKSt6vectorIdSaIdEEE_EENS3_14OptimizeResultEOT_RKS7_ISt4pairIddESaISH_EENS3_10GivpConfigEEUlSB_E_NS4_3RngEEESG_IS9_dERKSE_SB_SB_mRSt8optionalINS4_15EvaluationCacheEERT0_RKSS_INSt6chrono10time_pointINSY_3_V212steady_clockENSY_8durationIlSt5ratioILl1ELl1000000000EEEEEEEEUlmmE_EEEONSt16remove_referenceISE_E4typeESF_
FN:97,98,_ZSt4moveIRN9__gnu_cxx5__ops15_Iter_comp_iterIZN4givp6detail28bidirectional_path_relinkingIZNS4_3runIZL23CATCH2_INTERNAL_TEST_22vEUlRKSt6vectorIdSaIdEEE_EENS3_14OptimizeResultEOT_RKS7_ISt4pairIddESaISH_EENS3_10GivpConfigEEUlSB_E_NS4_3RngEEESG_IS9_dERKSE_SB_SB_mRSt8optionalINS4_15EvaluationCacheEERT0_RKSS_INSt6chrono10time_pointINSY_3_V212steady_clockENSY_8durationIlSt5ratioILl1ELl1000000000EEEEEEEEUlmmE_EEEONSt16remove_referenceISE_E4typeESF_
FN:97,98,_ZSt4moveIRN9__gnu_cxx5__ops15_Iter_comp_iterIZN4givp6detail28bidirectional_path_relinkingIZNS4_3runIZL23CATCH2_INTERNAL_TEST_24vEUlRKSt6vectorIdSaIdEEE_EENS3_14OptimizeResultEOT_RKS7_ISt4pairIddESaISH_EENS3_10GivpConfigEEUlSB_E_NS4_3RngEEESG_IS9_dERKSE_SB_SB_mRSt8optionalINS4_15EvaluationCacheEERT0_RKSS_INSt6chrono10time_pointINSY_3_V212steady_clockENSY_8durationIlSt5ratioILl1ELl1000000000EEEEEEEEUlmmE_EEEONSt16remove_referenceISE_E4typeESF_
FN:97,98,_ZSt4moveIRN9__gnu_cxx5__ops15_Iter_comp_iterIZN4givp6detail9ElitePool3addESt6vectorIdSaIdEEdEUlRKT_RKT0_E0_EEEONSt16remove_referenceIS9_E4typeEOS9_
FN:97,98,_ZSt4moveIRN9__gnu_cxx5__ops15_Iter_comp_iterIZN4givp6detail9ElitePool3addESt6vectorIdSaIdEEdEUlRKT_RKT0_E_EEEONSt16remove_referenceIS9_E4typeEOS9_
FN:97,98,_ZSt4moveIRN9__gnu_cxx5__ops15_Iter_comp_iterIZN4givp6detailL17neighborhood_flipIZNS4_3runIRFdRKSt6vectorIdSaIdEEEEENS3_14OptimizeResultEOT_RKS7_ISt4pairIddESaISI_EENS3_10GivpConfigEEUlSB_E_NS4_3RngEEESH_IdbERS9_dRKSF_SR_RT0_SB_SB_RSt8optionalINS4_15EvaluationCacheEEmRKSW_INSt6chrono10time_pointINS10_3_V212steady_clockENS10_8durationIlSt5ratioILl1ELl1000000000EEEEEEEEUlmmE_EEEONSt16remove_referenceISF_E4typeESG_
FN:97,98,_ZSt4moveIRN9__gnu_cxx5__ops15_Iter_comp_iterIZN4givp6detailL17neighborhood_flipIZNS4_3runIRZL22CATCH2_INTERNAL_TEST_6vEUlRKSt6vectorIdSaIdEEE_EENS3_14OptimizeResultEOT_RKS7_ISt4pairIddESaISI_EENS3_10GivpConfigEEUlSB_E_NS4_3RngEEESH_IdbERS9_dRKSF_SR_RT0_SB_SB_RSt8optionalINS4_15EvaluationCacheEEmRKSW_INSt6chrono10time_pointINS10_3_V212steady_clockENS10_8durationIlSt5ratioILl1ELl1000000000EEEEEEEEUlmmE_EEEONSt16remove_referenceISF_E4typeESG_
FN:97,98,_ZSt4moveIRN9__gnu_cxx5__ops15_Iter_comp_iterIZN4givp6detailL17neighborhood_flipIZNS4_3runIRZL22CATCH2_INTERNAL_TEST_8vEUlRKSt6vectorIdSaIdEEE_EENS3_14OptimizeResultEOT_RKS7_ISt4pairIddESaISI_EENS3_10GivpConfigEEUlSB_E_NS4_3RngEEESH_IdbERS9_dRKSF_SR_RT0_SB_SB_RSt8optionalINS4_15EvaluationCacheEEmRKSW_INSt6chrono10time_pointINS10_3_V212steady_clockENS10_8durationIlSt5ratioILl1ELl1000000000EEEEEEEEUlmmE_EEEONSt16remove_referenceISF_E4typeESG_
FN:97,98,_ZSt4moveIRN9__gnu_cxx5__ops15_Iter_comp_iterIZN4givp6detailL17neighborhood_flipIZNS4_3runIRZL23CATCH2_INTERNAL_TEST_12vEUlRKSt6vectorIdSaIdEEE_EENS3_14OptimizeResultEOT_RKS7_ISt4pairIddESaISI_EENS3_10GivpConfigEEUlSB_E_NS4_3RngEEESH_IdbERS9_dRKSF_SR_RT0_SB_SB_RSt8optionalINS4_15EvaluationCacheEEmRKSW_INSt6chrono10time_pointINS10_3_V212steady_clockENS10_8durationIlSt5ratioILl1ELl1000000000EEEEEEEEUlmmE_EEEONSt16remove_referenceISF_E4typeESG_
FN:97,98,_ZSt4moveIRN9__gnu_cxx5__ops15_Iter_comp_iterIZN4givp6detailL17neighborhood_flipIZNS4_3runIRZL23CATCH2_INTERNAL_TEST_14vEUlRKSt6vectorIdSaIdEEE_EENS3_14OptimizeResultEOT_RKS7_ISt4pairIddESaISI_EENS3_10GivpConfigEEUlSB_E_NS4_3RngEEESH_IdbERS9_dRKSF_SR_RT0_SB_SB_RSt8optionalINS4_15EvaluationCacheEEmRKSW_INSt6chrono10time_pointINS10_3_V212steady_clockENS10_8durationIlSt5ratioILl1ELl1000000000EEEEEEEEUlmmE_EEEONSt16remove_referenceISF_E4typeESG_
FN:97,98,_ZSt4moveIRN9__gnu_cxx5__ops15_Iter_comp_iterIZN4givp6detailL17neighborhood_flipIZNS4_3runIRZL23CATCH2_INTERNAL_TEST_16vEUlRKSt6vectorIdSaIdEEE_EENS3_14OptimizeResultEOT_RKS7_ISt4pairIddESaISI_EENS3_10GivpConfigEEUlSB_E_NS4_3RngEEESH_IdbERS9_dRKSF_SR_RT0_SB_SB_RSt8optionalINS4_15EvaluationCacheEEmRKSW_INSt6chrono10time_pointINS10_3_V212steady_clockENS10_8durationIlSt5ratioILl1ELl1000000000EEEEEEEEUlmmE_EEEONSt16remove_referenceISF_E4typeESG_
FN:97,98,_ZSt4moveIRN9__gnu_cxx5__ops15_Iter_comp_iterIZN4givp6detailL17neighborhood_flipIZNS4_3runIRZL23CATCH2_INTERNAL_TEST_28vEUlRKSt6vectorIdSaIdEEE_EENS3_14OptimizeResultEOT_RKS7_ISt4pairIddESaISI_EENS3_10GivpConfigEEUlSB_E_NS4_3RngEEESH_IdbERS9_dRKSF_SR_RT0_SB_SB_RSt8optionalINS4_15EvaluationCacheEEmRKSW_INSt6chrono10time_pointINS10_3_V212steady_clockENS10_8durationIlSt5ratioILl1ELl1000000000EEEEEEEEUlmmE_EEEONSt16remove_referenceISF_E4typeESG_
FN:97,98,_ZSt4moveIRN9__gnu_cxx5__ops15_Iter_comp_iterIZN4givp6detailL17neighborhood_flipIZNS4_3runIRZL23CATCH2_INTERNAL_TEST_42vEUlRKSt6vectorIdSaIdEEE_EENS3_14OptimizeResultEOT_RKS7_ISt4pairIddESaISI_EENS3_10GivpConfigEEUlSB_E_NS4_3RngEEESH_IdbERS9_dRKSF_SR_RT0_SB_SB_RSt8optionalINS4_15EvaluationCacheEEmRKSW_INSt6chrono10time_pointINS10_3_V212steady_clockENS10_8durationIlSt5ratioILl1ELl1000000000EEEEEEEEUlmmE_EEEONSt16remove_referenceISF_E4typeESG_
FN:97,98,_ZSt4moveIRN9__gnu_cxx5__ops15_Iter_comp_iterIZN4givp6detailL17neighborhood_flipIZNS4_3runIRZL23CATCH2_INTERNAL_TEST_44vEUlRKSt6vectorIdSaIdEEE_EENS3_14OptimizeResultEOT_RKS7_ISt4pairIddESaISI_EENS3_10GivpConfigEEUlSB_E_NS4_3RngEEESH_IdbERS9_dRKSF_SR_RT0_SB_SB_RSt8optionalINS4_15EvaluationCacheEEmRKSW_INSt6chrono10time_pointINS10_3_V212steady_clockENS10_8durationIlSt5ratioILl1ELl1000000000EEEEEEEEUlmmE_EEEONSt16remove_referenceISF_E4typeESG_
FN:97,98,_ZSt4moveIRN9__gnu_cxx5__ops15_Iter_comp_iterIZN4givp6detailL17neighborhood_flipIZNS4_3runIZL23CATCH2_INTERNAL_TEST_16vEUlRKSt6vectorIdSaIdEEE_EENS3_14OptimizeResultEOT_RKS7_ISt4pairIddESaISH_EENS3_10GivpConfigEEUlSB_E_NS4_3RngEEESG_IdbERS9_dRKSE_SQ_RT0_SB_SB_RSt8optionalINS4_15EvaluationCacheEEmRKSV_INSt6chrono10time_pointINSZ_3_V212steady_clockENSZ_8durationIlSt5ratioILl1ELl1000000000EEEEEEEEUlmmE_EEEONSt16remove_referenceISE_E4typeESF_
FN:97,98,_ZSt4moveIRN9__gnu_cxx5__ops15_Iter_comp_iterIZN4givp6detailL17neighborhood_flipIZNS4_3runIZL23CATCH2_INTERNAL_TEST_18vEUlRKSt6vectorIdSaIdEEE_EENS3_14OptimizeResultEOT_RKS7_ISt4pairIddESaISH_EENS3_10GivpConfigEEUlSB_E_NS4_3RngEEESG_IdbERS9_dRKSE_SQ_RT0_SB_SB_RSt8optionalINS4_15EvaluationCacheEEmRKSV_INSt6chrono10time_pointINSZ_3_V212steady_clockENSZ_8durationIlSt5ratioILl1ELl1000000000EEEEEEEEUlmmE_EEEONSt16remove_referenceISE_E4typeESF_
FN:97,98,_ZSt4moveIRN9__gnu_cxx5__ops15_Iter_comp_iterIZN4givp6detailL17neighborhood_flipIZNS4_3runIZL23CATCH2_INTERNAL_TEST_20vEUlRKSt6vectorIdSaIdEEE_EENS3_14OptimizeResultEOT_RKS7_ISt4pairIddESaISH_EENS3_10GivpConfigEEUlSB_E_NS4_3RngEEESG_IdbERS9_dRKSE_SQ_RT0_SB_SB_RSt8optionalINS4_15EvaluationCacheEEmRKSV_INSt6chrono10time_pointINSZ_3_V212steady_clockENSZ_8durationIlSt5ratioILl1ELl1000000000EEEEEEEEUlmmE_EEEONSt16remove_referenceISE_E4typeESF_
FN:97,98,_ZSt4moveIRN9__gnu_cxx5__ops15_Iter_comp_iterIZN4givp6detailL17neighborhood_flipIZNS4_3runIZL23CATCH2_INTERNAL_TEST_22vEUlRKSt6vectorIdSaIdEEE_EENS3_14OptimizeResultEOT_RKS7_ISt4pairIddESaISH_EENS3_10GivpConfigEEUlSB_E_NS4_3RngEEESG_IdbERS9_dRKSE_SQ_RT0_SB_SB_RSt8optionalINS4_15EvaluationCacheEEmRKSV_INSt6chrono10time_pointINSZ_3_V212steady_clockENSZ_8durationIlSt5ratioILl1ELl1000000000EEEEEEEEUlmmE_EEEONSt16remove_referenceISE_E4typeESF_
FN:97,98,_ZSt4moveIRN9__gnu_cxx5__ops15_Iter_comp_iterIZN4givp6detailL17neighborhood_flipIZNS4_3runIZL23CATCH2_INTERNAL_TEST_24vEUlRKSt6vectorIdSaIdEEE_EENS3_14OptimizeResultEOT_RKS7_ISt4pairIddESaISH_EENS3_10GivpConfigEEUlSB_E_NS4_3RngEEESG_IdbERS9_dRKSE_SQ_RT0_SB_SB_RSt8optionalINS4_15EvaluationCacheEEmRKSV_INSt6chrono10time_pointINSZ_3_V212steady_clockENSZ_8durationIlSt5ratioILl1ELl1000000000EEEEEEEEUlmmE_EEEONSt16remove_referenceISE_E4typeESF_
FN:97,98,_ZSt4moveIRN9__gnu_cxx5__ops15_Iter_comp_iterIZN5Catch9sortTestsERKNS3_7IConfigERKSt6vectorINS3_14TestCaseHandleESaIS8_EEEUlRKS8_SE_E_EEEONSt16remove_referenceIT_E4typeEOSJ_
FN:97,98,_ZSt4moveIRN9__gnu_cxx5__ops15_Iter_comp_iterIZN5Catch9sortTestsERKNS3_7IConfigERKSt6vectorINS3_14TestCaseHandleESaIS8_EEEUlRKSt4pairImS8_ESG_E_EEEONSt16remove_referenceIT_E4typeEOSL_
FN:97,98,_ZSt4moveIRN9__gnu_cxx5__ops15_Iter_less_iterEEONSt16remove_referenceIT_E4typeEOS5_
FN:97,98,_ZSt4moveIRNSt12_Vector_baseIN5Catch10ColumnInfoESaIS2_EE12_Vector_implEEONSt16remove_referenceIT_E4typeEOS8_
FN:97,98,_ZSt4moveIRNSt12_Vector_baseIN5Catch14TestCaseHandleESaIS2_EE12_Vector_implEEONSt16remove_referenceIT_E4typeEOS8_
FN:97,98,_ZSt4moveIRNSt12_Vector_baseIN5Catch5Clara3ArgESaIS3_EE12_Vector_implEEONSt16remove_referenceIT_E4typeEOS9_
FN:97,98,_ZSt4moveIRNSt12_Vector_baseIN5Catch5Clara3OptESaIS3_EE12_Vector_implEEONSt16remove_referenceIT_E4typeEOS9_
FN:97,98,_ZSt4moveIRNSt12_Vector_baseIN5Catch5Clara6Detail5TokenESaIS4_EE12_Vector_implEEONSt16remove_referenceIT_E4typeEOSA_
FN:97,98,_ZSt4moveIRNSt12_Vector_baseIN5Catch6Detail10unique_ptrINS1_8TestSpec7PatternEEESaIS6_EE12_Vector_implEEONSt16remove_referenceIT_E4typeEOSC_
FN:97,98,_ZSt4moveIRNSt12_Vector_baseIN5Catch8TestSpec6FilterESaIS3_EE12_Vector_implEEONSt16remove_referenceIT_E4typeEOS9_
FN:97,98,_ZSt4moveIRNSt12_Vector_baseIN5Catch8TextFlow6ColumnESaIS3_EE12_Vector_implEEONSt16remove_referenceIT_E4typeEOS9_
FN:97,98,_ZSt4moveIRNSt12_Vector_baseIN5Catch9StringRefESaIS2_EE12_Vector_implEEONSt16remove_referenceIT_E4typeEOS8_
FN:97,98,_ZSt4moveIRNSt12_Vector_baseINSt7__cxx1112basic_stringIcSt11char_traitsIcESaIcEEESaIS6_EE12_Vector_implEEONSt16remove_referenceIT_E4typeEOSC_
FN:97,98,_ZSt4moveIRNSt12_Vector_baseINSt7__cxx1112regex_traitsIcE10_RegexMaskESaIS4_EE12_Vector_implEEONSt16remove_referenceIT_E4typeEOSA_
FN:97,98,_ZSt4moveIRNSt12_Vector_baseINSt7__cxx119sub_matchIN9__gnu_cxx17__normal_iteratorIPKcNS1_12basic_stringIcSt11char_traitsIcESaIcEEEEEEESaISD_EE12_Vector_implEEONSt16remove_referenceIT_E4typeEOSJ_
FN:97,98,_ZSt4moveIRNSt12_Vector_baseIPKN5Catch14TestCaseHandleESaIS4_EE12_Vector_implEEONSt16remove_referenceIT_E4typeEOSA_
FN:97,98,_ZSt4moveIRNSt12_Vector_baseISt4pairINSt7__cxx1112basic_stringIcSt11char_traitsIcESaIcEEES7_ESaIS8_EE12_Vector_implEEONSt16remove_referenceIT_E4typeEOSE_
FN:97,98,_ZSt4moveIRNSt12_Vector_baseISt4pairIccESaIS2_EE12_Vector_implEEONSt16remove_referenceIT_E4typeEOS8_
FN:97,98,_ZSt4moveIRNSt12_Vector_baseISt4pairIlSt6vectorINSt7__cxx119sub_matchIN9__gnu_cxx17__normal_iteratorIPKcNS3_12basic_stringIcSt11char_traitsIcESaIcEEEEEEESaISF_EEESaISI_EE12_Vector_implEEONSt16remove_referenceIT_E4typeEOSO_
FN:97,98,_ZSt4moveIRNSt12_Vector_baseIcSaIcEE12_Vector_implEEONSt16remove_referenceIT_E4typeEOS6_
FN:97,98,_ZSt4moveIRNSt12_Vector_baseIdSaIdEE12_Vector_implEEONSt16remove_referenceIT_E4typeEOS6_
FN:97,98,_ZSt4moveIRNSt15__exception_ptr13exception_ptrEEONSt16remove_referenceIT_E4typeEOS4_
FN:97,98,_ZSt4moveIRNSt7__cxx1112basic_stringIcSt11char_traitsIcESaIcEEEEONSt16remove_referenceIT_E4typeEOS8_
FN:97,98,_ZSt4moveIRNSt7__cxx1112regex_traitsIcE10_RegexMaskEEONSt16remove_referenceIT_E4typeEOS6_
FN:97,98,_ZSt4moveIRNSt8__detail15_BracketMatcherINSt7__cxx1112regex_traitsIcEELb0ELb0EEEEONSt16remove_referenceIT_E4typeEOS8_
FN:97,98,_ZSt4moveIRNSt8__detail15_BracketMatcherINSt7__cxx1112regex_traitsIcEELb0ELb1EEEEONSt16remove_referenceIT_E4typeEOS8_
FN:97,98,_ZSt4moveIRNSt8__detail15_BracketMatcherINSt7__cxx1112regex_traitsIcEELb1ELb0EEEEONSt16remove_referenceIT_E4typeEOS8_
FN:97,98,_ZSt4moveIRNSt8__detail15_BracketMatcherINSt7__cxx1112regex_traitsIcEELb1ELb1EEEEONSt16remove_referenceIT_E4typeEOS8_
FN:97,98,_ZSt4moveIRNSt8__detail6_StateIcEEEONSt16remove_referenceIT_E4typeEOS5_
FN:97,98,_ZSt4moveIRNSt8__detail9_StateSeqINSt7__cxx1112regex_traitsIcEEEEEONSt16remove_referenceIT_E4typeEOS8_
FN:97,98,_ZSt4moveIRPFbRKSt9_Any_dataOcEEONSt16remove_referenceIT_E4typeEOS8_
FN:97,98,_ZSt4moveIRPFbRSt9_Any_dataRKS0_St18_Manager_operationEEONSt16remove_referenceIT_E4typeEOS9_
FN:97,98,_ZSt4moveIRPKN5Catch10ColourImplEEONSt16remove_referenceIT_E4typeEOS6_
FN:97,98,_ZSt4moveIRPKN5Catch22CumulativeReporterBase4NodeINS0_13TestCaseStatsENS1_11SectionNodeEEEEONSt16remove_referenceIT_E4typeEOSA_
FN:97,98,_ZSt4moveIRPKNSt8__detail4_NFAINSt7__cxx1112regex_traitsIcEEEEEONSt16remove_referenceIT_E4typeEOSA_
FN:97,98,_ZSt4moveIRPN5Catch12TestCaseInfoEEONSt16remove_referenceIT_E4typeEOS5_
FN:97,98,_ZSt4moveIRPN5Catch16TestCaseTracking8ITrackerEEONSt16remove_referenceIT_E4typeEOS6_
FN:97,98,_ZSt4moveIRPN5Catch5Clara3ArgEEONSt16remove_referenceIT_E4typeEOS6_
FN:97,98,_ZSt4moveIRPN5Catch5Clara3OptEEONSt16remove_referenceIT_E4typeEOS6_
FN:97,98,_ZSt4moveIRPN5Catch5Clara6Detail17BoundValueRefBaseEEONSt16remove_referenceIT_E4typeEOS7_
FN:97,98,_ZSt4moveIRPN5Catch5Clara6Detail8BoundRefEEONSt16remove_referenceIT_E4typeEOS7_
FN:97,98,_ZSt4moveIRPN5Catch9StringRefEEONSt16remove_referenceIT_E4typeEOS5_
FN:97,98,_ZSt4moveIRPNSt7__cxx1112basic_stringIcSt11char_traitsIcESaIcEEEEONSt16remove_referenceIT_E4typeEOS9_
FN:97,98,_ZSt4moveIRSaIN5Catch14TestCaseHandleEEEONSt16remove_referenceIT_E4typeEOS5_
FN:97,98,_ZSt4moveIRSaIN5Catch5Clara3ArgEEEONSt16remove_referenceIT_E4typeEOS6_
FN:97,98,_ZSt4moveIRSaIN5Catch5Clara3OptEEEONSt16remove_referenceIT_E4typeEOS6_
FN:97,98,_ZSt4moveIRSaIN5Catch6Detail10unique_ptrINS0_8TestSpec7PatternEEEEEONSt16remove_referenceIT_E4typeEOS9_
FN:97,98,_ZSt4moveIRSaIN5Catch8TestSpec11FilterMatchEEEONSt16remove_referenceIT_E4typeEOS6_
FN:97,98,_ZSt4moveIRSaIN5Catch8TestSpec6FilterEEEONSt16remove_referenceIT_E4typeEOS6_
FN:97,98,_ZSt4moveIRSaIN5Catch9StringRefEEEONSt16remove_referenceIT_E4typeEOS5_
FN:97,98,_ZSt4moveIRSaINSt7__cxx1112basic_stringIcSt11char_traitsIcESaIcEEEEEONSt16remove_referenceIT_E4typeEOS9_
FN:97,98,_ZSt4moveIRSaINSt7__cxx119sub_matchIN9__gnu_cxx17__normal_iteratorIPKcNS0_12basic_stringIcSt11char_traitsIcESaIcEEEEEEEEEONSt16remove_referenceIT_E4typeEOSG_
FN:97,98,_ZSt4moveIRSaISt13_Rb_tree_nodeIPKN5Catch12TestCaseInfoEEEEONSt16remove_referenceIT_E4typeEOS9_
FN:97,98,_ZSt4moveIRSaISt13_Rb_tree_nodeIPKN5Catch14TestCaseHandleEEEEONSt16remove_referenceIT_E4typeEOS9_
FN:97,98,_ZSt4moveIRSaIcEEONSt16remove_referenceIT_E4typeEOS3_
FN:97,98,_ZSt4moveIRSaIdEEONSt16remove_referenceIT_E4typeEOS3_
FN:97,98,_ZSt4moveIRSt10shared_ptrIKNSt8__detail4_NFAINSt7__cxx1112regex_traitsIcEEEEEEONSt16remove_referenceIT_E4typeEOSB_
FN:97,98,_ZSt4moveIRSt10shared_ptrIN5Catch5Clara6Detail11BoundLambdaIZNS1_21makeCommandLineParserERNS1_10ConfigDataEEUlRKNSt7__cxx1112basic_stringIcSt11char_traitsIcESaIcEEEE0_EEEEONSt16remove_referenceIT_E4typeEOSK_
FN:97,98,_ZSt4moveIRSt10shared_ptrIN5Catch5Clara6Detail11BoundLambdaIZNS1_21makeCommandLineParserERNS1_10ConfigDataEEUlRKNSt7__cxx1112basic_stringIcSt11char_traitsIcESaIcEEEE1_EEEEONSt16remove_referenceIT_E4typeEOSK_
FN:97,98,_ZSt4moveIRSt10shared_ptrIN5Catch5Clara6Detail11BoundLambdaIZNS1_21makeCommandLineParserERNS1_10ConfigDataEEUlRKNSt7__cxx1112basic_stringIcSt11char_traitsIcESaIcEEEE2_EEEEONSt16remove_referenceIT_E4typeEOSK_
FN:97,98,_ZSt4moveIRSt10shared_ptrIN5Catch5Clara6Detail11BoundLambdaIZNS1_21makeCommandLineParserERNS1_10ConfigDataEEUlRKNSt7__cxx1112basic_stringIcSt11char_traitsIcESaIcEEEE3_EEEEONSt16remove_referenceIT_E4typeEOSK_
FN:97,98,_ZSt4moveIRSt10shared_ptrIN5Catch5Clara6Detail11BoundLambdaIZNS1_21makeCommandLineParserERNS1_10ConfigDataEEUlRKNSt7__cxx1112basic_stringIcSt11char_traitsIcESaIcEEEE4_EEEEONSt16remove_referenceIT_E4typeEOSK_
FN:97,98,_ZSt4moveIRSt10shared_ptrIN5Catch5Clara6Detail11BoundLambdaIZNS1_21makeCommandLineParserERNS1_10ConfigDataEEUlRKNSt7__cxx1112basic_stringIcSt11char_traitsIcESaIcEEEE5_EEEEONSt16remove_referenceIT_E4typeEOSK_
FN:97,98,_ZSt4moveIRSt10shared_ptrIN5Catch5Clara6Detail11BoundLambdaIZNS1_21makeCommandLineParserERNS1_10ConfigDataEEUlRKNSt7__cxx1112basic_stringIcSt11char_traitsIcESaIcEEEE7_EEEEONSt16remove_referenceIT_E4typeEOSK_
FN:97,98,_ZSt4moveIRSt10shared_ptrIN5Catch5Clara6Detail11BoundLambdaIZNS1_21makeCommandLineParserERNS1_10ConfigDataEEUlRKNSt7__cxx1112basic_stringIcSt11char_traitsIcESaIcEEEE8_EEEEONSt16remove_referenceIT_E4typeEOSK_
FN:97,98,_ZSt4moveIRSt10shared_ptrIN5Catch5Clara6Detail11BoundLambdaIZNS1_21makeCommandLineParserERNS1_10ConfigDataEEUlbE0_EEEEONSt16remove_referenceIT_E4typeEOSC_
FN:97,98,_ZSt4moveIRSt10shared_ptrIN5Catch5Clara6Detail11BoundLambdaIZNS1_21makeCommandLineParserERNS1_10ConfigDataEEUliE_EEEEONSt16remove_referenceIT_E4typeEOSC_
FN:97,98,_ZSt4moveIRSt10shared_ptrIN5Catch5Clara6Detail12BoundFlagRefEEEONSt16remove_referenceIT_E4typeEOS8_
FN:97,98,_ZSt4moveIRSt10shared_ptrIN5Catch5Clara6Detail13BoundValueRefINSt7__cxx1112basic_stringIcSt11char_traitsIcESaIcEEEEEEEONSt16remove_referenceIT_E4typeEOSF_
FN:97,98,_ZSt4moveIRSt10shared_ptrIN5Catch5Clara6Detail13BoundValueRefISt6vectorINSt7__cxx1112basic_stringIcSt11char_traitsIcESaIcEEESaISB_EEEEEEONSt16remove_referenceIT_E4typeEOSI_
FN:97,98,_ZSt4moveIRSt10shared_ptrIN5Catch5Clara6Detail13BoundValueRefIdEEEEONSt16remove_referenceIT_E4typeEOS9_
FN:97,98,_ZSt4moveIRSt10shared_ptrIN5Catch5Clara6Detail13BoundValueRefIjEEEEONSt16remove_referenceIT_E4typeEOS9_
FN:97,98,_ZSt4moveIRSt10shared_ptrIN5Catch5Clara6Detail13BoundValueRefIlEEEEONSt16remove_referenceIT_E4typeEOS9_
FN:97,98,_ZSt4moveIRSt10shared_ptrIN5Catch5Clara6Detail15BoundFlagLambdaIZNS1_21makeCommandLineParserERNS1_10ConfigDataEEUlbE_EEEEONSt16remove_referenceIT_E4typeEOSC_
FN:97,98,_ZSt4moveIRSt10shared_ptrIN5Catch5Clara6Detail15BoundFlagLambdaIZNS2_4HelpC4ERbEUlbE_EEEEONSt16remove_referenceIT_E4typeEOSC_
FN:97,98,_ZSt4moveIRSt10shared_ptrIN5Catch5Clara6Detail15BoundManyLambdaIZNS1_21makeCommandLineParserERNS1_10ConfigDataEEUlRKNSt7__cxx1112basic_stringIcSt11char_traitsIcESaIcEEEE6_EEEEONSt16remove_referenceIT_E4typeEOSK_
FN:97,98,_ZSt4moveIRSt10shared_ptrIN5Catch5Clara6Detail15BoundManyLambdaIZNS1_21makeCommandLineParserERNS1_10ConfigDataEEUlRKNSt7__cxx1112basic_stringIcSt11char_traitsIcESaIcEEEE_EEEEONSt16remove_referenceIT_E4typeEOSK_
FN:97,98,_ZSt4moveIRSt10shared_ptrIN5Catch5Clara6Detail17BoundValueRefBaseEEEONSt16remove_referenceIT_E4typeEOS8_
FN:97,98,_ZSt4moveIRSt10shared_ptrIN5Catch5Clara6Detail8BoundRefEEEONSt16remove_referenceIT_E4typeEOS8_
FN:97,98,_ZSt4moveIRSt10shared_ptrINSt7__cxx1112basic_stringIcSt11char_traitsIcESaIcEEEEEONSt16remove_referenceIT_E4typeEOSA_
FN:97,98,_ZSt4moveIRSt10shared_ptrINSt8__detail4_NFAINSt7__cxx1112regex_traitsIcEEEEEEONSt16remove_referenceIT_E4typeEOSA_
FN:97,98,_ZSt4moveIRSt12__shared_ptrIKNSt8__detail4_NFAINSt7__cxx1112regex_traitsIcEEEELN9__gnu_cxx12_Lock_policyE2EEEONSt16remove_referenceIT_E4typeEOSD_
FN:97,98,_ZSt4moveIRSt12__shared_ptrIN5Catch5Clara6Detail13BoundValueRefINSt7__cxx1112basic_stringIcSt11char_traitsIcESaIcEEEEELN9__gnu_cxx12_Lock_policyE2EEEONSt16remove_referenceIT_E4typeEOSH_
FN:97,98,_ZSt4moveIRSt12__shared_ptrIN5Catch5Clara6Detail17BoundValueRefBaseELN9__gnu_cxx12_Lock_policyE2EEEONSt16remove_referenceIT_E4typeEOSA_
FN:97,98,_ZSt4moveIRSt12__shared_ptrIN5Catch5Clara6Detail8BoundRefELN9__gnu_cxx12_Lock_policyE2EEEONSt16remove_referenceIT_E4typeEOSA_
FN:97,98,_ZSt4moveIRSt12__shared_ptrINSt7__cxx1112basic_stringIcSt11char_traitsIcESaIcEEELN9__gnu_cxx12_Lock_policyE2EEEONSt16remove_referenceIT_E4typeEOSC_
FN:97,98,_ZSt4moveIRSt17_Optional_payloadISt6vectorIdSaIdEELb0ELb0ELb0EEEONSt16remove_referenceIT_E4typeEOS7_
FN:97,98,_ZSt4moveIRSt4lessIPKN5Catch14TestCaseHandleEEEONSt16remove_referenceIT_E4typeEOS8_
FN:97,98,_ZSt4moveIRSt4pairINSt7__cxx1112basic_stringIcSt11char_traitsIcESaIcEEES6_EEONSt16remove_referenceIT_E4typeEOSA_
FN:97,98,_ZSt4moveIRSt4pairIPKSt6vectorIdSaIdEEdEEONSt16remove_referenceIT_E4typeEOS9_
FN:97,98,_ZSt4moveIRSt4pairIRKNSt7__cxx1112basic_stringIcSt11char_traitsIcESaIcEEERN5Catch6Detail10unique_ptrINS9_16IReporterFactoryEEEEEONSt16remove_referenceIT_E4typeEOSI_
FN:97,98,_ZSt4moveIRSt4pairIRNSt7__cxx1112basic_stringIcSt11char_traitsIcESaIcEEES7_EEONSt16remove_referenceIT_E4typeEOSB_
FN:97,98,_ZSt4moveIRSt4pairISt6vectorIdSaIdEES3_EEONSt16remove_referenceIT_E4typeEOS7_
FN:97,98,_ZSt4moveIRSt4pairISt6vectorIdSaIdEEdEEONSt16remove_referenceIT_E4typeEOS7_
FN:97,98,_ZSt4moveIRSt4pairIccEEONSt16remove_referenceIT_E4typeEOS4_
FN:97,98,_ZSt4moveIRSt4pairIdbEEONSt16remove_referenceIT_E4typeEOS4_
FN:97,98,_ZSt4moveIRSt4pairIiN5Catch9StringRefEEEONSt16remove_referenceIT_E4typeEOS6_
FN:97,98,_ZSt4moveIRSt4pairIlSt6vectorINSt7__cxx119sub_matchIN9__gnu_cxx17__normal_iteratorIPKcNS2_12basic_stringIcSt11char_traitsIcESaIcEEEEEEESaISE_EEEEONSt16remove_referenceIT_E4typeEOSK_
FN:97,98,_ZSt4moveIRSt4pairImN5Catch14TestCaseHandleEEEONSt16remove_referenceIT_E4typeEOS6_
FN:97,98,_ZSt4moveIRSt6localeEONSt16remove_referenceIT_E4typeEOS3_
FN:97,98,_ZSt4moveIRSt6vectorIN5Catch14TestCaseHandleESaIS2_EEEONSt16remove_referenceIT_E4typeEOS7_
FN:97,98,_ZSt4moveIRSt6vectorIN5Catch5Clara3ArgESaIS3_EEEONSt16remove_referenceIT_E4typeEOS8_
FN:97,98,_ZSt4moveIRSt6vectorIN5Catch5Clara3OptESaIS3_EEEONSt16remove_referenceIT_E4typeEOS8_
FN:97,98,_ZSt4moveIRSt6vectorIN5Catch6Detail10unique_ptrINS1_8TestSpec7PatternEEESaIS6_EEEONSt16remove_referenceIT_E4typeEOSB_
FN:97,98,_ZSt4moveIRSt6vectorIN5Catch8TestSpec11FilterMatchESaIS3_EEEONSt16remove_referenceIT_E4typeEOS8_
FN:97,98,_ZSt4moveIRSt6vectorIN5Catch8TestSpec6FilterESaIS3_EEEONSt16remove_referenceIT_E4typeEOS8_
FN:97,98,_ZSt4moveIRSt6vectorIN5Catch9StringRefESaIS2_EEEONSt16remove_referenceIT_E4typeEOS7_
FN:97,98,_ZSt4moveIRSt6vectorINSt7__cxx1112basic_stringIcSt11char_traitsIcESaIcEEESaIS6_EEEONSt16remove_referenceIT_E4typeEOSB_
FN:97,98,_ZSt4moveIRSt6vectorINSt7__cxx119sub_matchIN9__gnu_cxx17__normal_iteratorIPKcNS1_12basic_stringIcSt11char_traitsIcESaIcEEEEEEESaISD_EEEONSt16remove_referenceIT_E4typeEOSI_
FN:97,98,_ZSt4moveIRSt6vectorISt4pairIlS0_INSt7__cxx119sub_matchIN9__gnu_cxx17__normal_iteratorIPKcNS2_12basic_stringIcSt11char_traitsIcESaIcEEEEEEESaISE_EEESaISH_EEEONSt16remove_referenceIT_E4typeEOSM_
FN:97,98,_ZSt4moveIRSt6vectorIdSaIdEEEONSt16remove_referenceIT_E4typeEOS5_
FN:97,98,_ZSt4moveIRSt8functionIFbcEEEONSt16remove_referenceIT_E4typeEOS5_
FN:97,98,_ZSt4moveIRSt9_Any_dataEONSt16remove_referenceIT_E4typeEOS3_
FN:97,98,_ZSt4moveIRZN4givp6detail28bidirectional_path_relinkingIZL23CATCH2_INTERNAL_TEST_38vEUlRKSt6vectorIdSaIdEEE_NS1_3RngEEESt4pairIS5_dERKT_S7_S7_mRSt8optionalINS1_15EvaluationCacheEERT0_RKSF_INSt6chrono10time_pointINSL_3_V212steady_clockENSL_8durationIlSt5ratioILl1ELl1000000000EEEEEEEEUlmmE_EONSt16remove_referenceISC_E4typeEOSC_
FN:97,98,_ZSt4moveIRZN4givp6detail28bidirectional_path_relinkingIZL23CATCH2_INTERNAL_TEST_40vEUlRKSt6vectorIdSaIdEEE_NS1_3RngEEESt4pairIS5_dERKT_S7_S7_mRSt8optionalINS1_15EvaluationCacheEERT0_RKSF_INSt6chrono10time_pointINSL_3_V212steady_clockENSL_8durationIlSt5ratioILl1ELl1000000000EEEEEEEEUlmmE_EONSt16remove_referenceISC_E4typeEOSC_
FN:97,98,_ZSt4moveIRZN4givp6detail28bidirectional_path_relinkingIZNS1_3runIRFdRKSt6vectorIdSaIdEEEEENS0_14OptimizeResultEOT_RKS4_ISt4pairIddESaISF_EENS0_10GivpConfigEEUlS8_E_NS1_3RngEEESE_IS6_dERKSC_S8_S8_mRSt8optionalINS1_15EvaluationCacheEERT0_RKSQ_INSt6chrono10time_pointINSW_3_V212steady_clockENSW_8durationIlSt5ratioILl1ELl1000000000EEEEEEEEUlmmE_EONSt16remove_referenceISC_E4typeESD_
FN:97,98,_ZSt4moveIRZN4givp6detail28bidirectional_path_relinkingIZNS1_3runIRZL22CATCH2_INTERNAL_TEST_6vEUlRKSt6vectorIdSaIdEEE_EENS0_14OptimizeResultEOT_RKS4_ISt4pairIddESaISF_EENS0_10GivpConfigEEUlS8_E_NS1_3RngEEESE_IS6_dERKSC_S8_S8_mRSt8optionalINS1_15EvaluationCacheEERT0_RKSQ_INSt6chrono10time_pointINSW_3_V212steady_clockENSW_8durationIlSt5ratioILl1ELl1000000000EEEEEEEEUlmmE_EONSt16remove_referenceISC_E4typeESD_
FN:97,98,_ZSt4moveIRZN4givp6detail28bidirectional_path_relinkingIZNS1_3runIRZL22CATCH2_INTERNAL_TEST_8vEUlRKSt6vectorIdSaIdEEE_EENS0_14OptimizeResultEOT_RKS4_ISt4pairIddESaISF_EENS0_10GivpConfigEEUlS8_E_NS1_3RngEEESE_IS6_dERKSC_S8_S8_mRSt8optionalINS1_15EvaluationCacheEERT0_RKSQ_INSt6chrono10time_pointINSW_3_V212steady_clockENSW_8durationIlSt5ratioILl1ELl1000000000EEEEEEEEUlmmE_EONSt16remove_referenceISC_E4typeESD_
FN:97,98,_ZSt4moveIRZN4givp6detail28bidirectional_path_relinkingIZNS1_3runIRZL23CATCH2_INTERNAL_TEST_12vEUlRKSt6vectorIdSaIdEEE_EENS0_14OptimizeResultEOT_RKS4_ISt4pairIddESaISF_EENS0_10GivpConfigEEUlS8_E_NS1_3RngEEESE_IS6_dERKSC_S8_S8_mRSt8optionalINS1_15EvaluationCacheEERT0_RKSQ_INSt6chrono10time_pointINSW_3_V212steady_clockENSW_8durationIlSt5ratioILl1ELl1000000000EEEEEEEEUlmmE_EONSt16remove_referenceISC_E4typeESD_
FN:97,98,_ZSt4moveIRZN4givp6detail28bidirectional_path_relinkingIZNS1_3runIRZL23CATCH2_INTERNAL_TEST_14vEUlRKSt6vectorIdSaIdEEE_EENS0_14OptimizeResultEOT_RKS4_ISt4pairIddESaISF_EENS0_10GivpConfigEEUlS8_E_NS1_3RngEEESE_IS6_dERKSC_S8_S8_mRSt8optionalINS1_15EvaluationCacheEERT0_RKSQ_INSt6chrono10time_pointINSW_3_V212steady_clockENSW_8durationIlSt5ratioILl1ELl1000000000EEEEEEEEUlmmE_EONSt16remove_referenceISC_E4typeESD_
FN:97,98,_ZSt4moveIRZN4givp6detail28bidirectional_path_relinkingIZNS1_3runIRZL23CATCH2_INTERNAL_TEST_16vEUlRKSt6vectorIdSaIdEEE_EENS0_14OptimizeResultEOT_RKS4_ISt4pairIddESaISF_EENS0_10GivpConfigEEUlS8_E_NS1_3RngEEESE_IS6_dERKSC_S8_S8_mRSt8optionalINS1_15EvaluationCacheEERT0_RKSQ_INSt6chrono10time_pointINSW_3_V212steady_clockENSW_8durationIlSt5ratioILl1ELl1000000000EEEEEEEEUlmmE_EONSt16remove_referenceISC_E4typeESD_
FN:97,98,_ZSt4moveIRZN4givp6detail28bidirectional_path_relinkingIZNS1_3runIRZL23CATCH2_INTERNAL_TEST_28vEUlRKSt6vectorIdSaIdEEE_EENS0_14OptimizeResultEOT_RKS4_ISt4pairIddESaISF_EENS0_10GivpConfigEEUlS8_E_NS1_3RngEEESE_IS6_dERKSC_S8_S8_mRSt8optionalINS1_15EvaluationCacheEERT0_RKSQ_INSt6chrono10time_pointINSW_3_V212steady_clockENSW_8durationIlSt5ratioILl1ELl1000000000EEEEEEEEUlmmE_EONSt16remove_referenceISC_E4typeESD_
FN:97,98,_ZSt4moveIRZN4givp6detail28bidirectional_path_relinkingIZNS1_3runIRZL23CATCH2_INTERNAL_TEST_42vEUlRKSt6vectorIdSaIdEEE_EENS0_14OptimizeResultEOT_RKS4_ISt4pairIddESaISF_EENS0_10GivpConfigEEUlS8_E_NS1_3RngEEESE_IS6_dERKSC_S8_S8_mRSt8optionalINS1_15EvaluationCacheEERT0_RKSQ_INSt6chrono10time_pointINSW_3_V212steady_clockENSW_8durationIlSt5ratioILl1ELl1000000000EEEEEEEEUlmmE_EONSt16remove_referenceISC_E4typeESD_
FN:97,98,_ZSt4moveIRZN4givp6detail28bidirectional_path_relinkingIZNS1_3runIRZL23CATCH2_INTERNAL_TEST_44vEUlRKSt6vectorIdSaIdEEE_EENS0_14OptimizeResultEOT_RKS4_ISt4pairIddESaISF_EENS0_10GivpConfigEEUlS8_E_NS1_3RngEEESE_IS6_dERKSC_S8_S8_mRSt8optionalINS1_15EvaluationCacheEERT0_RKSQ_INSt6chrono10time_pointINSW_3_V212steady_clockENSW_8durationIlSt5ratioILl1ELl1000000000EEEEEEEEUlmmE_EONSt16remove_referenceISC_E4typeESD_
FN:97,98,_ZSt4moveIRZN4givp6detail28bidirectional_path_relinkingIZNS1_3runIZL23CATCH2_INTERNAL_TEST_16vEUlRKSt6vectorIdSaIdEEE_EENS0_14OptimizeResultEOT_RKS4_ISt4pairIddESaISE_EENS0_10GivpConfigEEUlS8_E_NS1_3RngEEESD_IS6_dERKSB_S8_S8_mRSt8optionalINS1_15EvaluationCacheEERT0_RKSP_INSt6chrono10time_pointINSV_3_V212steady_clockENSV_8durationIlSt5ratioILl1ELl1000000000EEEEEEEEUlmmE_EONSt16remove_referenceISB_E4typeESC_
FN:97,98,_ZSt4moveIRZN4givp6detail28bidirectional_path_relinkingIZNS1_3runIZL23CATCH2_INTERNAL_TEST_18vEUlRKSt6vectorIdSaIdEEE_EENS0_14OptimizeResultEOT_RKS4_ISt4pairIddESaISE_EENS0_10GivpConfigEEUlS8_E_NS1_3RngEEESD_IS6_dERKSB_S8_S8_mRSt8optionalINS1_15EvaluationCacheEERT0_RKSP_INSt6chrono10time_pointINSV_3_V212steady_clockENSV_8durationIlSt5ratioILl1ELl1000000000EEEEEEEEUlmmE_EONSt16remove_referenceISB_E4typeESC_
FN:97,98,_ZSt4moveIRZN4givp6detail28bidirectional_path_relinkingIZNS1_3runIZL23CATCH2_INTERNAL_TEST_20vEUlRKSt6vectorIdSaIdEEE_EENS0_14OptimizeResultEOT_RKS4_ISt4pairIddESaISE_EENS0_10GivpConfigEEUlS8_E_NS1_3RngEEESD_IS6_dERKSB_S8_S8_mRSt8optionalINS1_15EvaluationCacheEERT0_RKSP_INSt6chrono10time_pointINSV_3_V212steady_clockENSV_8durationIlSt5ratioILl1ELl1000000000EEEEEEEEUlmmE_EONSt16remove_referenceISB_E4typeESC_
FN:97,98,_ZSt4moveIRZN4givp6detail28bidirectional_path_relinkingIZNS1_3runIZL23CATCH2_INTERNAL_TEST_22vEUlRKSt6vectorIdSaIdEEE_EENS0_14OptimizeResultEOT_RKS4_ISt4pairIddESaISE_EENS0_10GivpConfigEEUlS8_E_NS1_3RngEEESD_IS6_dERKSB_S8_S8_mRSt8optionalINS1_15EvaluationCacheEERT0_RKSP_INSt6chrono10time_pointINSV_3_V212steady_clockENSV_8durationIlSt5ratioILl1ELl1000000000EEEEEEEEUlmmE_EONSt16remove_referenceISB_E4typeESC_
FN:97,98,_ZSt4moveIRZN4givp6detail28bidirectional_path_relinkingIZNS1_3runIZL23CATCH2_INTERNAL_TEST_24vEUlRKSt6vectorIdSaIdEEE_EENS0_14OptimizeResultEOT_RKS4_ISt4pairIddESaISE_EENS0_10GivpConfigEEUlS8_E_NS1_3RngEEESD_IS6_dERKSB_S8_S8_mRSt8optionalINS1_15EvaluationCacheEERT0_RKSP_INSt6chrono10time_pointINSV_3_V212steady_clockENSV_8durationIlSt5ratioILl1ELl1000000000EEEEEEEEUlmmE_EONSt16remove_referenceISB_E4typeESC_
FN:97,98,_ZSt4moveIRZN4givp6detail9ElitePool3addESt6vectorIdSaIdEEdEUlRKT_RKT0_E0_EONSt16remove_referenceIS6_E4typeEOS6_
FN:97,98,_ZSt4moveIRZN4givp6detail9ElitePool3addESt6vectorIdSaIdEEdEUlRKT_RKT0_E_EONSt16remove_referenceIS6_E4typeEOS6_
FN:97,98,_ZSt4moveIRZN4givp6detailL17neighborhood_flipIZNS1_3runIRFdRKSt6vectorIdSaIdEEEEENS0_14OptimizeResultEOT_RKS4_ISt4pairIddESaISF_EENS0_10GivpConfigEEUlS8_E_NS1_3RngEEESE_IdbERS6_dRKSC_SO_RT0_S8_S8_RSt8optionalINS1_15EvaluationCacheEEmRKST_INSt6chrono10time_pointINSX_3_V212steady_clockENSX_8durationIlSt5ratioILl1ELl1000000000EEEEEEEEUlmmE_EONSt16remove_referenceISC_E4typeESD_
FN:97,98,_ZSt4moveIRZN4givp6detailL17neighborhood_flipIZNS1_3runIRZL22CATCH2_INTERNAL_TEST_6vEUlRKSt6vectorIdSaIdEEE_EENS0_14OptimizeResultEOT_RKS4_ISt4pairIddESaISF_EENS0_10GivpConfigEEUlS8_E_NS1_3RngEEESE_IdbERS6_dRKSC_SO_RT0_S8_S8_RSt8optionalINS1_15EvaluationCacheEEmRKST_INSt6chrono10time_pointINSX_3_V212steady_clockENSX_8durationIlSt5ratioILl1ELl1000000000EEEEEEEEUlmmE_EONSt16remove_referenceISC_E4typeESD_
FN:97,98,_ZSt4moveIRZN4givp6detailL17neighborhood_flipIZNS1_3runIRZL22CATCH2_INTERNAL_TEST_8vEUlRKSt6vectorIdSaIdEEE_EENS0_14OptimizeResultEOT_RKS4_ISt4pairIddESaISF_EENS0_10GivpConfigEEUlS8_E_NS1_3RngEEESE_IdbERS6_dRKSC_SO_RT0_S8_S8_RSt8optionalINS1_15EvaluationCacheEEmRKST_INSt6chrono10time_pointINSX_3_V212steady_clockENSX_8durationIlSt5ratioILl1ELl1000000000EEEEEEEEUlmmE_EONSt16remove_referenceISC_E4typeESD_
FN:97,98,_ZSt4moveIRZN4givp6detailL17neighborhood_flipIZNS1_3runIRZL23CATCH2_INTERNAL_TEST_12vEUlRKSt6vectorIdSaIdEEE_EENS0_14OptimizeResultEOT_RKS4_ISt4pairIddESaISF_EENS0_10GivpConfigEEUlS8_E_NS1_3RngEEESE_IdbERS6_dRKSC_SO_RT0_S8_S8_RSt8optionalINS1_15EvaluationCacheEEmRKST_INSt6chrono10time_pointINSX_3_V212steady_clockENSX_8durationIlSt5ratioILl1ELl1000000000EEEEEEEEUlmmE_EONSt16remove_referenceISC_E4typeESD_
FN:97,98,_ZSt4moveIRZN4givp6detailL17neighborhood_flipIZNS1_3runIRZL23CATCH2_INTERNAL_TEST_14vEUlRKSt6vectorIdSaIdEEE_EENS0_14OptimizeResultEOT_RKS4_ISt4pairIddESaISF_EENS0_10GivpConfigEEUlS8_E_NS1_3RngEEESE_IdbERS6_dRKSC_SO_RT0_S8_S8_RSt8optionalINS1_15EvaluationCacheEEmRKST_INSt6chrono10time_pointINSX_3_V212steady_clockENSX_8durationIlSt5ratioILl1ELl1000000000EEEEEEEEUlmmE_EONSt16remove_referenceISC_E4typeESD_
FN:97,98,_ZSt4moveIRZN4givp6detailL17neighborhood_flipIZNS1_3runIRZL23CATCH2_INTERNAL_TEST_16vEUlRKSt6vectorIdSaIdEEE_EENS0_14OptimizeResultEOT_RKS4_ISt4pairIddESaISF_EENS0_10GivpConfigEEUlS8_E_NS1_3RngEEESE_IdbERS6_dRKSC_SO_RT0_S8_S8_RSt8optionalINS1_15EvaluationCacheEEmRKST_INSt6chrono10time_pointINSX_3_V212steady_clockENSX_8durationIlSt5ratioILl1ELl1000000000EEEEEEEEUlmmE_EONSt16remove_referenceISC_E4typeESD_
FN:97,98,_ZSt4moveIRZN4givp6detailL17neighborhood_flipIZNS1_3runIRZL23CATCH2_INTERNAL_TEST_28vEUlRKSt6vectorIdSaIdEEE_EENS0_14OptimizeResultEOT_RKS4_ISt4pairIddESaISF_EENS0_10GivpConfigEEUlS8_E_NS1_3RngEEESE_IdbERS6_dRKSC_SO_RT0_S8_S8_RSt8optionalINS1_15EvaluationCacheEEmRKST_INSt6chrono10time_pointINSX_3_V212steady_clockENSX_8durationIlSt5ratioILl1ELl1000000000EEEEEEEEUlmmE_EONSt16remove_referenceISC_E4typeESD_
FN:97,98,_ZSt4moveIRZN4givp6detailL17neighborhood_flipIZNS1_3runIRZL23CATCH2_INTERNAL_TEST_42vEUlRKSt6vectorIdSaIdEEE_EENS0_14OptimizeResultEOT_RKS4_ISt4pairIddESaISF_EENS0_10GivpConfigEEUlS8_E_NS1_3RngEEESE_IdbERS6_dRKSC_SO_RT0_S8_S8_RSt8optionalINS1_15EvaluationCacheEEmRKST_INSt6chrono10time_pointINSX_3_V212steady_clockENSX_8durationIlSt5ratioILl1ELl1000000000EEEEEEEEUlmmE_EONSt16remove_referenceISC_E4typeESD_
FN:97,98,_ZSt4moveIRZN4givp6detailL17neighborhood_flipIZNS1_3runIRZL23CATCH2_INTERNAL_TEST_44vEUlRKSt6vectorIdSaIdEEE_EENS0_14OptimizeResultEOT_RKS4_ISt4pairIddESaISF_EENS0_10GivpConfigEEUlS8_E_NS1_3RngEEESE_IdbERS6_dRKSC_SO_RT0_S8_S8_RSt8optionalINS1_15EvaluationCacheEEmRKST_INSt6chrono10time_pointINSX_3_V212steady_clockENSX_8durationIlSt5ratioILl1ELl1000000000EEEEEEEEUlmmE_EONSt16remove_referenceISC_E4typeESD_
FN:97,98,_ZSt4moveIRZN4givp6detailL17neighborhood_flipIZNS1_3runIZL23CATCH2_INTERNAL_TEST_16vEUlRKSt6vectorIdSaIdEEE_EENS0_14OptimizeResultEOT_RKS4_ISt4pairIddESaISE_EENS0_10GivpConfigEEUlS8_E_NS1_3RngEEESD_IdbERS6_dRKSB_SN_RT0_S8_S8_RSt8optionalINS1_15EvaluationCacheEEmRKSS_INSt6chrono10time_pointINSW_3_V212steady_clockENSW_8durationIlSt5ratioILl1ELl1000000000EEEEEEEEUlmmE_EONSt16remove_referenceISB_E4typeESC_
FN:97,98,_ZSt4moveIRZN4givp6detailL17neighborhood_flipIZNS1_3runIZL23CATCH2_INTERNAL_TEST_18vEUlRKSt6vectorIdSaIdEEE_EENS0_14OptimizeResultEOT_RKS4_ISt4pairIddESaISE_EENS0_10GivpConfigEEUlS8_E_NS1_3RngEEESD_IdbERS6_dRKSB_SN_RT0_S8_S8_RSt8optionalINS1_15EvaluationCacheEEmRKSS_INSt6chrono10time_pointINSW_3_V212steady_clockENSW_8durationIlSt5ratioILl1ELl1000000000EEEEEEEEUlmmE_EONSt16remove_referenceISB_E4typeESC_
FN:97,98,_ZSt4moveIRZN4givp6detailL17neighborhood_flipIZNS1_3runIZL23CATCH2_INTERNAL_TEST_20vEUlRKSt6vectorIdSaIdEEE_EENS0_14OptimizeResultEOT_RKS4_ISt4pairIddESaISE_EENS0_10GivpConfigEEUlS8_E_NS1_3RngEEESD_IdbERS6_dRKSB_SN_RT0_S8_S8_RSt8optionalINS1_15EvaluationCacheEEmRKSS_INSt6chrono10time_pointINSW_3_V212steady_clockENSW_8durationIlSt5ratioILl1ELl1000000000EEEEEEEEUlmmE_EONSt16remove_referenceISB_E4typeESC_
FN:97,98,_ZSt4moveIRZN4givp6detailL17neighborhood_flipIZNS1_3runIZL23CATCH2_INTERNAL_TEST_22vEUlRKSt6vectorIdSaIdEEE_EENS0_14OptimizeResultEOT_RKS4_ISt4pairIddESaISE_EENS0_10GivpConfigEEUlS8_E_NS1_3RngEEESD_IdbERS6_dRKSB_SN_RT0_S8_S8_RSt8optionalINS1_15EvaluationCacheEEmRKSS_INSt6chrono10time_pointINSW_3_V212steady_clockENSW_8durationIlSt5ratioILl1ELl1000000000EEEEEEEEUlmmE_EONSt16remove_referenceISB_E4typeESC_
FN:97,98,_ZSt4moveIRZN4givp6detailL17neighborhood_flipIZNS1_3runIZL23CATCH2_INTERNAL_TEST_24vEUlRKSt6vectorIdSaIdEEE_EENS0_14OptimizeResultEOT_RKS4_ISt4pairIddESaISE_EENS0_10GivpConfigEEUlS8_E_NS1_3RngEEESD_IdbERS6_dRKSB_SN_RT0_S8_S8_RSt8optionalINS1_15EvaluationCacheEEmRKSS_INSt6chrono10time_pointINSW_3_V212steady_clockENSW_8durationIlSt5ratioILl1ELl1000000000EEEEEEEEUlmmE_EONSt16remove_referenceISB_E4typeESC_
FN:97,98,_ZSt4moveIRZN5Catch12_GLOBAL__N_111fileNameTagERKSt6vectorINS0_3TagESaIS3_EEEUlRKS3_E_EONSt16remove_referenceIT_E4typeEOSD_
FN:97,98,_ZSt4moveIRZN5Catch16TestCaseTracking11TrackerBase5closeEvEUlRKNS0_6Detail10unique_ptrINS1_8ITrackerEEEE_EONSt16remove_referenceIT_E4typeEOSC_
FN:97,98,_ZSt4moveIRZN5Catch16TestCaseTracking8ITracker9findChildERKNS1_18NameAndLocationRefEEUlRKNS0_6Detail10unique_ptrIS2_EEE_EONSt16remove_referenceIT_E4typeEOSE_
FN:97,98,_ZSt4moveIRZN5Catch20defaultListListenersERSoRKSt6vectorINS0_19ListenerDescriptionESaIS3_EEEUlRKS3_S9_E_EONSt16remove_referenceIT_E4typeEOSD_
FN:97,98,_ZSt4moveIRZN5Catch20defaultListReportersERSoRKSt6vectorINS0_19ReporterDescriptionESaIS3_EENS0_9VerbosityEEUlRKS3_SA_E_EONSt16remove_referenceIT_E4typeEOSE_
FN:97,98,_ZSt4moveIRZN5Catch9sortTestsERKNS0_7IConfigERKSt6vectorINS0_14TestCaseHandleESaIS5_EEEUlRKS5_SB_E_EONSt16remove_referenceIT_E4typeEOSF_
FN:97,98,_ZSt4moveIRZN5Catch9sortTestsERKNS0_7IConfigERKSt6vectorINS0_14TestCaseHandleESaIS5_EEEUlRKSt4pairImS5_ESD_E_EONSt16remove_referenceIT_E4typeEOSH_
FN:97,98,_ZSt4moveIRZNK5Catch22CumulativeReporterBase11SectionNode16hasAnyAssertionsEvEUlRKNS0_6Detail26AssertionOrBenchmarkResultEE_EONSt16remove_referenceIT_E4typeEOSA_
FN:97,98,_ZSt4moveIRZNK5Catch5Clara6Parser5parseERKNSt7__cxx1112basic_stringIcSt11char_traitsIcESaIcEEENS1_6Detail11TokenStreamEE10ParserInfoEONSt16remove_referenceIT_E4typeEOSG_
FN:97,98,_ZSt4moveIRZNK5Catch6Detail19CaseInsensitiveLessclENS0_9StringRefES3_EUlccE_EONSt16remove_referenceIT_E4typeEOS7_
FN:97,98,_ZSt4moveIRZNK5Catch8TestSpec7matchesERKNS0_12TestCaseInfoEEUlRKNS1_6FilterEE_EONSt16remove_referenceIT_E4typeEOSB_
FN:97,98,_ZSt4moveIRZZN5Catch10Generators12_GLOBAL__N_116GeneratorTracker5closeEvENKUlvE_clEvEUlRKNS0_6Detail10unique_ptrINS0_16TestCaseTracking8ITrackerEEEE_EONSt16remove_referenceIT_E4typeEOSF_
FN:97,98,_ZSt4moveIRbEONSt16remove_referenceIT_E4typeEOS2_
FN:97,98,_ZSt4moveIRcEONSt16remove_referenceIT_E4typeEOS2_
FN:97,98,_ZSt4moveIRdEONSt16remove_referenceIT_E4typeEOS2_
FN:97,98,_ZSt4moveIRlEONSt16remove_referenceIT_E4typeEOS2_
FN:97,98,_ZSt4moveIRmEONSt16remove_referenceIT_E4typeEOS2_
FNDA:0,_ZSt9addressofINSt8__detail10_Hash_nodeISt4pairIKNSt7__cxx1112basic_stringIcSt11char_traitsIcESaIcEEES8_ELb1EEEEPT_RSC_
FNDA:287613466,_ZSt9addressofINSt8__detail10_Hash_nodeISt4pairIKmdELb0EEEEPT_RS6_
FNDA:150,_ZSt9addressofIPNSt8__detail15_Hash_node_baseEEPT_RS3_
FNDA:0,_ZSt4swapIN5Catch14TestCaseHandleEENSt9enable_ifIXsrSt6__and_IJSt6__not_ISt15__is_tuple_likeIT_EESt21is_move_constructibleIS6_ESt18is_move_assignableIS6_EEE5valueEvE4typeERS6_SG_
FNDA:0,_ZSt4swapIN5Catch3TagEENSt9enable_ifIXsrSt6__and_IJSt6__not_ISt15__is_tuple_likeIT_EESt21is_move_constructibleIS6_ESt18is_move_assignableIS6_EEE5valueEvE4typeERS6_SG_
FNDA:0,_ZSt4swapIN5Catch6Colour4CodeEENSt9enable_ifIXsrSt6__and_IJSt6__not_ISt15__is_tuple_likeIT_EESt21is_move_constructibleIS7_ESt18is_move_assignableIS7_EEE5valueEvE4typeERS7_SH_
FNDA:0,_ZSt4swapIPFbRKSt9_Any_dataOcEENSt9enable_ifIXsrSt6__and_IJSt6__not_ISt15__is_tuple_likeIT_EESt21is_move_constructibleISA_ESt18is_move_assignableISA_EEE5valueEvE4typeERSA_SK_
FNDA:0,_ZSt4swapIPFbRSt9_Any_dataRKS0_St18_Manager_operationEENSt9enable_ifIXsrSt6__and_IJSt6__not_ISt15__is_tuple_likeIT_EESt21is_move_constructibleISB_ESt18is_move_assignableISB_EEE5valueEvE4typeERSB_SL_
FNDA:0,_ZSt4swapIPKN5Catch10ColourImplEENSt9enable_ifIXsrSt6__and_IJSt6__not_ISt15__is_tuple_likeIT_EESt21is_move_constructibleIS8_ESt18is_move_assignableIS8_EEE5valueEvE4typeERS8_SI_
FNDA:0,_ZSt4swapIPKNSt8__detail4_NFAINSt7__cxx1112regex_traitsIcEEEEENSt9enable_ifIXsrSt6__and_IJSt6__not_ISt15__is_tuple_likeIT_EESt21is_move_constructibleISC_ESt18is_move_assignableISC_EEE5valueEvE4typeERSC_SM_
FNDA:612,_ZSt4swapIPN5Catch5Clara6Detail17BoundValueRefBaseEENSt9enable_ifIXsrSt6__and_IJSt6__not_ISt15__is_tuple_likeIT_EESt21is_move_constructibleIS9_ESt18is_move_assignableIS9_EEE5valueEvE4typeERS9_SJ_
FNDA:0,_ZSt4swapIPN5Catch5Clara6Detail8BoundRefEENSt9enable_ifIXsrSt6__and_IJSt6__not_ISt15__is_tuple_likeIT_EESt21is_move_constructibleIS9_ESt18is_move_assignableIS9_EEE5valueEvE4typeERS9_SJ_
FNDA:306,_ZSt4swapIPNSt7__cxx1112basic_stringIcSt11char_traitsIcESaIcEEEENSt9enable_ifIXsrSt6__and_IJSt6__not_ISt15__is_tuple_likeIT_EESt21is_move_constructibleISB_ESt18is_move_assignableISB_EEE5valueEvE4typeERSB_SL_
FNDA:0,_ZSt4swapISt6localeENSt9enable_ifIXsrSt6__and_IJSt6__not_ISt15__is_tuple_likeIT_EESt21is_move_constructibleIS5_ESt18is_move_assignableIS5_EEE5valueEvE4typeERS5_SF_
FNDA:0,_ZSt4swapISt9_Any_dataENSt9enable_ifIXsrSt6__and_IJSt6__not_ISt15__is_tuple_likeIT_EESt21is_move_constructibleIS5_ESt18is_move_assignableIS5_EEE5valueEvE4typeERS5_SF_
FNDA:0,_ZSt4swapIbENSt9enable_ifIXsrSt6__and_IJSt6__not_ISt15__is_tuple_likeIT_EESt21is_move_constructibleIS4_ESt18is_move_assignableIS4_EEE5valueEvE4typeERS4_SE_
FNDA:0,_ZSt4swapIcENSt9enable_ifIXsrSt6__and_IJSt6__not_ISt15__is_tuple_likeIT_EESt21is_move_constructibleIS4_ESt18is_move_assignableIS4_EEE5valueEvE4typeERS4_SE_
FNDA:0,_ZSt4swapIdENSt9enable_ifIXsrSt6__and_IJSt6__not_ISt15__is_tuple_likeIT_EESt21is_move_constructibleIS4_ESt18is_move_assignableIS4_EEE5valueEvE4typeERS4_SE_
FNDA:0,_ZSt4swapIlENSt9enable_ifIXsrSt6__and_IJSt6__not_ISt15__is_tuple_likeIT_EESt21is_move_constructibleIS4_ESt18is_move_assignableIS4_EEE5valueEvE4typeERS4_SE_
FNDA:770164547,_ZSt4swapImENSt9enable_ifIXsrSt6__and_IJSt6__not_ISt15__is_tuple_likeIT_EESt21is_move_constructibleIS4_ESt18is_move_assignableIS4_EEE5valueEvE4typeERS4_SE_
FNDA:0,_ZSt11__addressofIKNSt8__detail11_AnyMatcherINSt7__cxx1112regex_traitsIcEELb0ELb0ELb0EEEEPT_RS7_
FNDA:0,_ZSt11__addressofIKNSt8__detail11_AnyMatcherINSt7__cxx1112regex_traitsIcEELb0ELb0ELb1EEEEPT_RS7_
FNDA:0,_ZSt11__addressofIKNSt8__detail11_AnyMatcherINSt7__cxx1112regex_traitsIcEELb0ELb1ELb0EEEEPT_RS7_
FNDA:0,_ZSt11__addressofIKNSt8__detail11_AnyMatcherINSt7__cxx1112regex_traitsIcEELb0ELb1ELb1EEEEPT_RS7_
FNDA:0,_ZSt11__addressofIKNSt8__detail11_AnyMatcherINSt7__cxx1112regex_traitsIcEELb1ELb0ELb0EEEEPT_RS7_
FNDA:0,_ZSt11__addressofIKNSt8__detail11_AnyMatcherINSt7__cxx1112regex_traitsIcEELb1ELb0ELb1EEEEPT_RS7_
FNDA:0,_ZSt11__addressofIKNSt8__detail11_AnyMatcherINSt7__cxx1112regex_traitsIcEELb1ELb1ELb0EEEEPT_RS7_
FNDA:0,_ZSt11__addressofIKNSt8__detail11_AnyMatcherINSt7__cxx1112regex_traitsIcEELb1ELb1ELb1EEEEPT_RS7_
FNDA:0,_ZSt11__addressofIKNSt8__detail12_CharMatcherINSt7__cxx1112regex_traitsIcEELb0ELb0EEEEPT_RS7_
FNDA:0,_ZSt11__addressofIKNSt8__detail12_CharMatcherINSt7__cxx1112regex_traitsIcEELb0ELb1EEEEPT_RS7_
FNDA:0,_ZSt11__addressofIKNSt8__detail12_CharMatcherINSt7__cxx1112regex_traitsIcEELb1ELb0EEEEPT_RS7_
FNDA:0,_ZSt11__addressofIKNSt8__detail12_CharMatcherINSt7__cxx1112regex_traitsIcEELb1ELb1EEEEPT_RS7_
FNDA:0,_ZSt11__addressofIKSt6vectorIN5Catch12ReporterSpecESaIS2_EEEPT_RS6_
FNDA:0,_ZSt11__addressofIKSt6vectorIN5Catch5Clara3ArgESaIS3_EEEPT_RS7_
FNDA:0,_ZSt11__addressofIKSt6vectorIN5Catch5Clara3OptESaIS3_EEEPT_RS7_
FNDA:0,_ZSt11__addressofIKSt6vectorIN5Catch9StringRefESaIS2_EEEPT_RS6_
FNDA:0,_ZSt11__addressofIKSt6vectorINSt7__cxx1112basic_stringIcSt11char_traitsIcESaIcEEESaIS6_EEEPT_RSA_
FNDA:0,_ZSt11__addressofIKSt6vectorINSt7__cxx119sub_matchIN9__gnu_cxx17__normal_iteratorIPKcNS1_12basic_stringIcSt11char_traitsIcESaIcEEEEEEESaISD_EEEPT_RSH_
FNDA:278576528,_ZSt11__addressofIKSt6vectorIdSaIdEEEPT_RS4_
FNDA:0,_ZSt11__addressofIKSt8_Rb_treeINSt7__cxx1112basic_stringIcSt11char_traitsIcESaIcEEESt4pairIKS6_S6_ESt10_Select1stIS9_ESt4lessIS6_ESaIS9_EEEPT_RSH_
FNDA:643820834,_ZSt11__addressofIN4givp6detail15EvaluationCacheEEPT_RS3_
FNDA:2115,_ZSt11__addressofIN4givp6detail18ConvergenceMonitorEEPT_RS3_
FNDA:2440,_ZSt11__addressofIN5Catch10ColumnInfoEEPT_RS2_
FNDA:0,_ZSt11__addressofIN5Catch11MessageInfoEEPT_RS2_
FNDA:0,_ZSt11__addressofIN5Catch11SectionInfoEEPT_RS2_
FNDA:308,_ZSt11__addressofIN5Catch12ReporterSpecEEPT_RS2_
FNDA:0,_ZSt11__addressofIN5Catch12_GLOBAL__N_113SummaryColumnEEPT_RS3_
FNDA:0,_ZSt11__addressofIN5Catch13ScopedMessageEEPT_RS2_
FNDA:0,_ZSt11__addressofIN5Catch14SectionEndInfoEEPT_RS2_
FNDA:76561,_ZSt11__addressofIN5Catch14TestCaseHandleEEPT_RS2_
FNDA:0,_ZSt11__addressofIN5Catch15JsonArrayWriterEEPT_RS2_
FNDA:0,_ZSt11__addressofIN5Catch16JsonObjectWriterEEPT_RS2_
FNDA:0,_ZSt11__addressofIN5Catch19ListenerDescriptionEEPT_RS2_
FNDA:0,_ZSt11__addressofIN5Catch19ReporterDescriptionEEPT_RS2_
FNDA:306,_ZSt11__addressofIN5Catch21ProcessedReporterSpecEEPT_RS2_
FNDA:0,_ZSt11__addressofIN5Catch3TagEEPT_RS2_
FNDA:306,_ZSt11__addressofIN5Catch5Clara3ArgEEPT_RS3_
FNDA:68544,_ZSt11__addressofIN5Catch5Clara3OptEEPT_RS3_
FNDA:0,_ZSt11__addressofIN5Catch5Clara6Detail11HelpColumnsEEPT_RS4_
FNDA:0,_ZSt11__addressofIN5Catch5Clara6Detail5TokenEEPT_RS4_
FNDA:0,_ZSt11__addressofIN5Catch6Detail10unique_ptrIKNS0_20IExceptionTranslatorEEEEPT_RS6_
FNDA:76500,_ZSt11__addressofIN5Catch6Detail10unique_ptrINS0_12ITestInvokerEEEEPT_RS5_
FNDA:76500,_ZSt11__addressofIN5Catch6Detail10unique_ptrINS0_12TestCaseInfoEEEEPT_RS5_
FNDA:0,_ZSt11__addressofIN5Catch6Detail10unique_ptrINS0_14IEventListenerEEEEPT_RS5_
FNDA:305,_ZSt11__addressofIN5Catch6Detail10unique_ptrINS0_16TestCaseTracking8ITrackerEEEEPT_RS6_
FNDA:0,_ZSt11__addressofIN5Catch6Detail10unique_ptrINS0_20EventListenerFactoryEEEEPT_RS5_
FNDA:0,_ZSt11__addressofIN5Catch6Detail10unique_ptrINS0_22CumulativeReporterBase11SectionNodeEEEEPT_RS6_
FNDA:0,_ZSt11__addressofIN5Catch6Detail10unique_ptrINS0_22CumulativeReporterBase4NodeINS0_13TestCaseStatsENS3_11SectionNodeEEEEEEPT_RS9_
FNDA:305,_ZSt11__addressofIN5Catch6Detail10unique_ptrINS0_8TestSpec7PatternEEEEPT_RS6_
FNDA:0,_ZSt11__addressofIN5Catch6Detail10unique_ptrINS1_8EnumInfoEEEEPT_RS5_
FNDA:1525,_ZSt11__addressofIN5Catch6Detail10unique_ptrINSt7__cxx1119basic_ostringstreamIcSt11char_traitsIcESaIcEEEEEEPT_RSA_
FNDA:0,_ZSt11__addressofIN5Catch6Detail26AssertionOrBenchmarkResultEEPT_RS3_
FNDA:0,_ZSt11__addressofIN5Catch7TagInfoEEPT_RS2_
FNDA:305,_ZSt11__addressofIN5Catch8TestSpec11FilterMatchEEPT_RS3_
FNDA:305,_ZSt11__addressofIN5Catch8TestSpec6FilterEEPT_RS3_
FNDA:0,_ZSt11__addressofIN5Catch8TextFlow6Column14const_iteratorEEPT_RS4_
FNDA:0,_ZSt11__addressofIN5Catch8TextFlow6ColumnEEPT_RS3_
FNDA:18668,_ZSt11__addressofIN5Catch9StringRefEEPT_RS2_
FNDA:0,_ZSt11__addressofINSt15__exception_ptr13exception_ptrEEPT_RS2_
FNDA:5,_ZSt11__addressofINSt6chrono10time_pointINS0_3_V212steady_clockENS0_8durationIlSt5ratioILl1ELl1000000000EEEEEEEPT_RS9_
FNDA:1221,_ZSt11__addressofINSt7__cxx1112basic_stringIcSt11char_traitsIcESaIcEEEEPT_RS6_
FNDA:0,_ZSt11__addressofINSt7__cxx1112regex_traitsIcE10_RegexMaskEEPT_RS4_
FNDA:0,_ZSt11__addressofINSt7__cxx119sub_matchIN9__gnu_cxx17__normal_iteratorIPKcNS0_12basic_stringIcSt11char_traitsIcESaIcEEEEEEEEPT_RSD_
FNDA:0,_ZSt11__addressofINSt8__detail10_Hash_nodeISt4pairIKNSt7__cxx1112basic_stringIcSt11char_traitsIcESaIcEEES8_ELb1EEEEPT_RSC_
FNDA:287613466,_ZSt11__addressofINSt8__detail10_Hash_nodeISt4pairIKmdELb0EEEEPT_RS6_
FNDA:0,_ZSt11__addressofINSt8__detail6_StateIcEEEPT_RS3_
FNDA:150,_ZSt11__addressofIPNSt8__detail15_Hash_node_baseEEPT_RS3_
FNDA:612,_ZSt11__addressofISaISt23_Sp_counted_ptr_inplaceIN5Catch5Clara6Detail11BoundLambdaIZNS1_21makeCommandLineParserERNS1_10ConfigDataEEUlRKNSt7__cxx1112basic_stringIcSt11char_traitsIcESaIcEEEE0_EESaIvELN9__gnu_cxx12_Lock_policyE2EEEEPT_RSM_
FNDA:612,_ZSt11__addressofISaISt23_Sp_counted_ptr_inplaceIN5Catch5Clara6Detail11BoundLambdaIZNS1_21makeCommandLineParserERNS1_10ConfigDataEEUlRKNSt7__cxx1112basic_stringIcSt11char_traitsIcESaIcEEEE1_EESaIvELN9__gnu_cxx12_Lock_policyE2EEEEPT_RSM_
FNDA:612,_ZSt11__addressofISaISt23_Sp_counted_ptr_inplaceIN5Catch5Clara6Detail11BoundLambdaIZNS1_21makeCommandLineParserERNS1_10ConfigDataEEUlRKNSt7__cxx1112basic_stringIcSt11char_traitsIcESaIcEEEE2_EESaIvELN9__gnu_cxx12_Lock_policyE2EEEEPT_RSM_
FNDA:612,_ZSt11__addressofISaISt23_Sp_counted_ptr_inplaceIN5Catch5Clara6Detail11BoundLambdaIZNS1_21makeCommandLineParserERNS1_10ConfigDataEEUlRKNSt7__cxx1112basic_stringIcSt11char_traitsIcESaIcEEEE3_EESaIvELN9__gnu_cxx12_Lock_policyE2EEEEPT_RSM_
FNDA:612,_ZSt11__addressofISaISt23_Sp_counted_ptr_inplaceIN5Catch5Clara6Detail11BoundLambdaIZNS1_21makeCommandLineParserERNS1_10ConfigDataEEUlRKNSt7__cxx1112basic_stringIcSt11char_traitsIcESaIcEEEE4_EESaIvELN9__gnu_cxx12_Lock_policyE2EEEEPT_RSM_
FNDA:612,_ZSt11__addressofISaISt23_Sp_counted_ptr_inplaceIN5Catch5Clara6Detail11BoundLambdaIZNS1_21makeCommandLineParserERNS1_10ConfigDataEEUlRKNSt7__cxx1112basic_stringIcSt11char_traitsIcESaIcEEEE5_EESaIvELN9__gnu_cxx12_Lock_policyE2EEEEPT_RSM_
FNDA:612,_ZSt11__addressofISaISt23_Sp_counted_ptr_inplaceIN5Catch5Clara6Detail11BoundLambdaIZNS1_21makeCommandLineParserERNS1_10ConfigDataEEUlRKNSt7__cxx1112basic_stringIcSt11char_traitsIcESaIcEEEE7_EESaIvELN9__gnu_cxx12_Lock_policyE2EEEEPT_RSM_
FNDA:612,_ZSt11__addressofISaISt23_Sp_counted_ptr_inplaceIN5Catch5Clara6Detail11BoundLambdaIZNS1_21makeCommandLineParserERNS1_10ConfigDataEEUlRKNSt7__cxx1112basic_stringIcSt11char_traitsIcESaIcEEEE8_EESaIvELN9__gnu_cxx12_Lock_policyE2EEEEPT_RSM_
FNDA:612,_ZSt11__addressofISaISt23_Sp_counted_ptr_inplaceIN5Catch5Clara6Detail11BoundLambdaIZNS1_21makeCommandLineParserERNS1_10ConfigDataEEUlbE0_EESaIvELN9__gnu_cxx12_Lock_policyE2EEEEPT_RSE_
FNDA:612,_ZSt11__addressofISaISt23_Sp_counted_ptr_inplaceIN5Catch5Clara6Detail11BoundLambdaIZNS1_21makeCommandLineParserERNS1_10ConfigDataEEUliE_EESaIvELN9__gnu_cxx12_Lock_policyE2EEEEPT_RSE_
FNDA:7956,_ZSt11__addressofISaISt23_Sp_counted_ptr_inplaceIN5Catch5Clara6Detail12BoundFlagRefESaIvELN9__gnu_cxx12_Lock_policyE2EEEEPT_RSA_
FNDA:1836,_ZSt11__addressofISaISt23_Sp_counted_ptr_inplaceIN5Catch5Clara6Detail13BoundValueRefINSt7__cxx1112basic_stringIcSt11char_traitsIcESaIcEEEEESaIvELN9__gnu_cxx12_Lock_policyE2EEEEPT_RSH_
FNDA:1224,_ZSt11__addressofISaISt23_Sp_counted_ptr_inplaceIN5Catch5Clara6Detail13BoundValueRefISt6vectorINSt7__cxx1112basic_stringIcSt11char_traitsIcESaIcEEESaISB_EEEESaIvELN9__gnu_cxx12_Lock_policyE2EEEEPT_RSK_
FNDA:1224,_ZSt11__addressofISaISt23_Sp_counted_ptr_inplaceIN5Catch5Clara6Detail13BoundValueRefIdEESaIvELN9__gnu_cxx12_Lock_policyE2EEEEPT_RSB_
FNDA:1224,_ZSt11__addressofISaISt23_Sp_counted_ptr_inplaceIN5Catch5Clara6Detail13BoundValueRefIjEESaIvELN9__gnu_cxx12_Lock_policyE2EEEEPT_RSB_
FNDA:612,_ZSt11__addressofISaISt23_Sp_counted_ptr_inplaceIN5Catch5Clara6Detail13BoundValueRefIlEESaIvELN9__gnu_cxx12_Lock_policyE2EEEEPT_RSB_
FNDA:612,_ZSt11__addressofISaISt23_Sp_counted_ptr_inplaceIN5Catch5Clara6Detail15BoundFlagLambdaIZNS1_21makeCommandLineParserERNS1_10ConfigDataEEUlbE_EESaIvELN9__gnu_cxx12_Lock_policyE2EEEEPT_RSE_
FNDA:612,_ZSt11__addressofISaISt23_Sp_counted_ptr_inplaceIN5Catch5Clara6Detail15BoundFlagLambdaIZNS2_4HelpC4ERbEUlbE_EESaIvELN9__gnu_cxx12_Lock_policyE2EEEEPT_RSE_
FNDA:612,_ZSt11__addressofISaISt23_Sp_counted_ptr_inplaceIN5Catch5Clara6Detail15BoundManyLambdaIZNS1_21makeCommandLineParserERNS1_10ConfigDataEEUlRKNSt7__cxx1112basic_stringIcSt11char_traitsIcESaIcEEEE6_EESaIvELN9__gnu_cxx12_Lock_policyE2EEEEPT_RSM_
FNDA:612,_ZSt11__addressofISaISt23_Sp_counted_ptr_inplaceIN5Catch5Clara6Detail15BoundManyLambdaIZNS1_21makeCommandLineParserERNS1_10ConfigDataEEUlRKNSt7__cxx1112basic_stringIcSt11char_traitsIcESaIcEEEE_EESaIvELN9__gnu_cxx12_Lock_policyE2EEEEPT_RSM_
FNDA:1836,_ZSt11__addressofISaISt23_Sp_counted_ptr_inplaceINSt7__cxx1112basic_stringIcSt11char_traitsIcESaIcEEESaIvELN9__gnu_cxx12_Lock_policyE2EEEEPT_RSC_
FNDA:0,_ZSt11__addressofISaISt23_Sp_counted_ptr_inplaceINSt8__detail4_NFAINSt7__cxx1112regex_traitsIcEEEESaIvELN9__gnu_cxx12_Lock_policyE2EEEEPT_RSC_
FNDA:0,_ZSt11__addressofISt4pairIN9__gnu_cxx17__normal_iteratorIPKcNSt7__cxx1112basic_stringIcSt11char_traitsIcESaIcEEEEEiEEPT_RSD_
FNDA:0,_ZSt11__addressofISt4pairINSt7__cxx1112basic_stringIcSt11char_traitsIcESaIcEEES6_EEPT_RS8_
FNDA:414,_ZSt11__addressofISt4pairISt6vectorIdSaIdEEdEEPT_RS5_
FNDA:0,_ZSt11__addressofISt4pairIccEEPT_RS2_
FNDA:660,_ZSt11__addressofISt4pairIddEEPT_RS2_
FNDA:0,_ZSt11__addressofISt4pairIiN5Catch9StringRefEEEPT_RS4_
FNDA:0,_ZSt11__addressofISt4pairIlSt6vectorINSt7__cxx119sub_matchIN9__gnu_cxx17__normal_iteratorIPKcNS2_12basic_stringIcSt11char_traitsIcESaIcEEEEEEESaISE_EEEEPT_RSI_
FNDA:0,_ZSt11__addressofISt4pairImN5Catch14TestCaseHandleEEEPT_RS4_
FNDA:58055,_ZSt11__addressofISt6vectorIdSaIdEEEPT_RS3_
FNDA:0,_ZSt11__addressofIZNK5Catch5Clara6Parser5parseERKNSt7__cxx1112basic_stringIcSt11char_traitsIcESaIcEEENS1_6Detail11TokenStreamEE10ParserInfoEPT_RSE_
FNDA:58125,_ZSt11__addressofIdEPT_RS0_
FNDA:284599310,_ZSt11__addressofImEPT_RS0_
FNDA:0,_ZSt7forwardIN5Catch11MessageInfoEEOT_RNSt16remove_referenceIS2_E4typeE
FNDA:0,_ZSt7forwardIN5Catch11SectionInfoEEOT_RNSt16remove_referenceIS2_E4typeE
FNDA:8,_ZSt7forwardIN5Catch12JsonReporter6WriterEEOT_RNSt16remove_referenceIS3_E4typeE
FNDA:1224,_ZSt7forwardIN5Catch12ReporterSpecEEOT_RNSt16remove_referenceIS2_E4typeE
FNDA:0,_ZSt7forwardIN5Catch12_GLOBAL__N_113SummaryColumnEEOT_RNSt16remove_referenceIS3_E4typeE
FNDA:0,_ZSt7forwardIN5Catch13ScopedMessageEEOT_RNSt16remove_referenceIS2_E4typeE
FNDA:0,_ZSt7forwardIN5Catch14MessageBuilderEEOT_RNSt16remove_referenceIS2_E4typeE
FNDA:0,_ZSt7forwardIN5Catch14SectionEndInfoEEOT_RNSt16remove_referenceIS2_E4typeE
FNDA:38556,_ZSt7forwardIN5Catch14TestCaseHandleEEOT_RNSt16remove_referenceIS2_E4typeE
FNDA:0,_ZSt7forwardIN5Catch15JsonArrayWriterEEOT_RNSt16remove_referenceIS2_E4typeE
FNDA:4,_ZSt7forwardIN5Catch16JsonObjectWriterEEOT_RNSt16remove_referenceIS2_E4typeE
FNDA:0,_ZSt7forwardIN5Catch19ListenerDescriptionEEOT_RNSt16remove_referenceIS2_E4typeE
FNDA:0,_ZSt7forwardIN5Catch19ReporterDescriptionEEOT_RNSt16remove_referenceIS2_E4typeE
FNDA:1224,_ZSt7forwardIN5Catch21ProcessedReporterSpecEEOT_RNSt16remove_referenceIS2_E4typeE
FNDA:0,_ZSt7forwardIN5Catch3TagEEOT_RNSt16remove_referenceIS2_E4typeE
FNDA:0,_ZSt7forwardIN5Catch5Clara3ArgEEOT_RNSt16remove_referenceIS3_E4typeE
FNDA:71604,_ZSt7forwardIN5Catch5Clara3OptEEOT_RNSt16remove_referenceIS3_E4typeE
FNDA:0,_ZSt7forwardIN5Catch5Clara6Detail11HelpColumnsEEOT_RNSt16remove_referenceIS4_E4typeE
FNDA:1230,_ZSt7forwardIN5Catch5Clara6Detail5TokenEEOT_RNSt16remove_referenceIS4_E4typeE
FNDA:0,_ZSt7forwardIN5Catch6Detail10unique_ptrIKNS0_20IExceptionTranslatorEEEEOT_RNSt16remove_referenceIS6_E4typeE
FNDA:96696,_ZSt7forwardIN5Catch6Detail10unique_ptrINS0_12ITestInvokerEEEEOT_RNSt16remove_referenceIS5_E4typeE
FNDA:96696,_ZSt7forwardIN5Catch6Detail10unique_ptrINS0_12TestCaseInfoEEEEOT_RNSt16remove_referenceIS5_E4typeE
FNDA:0,_ZSt7forwardIN5Catch6Detail10unique_ptrINS0_14IEventListenerEEEEOT_RNSt16remove_referenceIS5_E4typeE
FNDA:0,_ZSt7forwardIN5Catch6Detail10unique_ptrINS0_16IReporterFactoryEEEEOT_RNSt16remove_referenceIS5_E4typeE
FNDA:1220,_ZSt7forwardIN5Catch6Detail10unique_ptrINS0_16TestCaseTracking8ITrackerEEEEOT_RNSt16remove_referenceIS6_E4typeE
FNDA:0,_ZSt7forwardIN5Catch6Detail10unique_ptrINS0_20EventListenerFactoryEEEEOT_RNSt16remove_referenceIS5_E4typeE
FNDA:0,_ZSt7forwardIN5Catch6Detail10unique_ptrINS0_22CumulativeReporterBase11SectionNodeEEEEOT_RNSt16remove_referenceIS6_E4typeE
FNDA:0,_ZSt7forwardIN5Catch6Detail10unique_ptrINS0_22CumulativeReporterBase4NodeINS0_13TestCaseStatsENS3_11SectionNodeEEEEEEOT_RNSt16remove_referenceIS9_E4typeE
FNDA:0,_ZSt7forwardIN5Catch6Detail10unique_ptrINS0_8TestSpec10TagPatternEEEEOT_RNSt16remove_referenceIS6_E4typeE
FNDA:1220,_ZSt7forwardIN5Catch6Detail10unique_ptrINS0_8TestSpec11NamePatternEEEEOT_RNSt16remove_referenceIS6_E4typeE
FNDA:0,_ZSt7forwardIN5Catch6Detail10unique_ptrINS0_8TestSpec7PatternEEEEOT_RNSt16remove_referenceIS6_E4typeE
FNDA:0,_ZSt7forwardIN5Catch6Detail10unique_ptrINS1_8EnumInfoEEEEOT_RNSt16remove_referenceIS5_E4typeE
FNDA:3050,_ZSt7forwardIN5Catch6Detail10unique_ptrINSt7__cxx1119basic_ostringstreamIcSt11char_traitsIcESaIcEEEEEEOT_RNSt16remove_referenceISA_E4typeE
FNDA:0,_ZSt7forwardIN5Catch7TagInfoEEOT_RNSt16remove_referenceIS2_E4typeE
FNDA:0,_ZSt7forwardIN5Catch8TagAliasEEOT_RNSt16remove_referenceIS2_E4typeE
FNDA:915,_ZSt7forwardIN5Catch8TestSpec11FilterMatchEEOT_RNSt16remove_referenceIS3_E4typeE
FNDA:1220,_ZSt7forwardIN5Catch8TestSpec6FilterEEOT_RNSt16remove_referenceIS3_E4typeE
FNDA:0,_ZSt7forwardIN5Catch8TextFlow6Column14const_iteratorEEOT_RNSt16remove_referenceIS4_E4typeE
FNDA:0,_ZSt7forwardIN5Catch8TextFlow6ColumnEEOT_RNSt16remove_referenceIS3_E4typeE
FNDA:86292,_ZSt7forwardIN5Catch9StringRefEEOT_RNSt16remove_referenceIS2_E4typeE
FNDA:0,_ZSt7forwardINSt15__exception_ptr13exception_ptrEEOT_RNSt16remove_referenceIS2_E4typeE
FNDA:40,_ZSt7forwardINSt6chrono10time_pointINS0_3_V212steady_clockENS0_8durationIlSt5ratioILl1ELl1000000000EEEEEEEOT_RNSt16remove_referenceIS9_E4typeE
FNDA:12240,_ZSt7forwardINSt7__cxx1112basic_stringIcSt11char_traitsIcESaIcEEEEOT_RNSt16remove_referenceIS6_E4typeE
FNDA:0,_ZSt7forwardINSt7__cxx1112regex_traitsIcE10_RegexMaskEEOT_RNSt16remove_referenceIS4_E4typeE
FNDA:0,_ZSt7forwardINSt8__detail11_AnyMatcherINSt7__cxx1112regex_traitsIcEELb0ELb0ELb0EEEEOT_RNSt16remove_referenceIS6_E4typeE
FNDA:0,_ZSt7forwardINSt8__detail11_AnyMatcherINSt7__cxx1112regex_traitsIcEELb0ELb0ELb1EEEEOT_RNSt16remove_referenceIS6_E4typeE
FNDA:0,_ZSt7forwardINSt8__detail11_AnyMatcherINSt7__cxx1112regex_traitsIcEELb0ELb1ELb0EEEEOT_RNSt16remove_referenceIS6_E4typeE
FNDA:0,_ZSt7forwardINSt8__detail11_AnyMatcherINSt7__cxx1112regex_traitsIcEELb0ELb1ELb1EEEEOT_RNSt16remove_referenceIS6_E4typeE
FNDA:0,_ZSt7forwardINSt8__detail11_AnyMatcherINSt7__cxx1112regex_traitsIcEELb1ELb0ELb0EEEEOT_RNSt16remove_referenceIS6_E4typeE
FNDA:0,_ZSt7forwardINSt8__detail11_AnyMatcherINSt7__cxx1112regex_traitsIcEELb1ELb0ELb1EEEEOT_RNSt16remove_referenceIS6_E4typeE
FNDA:0,_ZSt7forwardINSt8__detail11_AnyMatcherINSt7__cxx1112regex_traitsIcEELb1ELb1ELb0EEEEOT_RNSt16remove_referenceIS6_E4typeE
FNDA:0,_ZSt7forwardINSt8__detail11_AnyMatcherINSt7__cxx1112regex_traitsIcEELb1ELb1ELb1EEEEOT_RNSt16remove_referenceIS6_E4typeE
FNDA:0,_ZSt7forwardINSt8__detail12_CharMatcherINSt7__cxx1112regex_traitsIcEELb0ELb0EEEEOT_RNSt16remove_referenceIS6_E4typeE
FNDA:0,_ZSt7forwardINSt8__detail12_CharMatcherINSt7__cxx1112regex_traitsIcEELb0ELb1EEEEOT_RNSt16remove_referenceIS6_E4typeE
FNDA:0,_ZSt7forwardINSt8__detail12_CharMatcherINSt7__cxx1112regex_traitsIcEELb1ELb0EEEEOT_RNSt16remove_referenceIS6_E4typeE
FNDA:0,_ZSt7forwardINSt8__detail12_CharMatcherINSt7__cxx1112regex_traitsIcEELb1ELb1EEEEOT_RNSt16remove_referenceIS6_E4typeE
FNDA:0,_ZSt7forwardINSt8__detail15_BracketMatcherINSt7__cxx1112regex_traitsIcEELb0ELb0EEEEOT_RNSt16remove_referenceIS6_E4typeE
FNDA:0,_ZSt7forwardINSt8__detail15_BracketMatcherINSt7__cxx1112regex_traitsIcEELb0ELb1EEEEOT_RNSt16remove_referenceIS6_E4typeE
FNDA:0,_ZSt7forwardINSt8__detail15_BracketMatcherINSt7__cxx1112regex_traitsIcEELb1ELb0EEEEOT_RNSt16remove_referenceIS6_E4typeE
FNDA:0,_ZSt7forwardINSt8__detail15_BracketMatcherINSt7__cxx1112regex_traitsIcEELb1ELb1EEEEOT_RNSt16remove_referenceIS6_E4typeE
FNDA:0,_ZSt7forwardINSt8__detail6_StateIcEEEOT_RNSt16remove_referenceIS3_E4typeE
FNDA:0,_ZSt7forwardINSt8__detail9_StateSeqINSt7__cxx1112regex_traitsIcEEEEEOT_RNSt16remove_referenceIS6_E4typeE
FNDA:0,_ZSt7forwardION5Catch9StringRefEEOT_RNSt16remove_referenceIS3_E4typeE
FNDA:2754,_ZSt7forwardIONSt7__cxx1112basic_stringIcSt11char_traitsIcESaIcEEEEOT_RNSt16remove_referenceIS7_E4typeE
FNDA:1220,_ZSt7forwardIPKN5Catch14TestCaseHandleEEOT_RNSt16remove_referenceIS4_E4typeE
FNDA:0,_ZSt7forwardIPKN5Catch22CumulativeReporterBase4NodeINS0_13TestCaseStatsENS1_11SectionNodeEEEEOT_RNSt16remove_referenceIS8_E4typeE
FNDA:20,_ZSt7forwardIPKSt6vectorIdSaIdEEEOT_RNSt16remove_referenceIS5_E4typeE
FNDA:58140,_ZSt7forwardIPN5Catch12ITestInvokerEEOT_RNSt16remove_referenceIS3_E4typeE
FNDA:116280,_ZSt7forwardIPN5Catch12TestCaseInfoEEOT_RNSt16remove_referenceIS3_E4typeE
FNDA:0,_ZSt7forwardIPN5Catch16TestCaseTracking8ITrackerEEOT_RNSt16remove_referenceIS4_E4typeE
FNDA:6426,_ZSt7forwardIRA13_KcEOT_RNSt16remove_referenceIS3_E4typeE
FNDA:0,_ZSt7forwardIRA2_KcEOT_RNSt16remove_referenceIS3_E4typeE
FNDA:80,_ZSt7forwardIRFdRKSt6vectorIdSaIdEEEEOT_RNSt16remove_referenceIS7_E4typeE
FNDA:1220,_ZSt7forwardIRKN5Catch10ColumnInfoEEOT_RNSt16remove_referenceIS4_E4typeE
FNDA:0,_ZSt7forwardIRKN5Catch11MessageInfoEEOT_RNSt16remove_referenceIS4_E4typeE
FNDA:915,_ZSt7forwardIRKN5Catch11SectionInfoEEOT_RNSt16remove_referenceIS4_E4typeE
FNDA:1,_ZSt7forwardIRKN5Catch12ReporterSpecEEOT_RNSt16remove_referenceIS4_E4typeE
FNDA:0,_ZSt7forwardIRKN5Catch14AssertionStatsEEOT_RNSt16remove_referenceIS4_E4typeE
FNDA:0,_ZSt7forwardIRKN5Catch14BenchmarkStatsINSt6chrono8durationIdSt5ratioILl1ELl1000000000EEEEEEEOT_RNSt16remove_referenceISA_E4typeE
FNDA:0,_ZSt7forwardIRKN5Catch14SourceLineInfoEEOT_RNSt16remove_referenceIS4_E4typeE
FNDA:18849,_ZSt7forwardIRKN5Catch14TestCaseHandleEEOT_RNSt16remove_referenceIS4_E4typeE
FNDA:918,_ZSt7forwardIRKN5Catch5Clara3ArgEEOT_RNSt16remove_referenceIS5_E4typeE
FNDA:918,_ZSt7forwardIRKN5Catch5Clara3OptEEOT_RNSt16remove_referenceIS5_E4typeE
FNDA:0,_ZSt7forwardIRKN5Catch6Detail26AssertionOrBenchmarkResultEEOT_RNSt16remove_referenceIS5_E4typeE
FNDA:0,_ZSt7forwardIRKN5Catch8TextFlow6Column14const_iteratorEEOT_RNSt16remove_referenceIS6_E4typeE
FNDA:0,_ZSt7forwardIRKN5Catch8TextFlow6ColumnEEOT_RNSt16remove_referenceIS5_E4typeE
FNDA:49572,_ZSt7forwardIRKN5Catch9StringRefEEOT_RNSt16remove_referenceIS4_E4typeE
FNDA:0,_ZSt7forwardIRKNSt15__exception_ptr13exception_ptrEEOT_RNSt16remove_referenceIS4_E4typeE
FNDA:1220,_ZSt7forwardIRKNSt7__cxx1112basic_stringIcSt11char_traitsIcESaIcEEEEOT_RNSt16remove_referenceIS8_E4typeE
FNDA:0,_ZSt7forwardIRKNSt7__cxx1112regex_traitsIcE10_RegexMaskEEOT_RNSt16remove_referenceIS6_E4typeE
FNDA:0,_ZSt7forwardIRKNSt7__cxx119sub_matchIN9__gnu_cxx17__normal_iteratorIPKcNS0_12basic_stringIcSt11char_traitsIcESaIcEEEEEEEEOT_RNSt16remove_referenceISF_E4typeE
FNDA:0,_ZSt7forwardIRKNSt8__detail11_AnyMatcherINSt7__cxx1112regex_traitsIcEELb0ELb0ELb0EEEEOT_RNSt16remove_referenceIS8_E4typeE
FNDA:0,_ZSt7forwardIRKNSt8__detail11_AnyMatcherINSt7__cxx1112regex_traitsIcEELb0ELb0ELb1EEEEOT_RNSt16remove_referenceIS8_E4typeE
FNDA:0,_ZSt7forwardIRKNSt8__detail11_AnyMatcherINSt7__cxx1112regex_traitsIcEELb0ELb1ELb0EEEEOT_RNSt16remove_referenceIS8_E4typeE
FNDA:0,_ZSt7forwardIRKNSt8__detail11_AnyMatcherINSt7__cxx1112regex_traitsIcEELb0ELb1ELb1EEEEOT_RNSt16remove_referenceIS8_E4typeE
FNDA:0,_ZSt7forwardIRKNSt8__detail11_AnyMatcherINSt7__cxx1112regex_traitsIcEELb1ELb0ELb0EEEEOT_RNSt16remove_referenceIS8_E4typeE
FNDA:0,_ZSt7forwardIRKNSt8__detail11_AnyMatcherINSt7__cxx1112regex_traitsIcEELb1ELb0ELb1EEEEOT_RNSt16remove_referenceIS8_E4typeE
FNDA:0,_ZSt7forwardIRKNSt8__detail11_AnyMatcherINSt7__cxx1112regex_traitsIcEELb1ELb1ELb0EEEEOT_RNSt16remove_referenceIS8_E4typeE
FNDA:0,_ZSt7forwardIRKNSt8__detail11_AnyMatcherINSt7__cxx1112regex_traitsIcEELb1ELb1ELb1EEEEOT_RNSt16remove_referenceIS8_E4typeE
FNDA:0,_ZSt7forwardIRKNSt8__detail12_CharMatcherINSt7__cxx1112regex_traitsIcEELb0ELb0EEEEOT_RNSt16remove_referenceIS8_E4typeE
FNDA:0,_ZSt7forwardIRKNSt8__detail12_CharMatcherINSt7__cxx1112regex_traitsIcEELb0ELb1EEEEOT_RNSt16remove_referenceIS8_E4typeE
FNDA:0,_ZSt7forwardIRKNSt8__detail12_CharMatcherINSt7__cxx1112regex_traitsIcEELb1ELb0EEEEOT_RNSt16remove_referenceIS8_E4typeE
FNDA:0,_ZSt7forwardIRKNSt8__detail12_CharMatcherINSt7__cxx1112regex_traitsIcEELb1ELb1EEEEOT_RNSt16remove_referenceIS8_E4typeE
FNDA:0,_ZSt7forwardIRKNSt8__detail15_BracketMatcherINSt7__cxx1112regex_traitsIcEELb0ELb0EEEEOT_RNSt16remove_referenceIS8_E4typeE
FNDA:0,_ZSt7forwardIRKNSt8__detail15_BracketMatcherINSt7__cxx1112regex_traitsIcEELb0ELb1EEEEOT_RNSt16remove_referenceIS8_E4typeE
FNDA:0,_ZSt7forwardIRKNSt8__detail15_BracketMatcherINSt7__cxx1112regex_traitsIcEELb1ELb0EEEEOT_RNSt16remove_referenceIS8_E4typeE
FNDA:0,_ZSt7forwardIRKNSt8__detail15_BracketMatcherINSt7__cxx1112regex_traitsIcEELb1ELb1EEEEOT_RNSt16remove_referenceIS8_E4typeE
FNDA:0,_ZSt7forwardIRKNSt8__detail9_StateSeqINSt7__cxx1112regex_traitsIcEEEEEOT_RNSt16remove_referenceIS8_E4typeE
FNDA:130662,_ZSt7forwardIRKPKN5Catch12TestCaseInfoEEOT_RNSt16remove_referenceIS6_E4typeE
FNDA:3965,_ZSt7forwardIRKPKN5Catch14TestCaseHandleEEOT_RNSt16remove_referenceIS6_E4typeE
FNDA:308,_ZSt7forwardIRKPKcEOT_RNSt16remove_referenceIS4_E4typeE
FNDA:1833,_ZSt7forwardIRKPN5Catch10ISingletonEEOT_RNSt16remove_referenceIS5_E4typeE
FNDA:0,_ZSt7forwardIRKPN5Catch22CumulativeReporterBase11SectionNodeEEOT_RNSt16remove_referenceIS6_E4typeE
FNDA:1150470388,_ZSt7forwardIRKSt21piecewise_construct_tEOT_RNSt16remove_referenceIS3_E4typeE
FNDA:0,_ZSt7forwardIRKSt4pairIKNSt7__cxx1112basic_stringIcSt11char_traitsIcESaIcEEES6_EEOT_RNSt16remove_referenceISB_E4typeE
FNDA:3042372245,_ZSt7forwardIRKSt4pairIKmdEEOT_RNSt16remove_referenceIS5_E4typeE
FNDA:0,_ZSt7forwardIRKSt4pairINSt7__cxx1112basic_stringIcSt11char_traitsIcESaIcEEES6_EEOT_RNSt16remove_referenceISA_E4typeE
FNDA:0,_ZSt7forwardIRKSt4pairIccEEOT_RNSt16remove_referenceIS4_E4typeE
FNDA:660,_ZSt7forwardIRKSt4pairIddEEOT_RNSt16remove_referenceIS4_E4typeE
FNDA:0,_ZSt7forwardIRKSt6localeEOT_RNSt16remove_referenceIS3_E4typeE
FNDA:0,_ZSt7forwardIRKSt6vectorINSt7__cxx119sub_matchIN9__gnu_cxx17__normal_iteratorIPKcNS1_12basic_stringIcSt11char_traitsIcESaIcEEEEEEESaISD_EEEOT_RNSt16remove_referenceISI_E4typeE
FNDA:50,_ZSt7forwardIRKSt6vectorIdSaIdEEEOT_RNSt16remove_referenceIS5_E4typeE
FNDA:2142,_ZSt7forwardIRKZN5Catch21makeCommandLineParserERNS0_10ConfigDataEEUlRKNSt7__cxx1112basic_stringIcSt11char_traitsIcESaIcEEEE0_EOT_RNSt16remove_referenceISE_E4typeE
FNDA:2142,_ZSt7forwardIRKZN5Catch21makeCommandLineParserERNS0_10ConfigDataEEUlRKNSt7__cxx1112basic_stringIcSt11char_traitsIcESaIcEEEE1_EOT_RNSt16remove_referenceISE_E4typeE
FNDA:2142,_ZSt7forwardIRKZN5Catch21makeCommandLineParserERNS0_10ConfigDataEEUlRKNSt7__cxx1112basic_stringIcSt11char_traitsIcESaIcEEEE2_EOT_RNSt16remove_referenceISE_E4typeE
FNDA:2142,_ZSt7forwardIRKZN5Catch21makeCommandLineParserERNS0_10ConfigDataEEUlRKNSt7__cxx1112basic_stringIcSt11char_traitsIcESaIcEEEE3_EOT_RNSt16remove_referenceISE_E4typeE
FNDA:2142,_ZSt7forwardIRKZN5Catch21makeCommandLineParserERNS0_10ConfigDataEEUlRKNSt7__cxx1112basic_stringIcSt11char_traitsIcESaIcEEEE4_EOT_RNSt16remove_referenceISE_E4typeE
FNDA:2142,_ZSt7forwardIRKZN5Catch21makeCommandLineParserERNS0_10ConfigDataEEUlRKNSt7__cxx1112basic_stringIcSt11char_traitsIcESaIcEEEE5_EOT_RNSt16remove_referenceISE_E4typeE
FNDA:2142,_ZSt7forwardIRKZN5Catch21makeCommandLineParserERNS0_10ConfigDataEEUlRKNSt7__cxx1112basic_stringIcSt11char_traitsIcESaIcEEEE6_EOT_RNSt16remove_referenceISE_E4typeE
FNDA:2142,_ZSt7forwardIRKZN5Catch21makeCommandLineParserERNS0_10ConfigDataEEUlRKNSt7__cxx1112basic_stringIcSt11char_traitsIcESaIcEEEE7_EOT_RNSt16remove_referenceISE_E4typeE
FNDA:2142,_ZSt7forwardIRKZN5Catch21makeCommandLineParserERNS0_10ConfigDataEEUlRKNSt7__cxx1112basic_stringIcSt11char_traitsIcESaIcEEEE8_EOT_RNSt16remove_referenceISE_E4typeE
FNDA:2142,_ZSt7forwardIRKZN5Catch21makeCommandLineParserERNS0_10ConfigDataEEUlRKNSt7__cxx1112basic_stringIcSt11char_traitsIcESaIcEEEE_EOT_RNSt16remove_referenceISE_E4typeE
FNDA:2142,_ZSt7forwardIRKZN5Catch21makeCommandLineParserERNS0_10ConfigDataEEUlbE0_EOT_RNSt16remove_referenceIS6_E4typeE
FNDA:2142,_ZSt7forwardIRKZN5Catch21makeCommandLineParserERNS0_10ConfigDataEEUlbE_EOT_RNSt16remove_referenceIS6_E4typeE
FNDA:2142,_ZSt7forwardIRKZN5Catch21makeCommandLineParserERNS0_10ConfigDataEEUliE_EOT_RNSt16remove_referenceIS6_E4typeE
FNDA:2142,_ZSt7forwardIRKZN5Catch5Clara4HelpC4ERbEUlbE_EOT_RNSt16remove_referenceIS7_E4typeE
FNDA:0,_ZSt7forwardIRKcEOT_RNSt16remove_referenceIS2_E4typeE
FNDA:127925,_ZSt7forwardIRKdEOT_RNSt16remove_referenceIS2_E4typeE
FNDA:0,_ZSt7forwardIRKlEOT_RNSt16remove_referenceIS2_E4typeE
FNDA:862910869,_ZSt7forwardIRKmEOT_RNSt16remove_referenceIS2_E4typeE
FNDA:0,_ZSt7forwardIRN5Catch12ReporterSpecEEOT_RNSt16remove_referenceIS3_E4typeE
FNDA:0,_ZSt7forwardIRN5Catch5Clara3ArgEEOT_RNSt16remove_referenceIS4_E4typeE
FNDA:0,_ZSt7forwardIRN5Catch5Clara3OptEEOT_RNSt16remove_referenceIS4_E4typeE
FNDA:0,_ZSt7forwardIRN5Catch6Detail10unique_ptrINS0_16IReporterFactoryEEEEOT_RNSt16remove_referenceIS6_E4typeE
FNDA:0,_ZSt7forwardIRN5Catch9ResultWas6OfTypeEEOT_RNSt16remove_referenceIS4_E4typeE
FNDA:0,_ZSt7forwardIRN5Catch9StringRefEEOT_RNSt16remove_referenceIS3_E4typeE
FNDA:0,_ZSt7forwardIRNSt15regex_constants18syntax_option_typeEEOT_RNSt16remove_referenceIS3_E4typeE
FNDA:6426,_ZSt7forwardIRNSt7__cxx1112basic_stringIcSt11char_traitsIcESaIcEEEEOT_RNSt16remove_referenceIS7_E4typeE
FNDA:0,_ZSt7forwardIRNSt7__cxx119sub_matchIN9__gnu_cxx17__normal_iteratorIPKcNS0_12basic_stringIcSt11char_traitsIcESaIcEEEEEEEEOT_RNSt16remove_referenceISE_E4typeE
FNDA:0,_ZSt7forwardIRNSt8__detail11_AnyMatcherINSt7__cxx1112regex_traitsIcEELb0ELb0ELb0EEEEOT_RNSt16remove_referenceIS7_E4typeE
FNDA:0,_ZSt7forwardIRNSt8__detail11_AnyMatcherINSt7__cxx1112regex_traitsIcEELb0ELb0ELb1EEEEOT_RNSt16remove_referenceIS7_E4typeE
FNDA:0,_ZSt7forwardIRNSt8__detail11_AnyMatcherINSt7__cxx1112regex_traitsIcEELb0ELb1ELb0EEEEOT_RNSt16remove_referenceIS7_E4typeE
FNDA:0,_ZSt7forwardIRNSt8__detail11_AnyMatcherINSt7__cxx1112regex_traitsIcEELb0ELb1ELb1EEEEOT_RNSt16remove_referenceIS7_E4typeE
FNDA:0,_ZSt7forwardIRNSt8__detail11_AnyMatcherINSt7__cxx1112regex_traitsIcEELb1ELb0ELb0EEEEOT_RNSt16remove_referenceIS7_E4typeE
FNDA:0,_ZSt7forwardIRNSt8__detail11_AnyMatcherINSt7__cxx1112regex_traitsIcEELb1ELb0ELb1EEEEOT_RNSt16remove_referenceIS7_E4typeE
FNDA:0,_ZSt7forwardIRNSt8__detail11_AnyMatcherINSt7__cxx1112regex_traitsIcEELb1ELb1ELb0EEEEOT_RNSt16remove_referenceIS7_E4typeE
FNDA:0,_ZSt7forwardIRNSt8__detail11_AnyMatcherINSt7__cxx1112regex_traitsIcEELb1ELb1ELb1EEEEOT_RNSt16remove_referenceIS7_E4typeE
FNDA:0,_ZSt7forwardIRNSt8__detail12_CharMatcherINSt7__cxx1112regex_traitsIcEELb0ELb0EEEEOT_RNSt16remove_referenceIS7_E4typeE
FNDA:0,_ZSt7forwardIRNSt8__detail12_CharMatcherINSt7__cxx1112regex_traitsIcEELb0ELb1EEEEOT_RNSt16remove_referenceIS7_E4typeE
FNDA:0,_ZSt7forwardIRNSt8__detail12_CharMatcherINSt7__cxx1112regex_traitsIcEELb1ELb0EEEEOT_RNSt16remove_referenceIS7_E4typeE
FNDA:0,_ZSt7forwardIRNSt8__detail12_CharMatcherINSt7__cxx1112regex_traitsIcEELb1ELb1EEEEOT_RNSt16remove_referenceIS7_E4typeE
FNDA:0,_ZSt7forwardIRNSt8__detail15_BracketMatcherINSt7__cxx1112regex_traitsIcEELb0ELb0EEEEOT_RNSt16remove_referenceIS7_E4typeE
FNDA:0,_ZSt7forwardIRNSt8__detail15_BracketMatcherINSt7__cxx1112regex_traitsIcEELb0ELb1EEEEOT_RNSt16remove_referenceIS7_E4typeE
FNDA:0,_ZSt7forwardIRNSt8__detail15_BracketMatcherINSt7__cxx1112regex_traitsIcEELb1ELb0EEEEOT_RNSt16remove_referenceIS7_E4typeE
FNDA:0,_ZSt7forwardIRNSt8__detail15_BracketMatcherINSt7__cxx1112regex_traitsIcEELb1ELb1EEEEOT_RNSt16remove_referenceIS7_E4typeE
FNDA:0,_ZSt7forwardIRPSt13_Rb_tree_nodeIN5Catch9StringRefEEEOT_RNSt16remove_referenceIS6_E4typeE
FNDA:18666,_ZSt7forwardIRPSt13_Rb_tree_nodeIPKN5Catch12TestCaseInfoEEEOT_RNSt16remove_referenceIS8_E4typeE
FNDA:305,_ZSt7forwardIRPSt13_Rb_tree_nodeIPKN5Catch14TestCaseHandleEEEOT_RNSt16remove_referenceIS8_E4typeE
FNDA:0,_ZSt7forwardIRPSt13_Rb_tree_nodeISt4pairIKN5Catch9StringRefENS2_7TagInfoEEEEOT_RNSt16remove_referenceISA_E4typeE
FNDA:0,_ZSt7forwardIRPSt13_Rb_tree_nodeISt4pairIKN5Catch9StringRefESt6vectorIPKNS2_22CumulativeReporterBase4NodeINS2_13TestCaseStatsENS6_11SectionNodeEEESaISC_EEEEEOT_RNSt16remove_referenceISJ_E4typeE
FNDA:306,_ZSt7forwardIRPSt13_Rb_tree_nodeISt4pairIKNSt7__cxx1112basic_stringIcSt11char_traitsIcESaIcEEEN5Catch6Detail10unique_ptrINS9_16IReporterFactoryEEEEEEOT_RNSt16remove_referenceISI_E4typeE
FNDA:0,_ZSt7forwardIRPSt13_Rb_tree_nodeISt4pairIKNSt7__cxx1112basic_stringIcSt11char_traitsIcESaIcEEEN5Catch8TagAliasEEEEOT_RNSt16remove_referenceISF_E4typeE
FNDA:0,_ZSt7forwardIRPSt13_Rb_tree_nodeISt4pairIKNSt7__cxx1112basic_stringIcSt11char_traitsIcESaIcEEES7_EEEOT_RNSt16remove_referenceISD_E4typeE
FNDA:0,_ZSt7forwardIRPSt13_Rb_tree_nodeISt4pairIKllEEEOT_RNSt16remove_referenceIS7_E4typeE
FNDA:19277,_ZSt7forwardIRPSt18_Rb_tree_node_baseEOT_RNSt16remove_referenceIS3_E4typeE
FNDA:4,_ZSt7forwardIRSoEOT_RNSt16remove_referenceIS1_E4typeE
FNDA:0,_ZSt7forwardIRSt17_Rb_tree_iteratorIN5Catch9StringRefEEEOT_RNSt16remove_referenceIS5_E4typeE
FNDA:18666,_ZSt7forwardIRSt17_Rb_tree_iteratorIPKN5Catch12TestCaseInfoEEEOT_RNSt16remove_referenceIS7_E4typeE
FNDA:0,_ZSt7forwardIRSt17_Rb_tree_iteratorISt4pairIKN5Catch9StringRefENS2_7TagInfoEEEEOT_RNSt16remove_referenceIS9_E4typeE
FNDA:0,_ZSt7forwardIRSt17_Rb_tree_iteratorISt4pairIKNSt7__cxx1112basic_stringIcSt11char_traitsIcESaIcEEEN5Catch6Detail10unique_ptrINS9_16IReporterFactoryEEEEEEOT_RNSt16remove_referenceISH_E4typeE
FNDA:0,_ZSt7forwardIRSt17_Rb_tree_iteratorISt4pairIKNSt7__cxx1112basic_stringIcSt11char_traitsIcESaIcEEEN5Catch8TagAliasEEEEOT_RNSt16remove_referenceISE_E4typeE
FNDA:0,_ZSt7forwardIRSt17_Rb_tree_iteratorISt4pairIKNSt7__cxx1112basic_stringIcSt11char_traitsIcESaIcEEES7_EEEOT_RNSt16remove_referenceISC_E4typeE
FNDA:4284,_ZSt7forwardIRSt6vectorINSt7__cxx1112basic_stringIcSt11char_traitsIcESaIcEEESaIS6_EEEOT_RNSt16remove_referenceISA_E4typeE
FNDA:5,_ZSt7forwardIRZL22CATCH2_INTERNAL_TEST_6vEUlRKSt6vectorIdSaIdEEE_EOT_RNSt16remove_referenceIS7_E4typeE
FNDA:5,_ZSt7forwardIRZL22CATCH2_INTERNAL_TEST_8vEUlRKSt6vectorIdSaIdEEE_EOT_RNSt16remove_referenceIS7_E4typeE
FNDA:5,_ZSt7forwardIRZL23CATCH2_INTERNAL_TEST_12vEUlRKSt6vectorIdSaIdEEE_EOT_RNSt16remove_referenceIS7_E4typeE
FNDA:5,_ZSt7forwardIRZL23CATCH2_INTERNAL_TEST_14vEUlRKSt6vectorIdSaIdEEE_EOT_RNSt16remove_referenceIS7_E4typeE
FNDA:5,_ZSt7forwardIRZL23CATCH2_INTERNAL_TEST_16vEUlRKSt6vectorIdSaIdEEE_EOT_RNSt16remove_referenceIS7_E4typeE
FNDA:5,_ZSt7forwardIRZL23CATCH2_INTERNAL_TEST_28vEUlRKSt6vectorIdSaIdEEE_EOT_RNSt16remove_referenceIS7_E4typeE
FNDA:5,_ZSt7forwardIRZL23CATCH2_INTERNAL_TEST_42vEUlRKSt6vectorIdSaIdEEE_EOT_RNSt16remove_referenceIS7_E4typeE
FNDA:5,_ZSt7forwardIRZL23CATCH2_INTERNAL_TEST_44vEUlRKSt6vectorIdSaIdEEE_EOT_RNSt16remove_referenceIS7_E4typeE
FNDA:19952420,_ZSt7forwardIRbEOT_RNSt16remove_referenceIS1_E4typeE
FNDA:322526565,_ZSt7forwardIRdEOT_RNSt16remove_referenceIS1_E4typeE
FNDA:0,_ZSt7forwardIRiEOT_RNSt16remove_referenceIS1_E4typeE
FNDA:4284,_ZSt7forwardIRjEOT_RNSt16remove_referenceIS1_E4typeE
FNDA:2142,_ZSt7forwardIRlEOT_RNSt16remove_referenceIS1_E4typeE
FNDA:8580,_ZSt7forwardIRmEOT_RNSt16remove_referenceIS1_E4typeE
FNDA:0,_ZSt7forwardISt17_Rb_tree_iteratorIN5Catch9StringRefEEEOT_RNSt16remove_referenceIS4_E4typeE
FNDA:18666,_ZSt7forwardISt17_Rb_tree_iteratorIPKN5Catch12TestCaseInfoEEEOT_RNSt16remove_referenceIS6_E4typeE
FNDA:0,_ZSt7forwardISt17_Rb_tree_iteratorIPKN5Catch14TestCaseHandleEEEOT_RNSt16remove_referenceIS6_E4typeE
FNDA:0,_ZSt7forwardISt4pairIN5Catch9StringRefENS1_7TagInfoEEEOT_RNSt16remove_referenceIS5_E4typeE
FNDA:0,_ZSt7forwardISt4pairINSt7__cxx1112basic_stringIcSt11char_traitsIcESaIcEEEN5Catch8TagAliasEEEOT_RNSt16remove_referenceISA_E4typeE
FNDA:0,_ZSt7forwardISt4pairINSt7__cxx1112basic_stringIcSt11char_traitsIcESaIcEEES6_EEOT_RNSt16remove_referenceIS8_E4typeE
FNDA:0,_ZSt7forwardISt4pairISt6vectorIdSaIdEEdEEOT_RNSt16remove_referenceIS5_E4typeE
FNDA:0,_ZSt7forwardISt4pairIccEEOT_RNSt16remove_referenceIS2_E4typeE
FNDA:0,_ZSt7forwardISt4pairIiN5Catch9StringRefEEEOT_RNSt16remove_referenceIS4_E4typeE
FNDA:0,_ZSt7forwardISt4pairIlSt6vectorINSt7__cxx119sub_matchIN9__gnu_cxx17__normal_iteratorIPKcNS2_12basic_stringIcSt11char_traitsIcESaIcEEEEEEESaISE_EEEEOT_RNSt16remove_referenceISI_E4typeE
FNDA:0,_ZSt7forwardISt4pairImN5Catch14TestCaseHandleEEEOT_RNSt16remove_referenceIS4_E4typeE
FNDA:1150470388,_ZSt7forwardISt5tupleIJEEEOT_RNSt16remove_referenceIS2_E4typeE
FNDA:0,_ZSt7forwardISt5tupleIJON5Catch9StringRefEEEEOT_RNSt16remove_referenceIS5_E4typeE
FNDA:16524,_ZSt7forwardISt5tupleIJONSt7__cxx1112basic_stringIcSt11char_traitsIcESaIcEEEEEEOT_RNSt16remove_referenceIS9_E4typeE
FNDA:0,_ZSt7forwardISt5tupleIJRKlEEEOT_RNSt16remove_referenceIS4_E4typeE
FNDA:1150453864,_ZSt7forwardISt5tupleIJRKmEEEOT_RNSt16remove_referenceIS4_E4typeE
FNDA:189902,_ZSt7forwardISt6vectorIdSaIdEEEOT_RNSt16remove_referenceIS3_E4typeE
FNDA:5,_ZSt7forwardIZL23CATCH2_INTERNAL_TEST_16vEUlRKSt6vectorIdSaIdEEE_EOT_RNSt16remove_referenceIS6_E4typeE
FNDA:5,_ZSt7forwardIZL23CATCH2_INTERNAL_TEST_18vEUlRKSt6vectorIdSaIdEEE_EOT_RNSt16remove_referenceIS6_E4typeE
FNDA:5,_ZSt7forwardIZL23CATCH2_INTERNAL_TEST_20vEUlRKSt6vectorIdSaIdEEE_EOT_RNSt16remove_referenceIS6_E4typeE
FNDA:5,_ZSt7forwardIZL23CATCH2_INTERNAL_TEST_22vEUlRKSt6vectorIdSaIdEEE_EOT_RNSt16remove_referenceIS6_E4typeE
FNDA:5,_ZSt7forwardIZL23CATCH2_INTERNAL_TEST_24vEUlRKSt6vectorIdSaIdEEE_EOT_RNSt16remove_referenceIS6_E4typeE
FNDA:33048,_ZSt7forwardIZNK5Catch5Clara6Parser5parseERKNSt7__cxx1112basic_stringIcSt11char_traitsIcESaIcEEENS1_6Detail11TokenStreamEE10ParserInfoEOT_RNSt16remove_referenceISE_E4typeE
FNDA:76386194,_ZSt7forwardIbEOT_RNSt16remove_referenceIS0_E4typeE
FNDA:0,_ZSt7forwardIcEOT_RNSt16remove_referenceIS0_E4typeE
FNDA:48142235,_ZSt7forwardIdEOT_RNSt16remove_referenceIS0_E4typeE
FNDA:1660,_ZSt7forwardIiEOT_RNSt16remove_referenceIS0_E4typeE
FNDA:0,_ZSt7forwardIjEOT_RNSt16remove_referenceIS0_E4typeE
FNDA:0,_ZSt7forwardImEOT_RNSt16remove_referenceIS0_E4typeE
FNDA:145,_ZSt4moveIRN4givp10GivpConfigEEONSt16remove_referenceIT_E4typeEOS4_
FNDA:0,_ZSt4moveIRN5Catch11MessageInfoEEONSt16remove_referenceIT_E4typeEOS4_
FNDA:0,_ZSt4moveIRN5Catch11SectionInfoEEONSt16remove_referenceIT_E4typeEOS4_
FNDA:611,_ZSt4moveIRN5Catch12ReporterSpecEEONSt16remove_referenceIT_E4typeEOS4_
FNDA:0,_ZSt4moveIRN5Catch12_GLOBAL__N_113BySectionInfoEEONSt16remove_referenceIT_E4typeEOS5_
FNDA:0,_ZSt4moveIRN5Catch12_GLOBAL__N_113SummaryColumnEEONSt16remove_referenceIT_E4typeEOS5_
FNDA:0,_ZSt4moveIRN5Catch13ScopedMessageEEONSt16remove_referenceIT_E4typeEOS4_
FNDA:0,_ZSt4moveIRN5Catch14SectionEndInfoEEONSt16remove_referenceIT_E4typeEOS4_
FNDA:19278,_ZSt4moveIRN5Catch14TestCaseHandleEEONSt16remove_referenceIT_E4typeEOS4_
FNDA:0,_ZSt4moveIRN5Catch19ListenerDescriptionEEONSt16remove_referenceIT_E4typeEOS4_
FNDA:0,_ZSt4moveIRN5Catch19ReporterDescriptionEEONSt16remove_referenceIT_E4typeEOS4_
FNDA:306,_ZSt4moveIRN5Catch21ProcessedReporterSpecEEONSt16remove_referenceIT_E4typeEOS4_
FNDA:0,_ZSt4moveIRN5Catch3TagEEONSt16remove_referenceIT_E4typeEOS4_
FNDA:0,_ZSt4moveIRN5Catch5Clara3ArgEEONSt16remove_referenceIT_E4typeEOS5_
FNDA:29682,_ZSt4moveIRN5Catch5Clara3OptEEONSt16remove_referenceIT_E4typeEOS5_
FNDA:0,_ZSt4moveIRN5Catch5Clara6Detail11HelpColumnsEEONSt16remove_referenceIT_E4typeEOS6_
FNDA:308,_ZSt4moveIRN5Catch5Clara6Detail5TokenEEONSt16remove_referenceIT_E4typeEOS6_
FNDA:0,_ZSt4moveIRN5Catch6Colour4CodeEEONSt16remove_referenceIT_E4typeEOS5_
FNDA:0,_ZSt4moveIRN5Catch6Detail10unique_ptrIKNS0_20IExceptionTranslatorEEEEONSt16remove_referenceIT_E4typeEOS8_
FNDA:37944,_ZSt4moveIRN5Catch6Detail10unique_ptrINS0_12ITestInvokerEEEEONSt16remove_referenceIT_E4typeEOS7_
FNDA:37944,_ZSt4moveIRN5Catch6Detail10unique_ptrINS0_12TestCaseInfoEEEEONSt16remove_referenceIT_E4typeEOS7_
FNDA:0,_ZSt4moveIRN5Catch6Detail10unique_ptrINS0_14IEventListenerEEEEONSt16remove_referenceIT_E4typeEOS7_
FNDA:305,_ZSt4moveIRN5Catch6Detail10unique_ptrINS0_16TestCaseTracking8ITrackerEEEEONSt16remove_referenceIT_E4typeEOS8_
FNDA:0,_ZSt4moveIRN5Catch6Detail10unique_ptrINS0_20EventListenerFactoryEEEEONSt16remove_referenceIT_E4typeEOS7_
FNDA:0,_ZSt4moveIRN5Catch6Detail10unique_ptrINS0_22CumulativeReporterBase11SectionNodeEEEEONSt16remove_referenceIT_E4typeEOS8_
FNDA:0,_ZSt4moveIRN5Catch6Detail10unique_ptrINS0_22CumulativeReporterBase4NodeINS0_13TestCaseStatsENS3_11SectionNodeEEEEEEONSt16remove_referenceIT_E4typeEOSB_
FNDA:0,_ZSt4moveIRN5Catch6Detail10unique_ptrINS0_8TestSpec7PatternEEEEONSt16remove_referenceIT_E4typeEOS8_
FNDA:0,_ZSt4moveIRN5Catch6Detail10unique_ptrINS1_8EnumInfoEEEEONSt16remove_referenceIT_E4typeEOS7_
FNDA:915,_ZSt4moveIRN5Catch6Detail10unique_ptrINSt7__cxx1119basic_ostringstreamIcSt11char_traitsIcESaIcEEEEEEONSt16remove_referenceIT_E4typeEOSC_
FNDA:0,_ZSt4moveIRN5Catch7TagInfoEEONSt16remove_referenceIT_E4typeEOS4_
FNDA:305,_ZSt4moveIRN5Catch8TestSpec11FilterMatchEEONSt16remove_referenceIT_E4typeEOS5_
FNDA:305,_ZSt4moveIRN5Catch8TestSpec6FilterEEONSt16remove_referenceIT_E4typeEOS5_
FNDA:0,_ZSt4moveIRN5Catch8TextFlow6Column14const_iteratorEEONSt16remove_referenceIT_E4typeEOS6_
FNDA:0,_ZSt4moveIRN5Catch8TextFlow6ColumnEEONSt16remove_referenceIT_E4typeEOS5_
FNDA:5814,_ZSt4moveIRN5Catch9StringRefEEONSt16remove_referenceIT_E4typeEOS4_
FNDA:0,_ZSt4moveIRN9__gnu_cxx5__ops15_Iter_comp_iterIZN4givp6detail28bidirectional_path_relinkingIZL23CATCH2_INTERNAL_TEST_38vEUlRKSt6vectorIdSaIdEEE_NS4_3RngEEESt4pairIS8_dERKT_SA_SA_mRSt8optionalINS4_15EvaluationCacheEERT0_RKSI_INSt6chrono10time_pointINSO_3_V212steady_clockENSO_8durationIlSt5ratioILl1ELl1000000000EEEEEEEEUlmmE_EEEONSt16remove_referenceISF_E4typeEOSF_
FNDA:0,_ZSt4moveIRN9__gnu_cxx5__ops15_Iter_comp_iterIZN4givp6detail28bidirectional_path_relinkingIZL23CATCH2_INTERNAL_TEST_40vEUlRKSt6vectorIdSaIdEEE_NS4_3RngEEESt4pairIS8_dERKT_SA_SA_mRSt8optionalINS4_15EvaluationCacheEERT0_RKSI_INSt6chrono10time_pointINSO_3_V212steady_clockENSO_8durationIlSt5ratioILl1ELl1000000000EEEEEEEEUlmmE_EEEONSt16remove_referenceISF_E4typeEOSF_
FNDA:910,_ZSt4moveIRN9__gnu_cxx5__ops15_Iter_comp_iterIZN4givp6detail28bidirectional_path_relinkingIZNS4_3runIRFdRKSt6vectorIdSaIdEEEEENS3_14OptimizeResultEOT_RKS7_ISt4pairIddESaISI_EENS3_10GivpConfigEEUlSB_E_NS4_3RngEEESH_IS9_dERKSF_SB_SB_mRSt8optionalINS4_15EvaluationCacheEERT0_RKST_INSt6chrono10time_pointINSZ_3_V212steady_clockENSZ_8durationIlSt5ratioILl1ELl1000000000EEEEEEEEUlmmE_EEEONSt16remove_referenceISF_E4typeESG_
FNDA:0,_ZSt4moveIRN9__gnu_cxx5__ops15_Iter_comp_iterIZN4givp6detail28bidirectional_path_relinkingIZNS4_3runIRZL22CATCH2_INTERNAL_TEST_6vEUlRKSt6vectorIdSaIdEEE_EENS3_14OptimizeResultEOT_RKS7_ISt4pairIddESaISI_EENS3_10GivpConfigEEUlSB_E_NS4_3RngEEESH_IS9_dERKSF_SB_SB_mRSt8optionalINS4_15EvaluationCacheEERT0_RKST_INSt6chrono10time_pointINSZ_3_V212steady_clockENSZ_8durationIlSt5ratioILl1ELl1000000000EEEEEEEEUlmmE_EEEONSt16remove_referenceISF_E4typeESG_
FNDA:0,_ZSt4moveIRN9__gnu_cxx5__ops15_Iter_comp_iterIZN4givp6detail28bidirectional_path_relinkingIZNS4_3runIRZL22CATCH2_INTERNAL_TEST_8vEUlRKSt6vectorIdSaIdEEE_EENS3_14OptimizeResultEOT_RKS7_ISt4pairIddESaISI_EENS3_10GivpConfigEEUlSB_E_NS4_3RngEEESH_IS9_dERKSF_SB_SB_mRSt8optionalINS4_15EvaluationCacheEERT0_RKST_INSt6chrono10time_pointINSZ_3_V212steady_clockENSZ_8durationIlSt5ratioILl1ELl1000000000EEEEEEEEUlmmE_EEEONSt16remove_referenceISF_E4typeESG_
FNDA:0,_ZSt4moveIRN9__gnu_cxx5__ops15_Iter_comp_iterIZN4givp6detail28bidirectional_path_relinkingIZNS4_3runIRZL23CATCH2_INTERNAL_TEST_12vEUlRKSt6vectorIdSaIdEEE_EENS3_14OptimizeResultEOT_RKS7_ISt4pairIddESaISI_EENS3_10GivpConfigEEUlSB_E_NS4_3RngEEESH_IS9_dERKSF_SB_SB_mRSt8optionalINS4_15EvaluationCacheEERT0_RKST_INSt6chrono10time_pointINSZ_3_V212steady_clockENSZ_8durationIlSt5ratioILl1ELl1000000000EEEEEEEEUlmmE_EEEONSt16remove_referenceISF_E4typeESG_
FNDA:0,_ZSt4moveIRN9__gnu_cxx5__ops15_Iter_comp_iterIZN4givp6detail28bidirectional_path_relinkingIZNS4_3runIRZL23CATCH2_INTERNAL_TEST_14vEUlRKSt6vectorIdSaIdEEE_EENS3_14OptimizeResultEOT_RKS7_ISt4pairIddESaISI_EENS3_10GivpConfigEEUlSB_E_NS4_3RngEEESH_IS9_dERKSF_SB_SB_mRSt8optionalINS4_15EvaluationCacheEERT0_RKST_INSt6chrono10time_pointINSZ_3_V212steady_clockENSZ_8durationIlSt5ratioILl1ELl1000000000EEEEEEEEUlmmE_EEEONSt16remove_referenceISF_E4typeESG_
FNDA:0,_ZSt4moveIRN9__gnu_cxx5__ops15_Iter_comp_iterIZN4givp6detail28bidirectional_path_relinkingIZNS4_3runIRZL23CATCH2_INTERNAL_TEST_16vEUlRKSt6vectorIdSaIdEEE_EENS3_14OptimizeResultEOT_RKS7_ISt4pairIddESaISI_EENS3_10GivpConfigEEUlSB_E_NS4_3RngEEESH_IS9_dERKSF_SB_SB_mRSt8optionalINS4_15EvaluationCacheEERT0_RKST_INSt6chrono10time_pointINSZ_3_V212steady_clockENSZ_8durationIlSt5ratioILl1ELl1000000000EEEEEEEEUlmmE_EEEONSt16remove_referenceISF_E4typeESG_
FNDA:0,_ZSt4moveIRN9__gnu_cxx5__ops15_Iter_comp_iterIZN4givp6detail28bidirectional_path_relinkingIZNS4_3runIRZL23CATCH2_INTERNAL_TEST_28vEUlRKSt6vectorIdSaIdEEE_EENS3_14OptimizeResultEOT_RKS7_ISt4pairIddESaISI_EENS3_10GivpConfigEEUlSB_E_NS4_3RngEEESH_IS9_dERKSF_SB_SB_mRSt8optionalINS4_15EvaluationCacheEERT0_RKST_INSt6chrono10time_pointINSZ_3_V212steady_clockENSZ_8durationIlSt5ratioILl1ELl1000000000EEEEEEEEUlmmE_EEEONSt16remove_referenceISF_E4typeESG_
FNDA:0,_ZSt4moveIRN9__gnu_cxx5__ops15_Iter_comp_iterIZN4givp6detail28bidirectional_path_relinkingIZNS4_3runIRZL23CATCH2_INTERNAL_TEST_42vEUlRKSt6vectorIdSaIdEEE_EENS3_14OptimizeResultEOT_RKS7_ISt4pairIddESaISI_EENS3_10GivpConfigEEUlSB_E_NS4_3RngEEESH_IS9_dERKSF_SB_SB_mRSt8optionalINS4_15EvaluationCacheEERT0_RKST_INSt6chrono10time_pointINSZ_3_V212steady_clockENSZ_8durationIlSt5ratioILl1ELl1000000000EEEEEEEEUlmmE_EEEONSt16remove_referenceISF_E4typeESG_
FNDA:0,_ZSt4moveIRN9__gnu_cxx5__ops15_Iter_comp_iterIZN4givp6detail28bidirectional_path_relinkingIZNS4_3runIRZL23CATCH2_INTERNAL_TEST_44vEUlRKSt6vectorIdSaIdEEE_EENS3_14OptimizeResultEOT_RKS7_ISt4pairIddESaISI_EENS3_10GivpConfigEEUlSB_E_NS4_3RngEEESH_IS9_dERKSF_SB_SB_mRSt8optionalINS4_15EvaluationCacheEERT0_RKST_INSt6chrono10time_pointINSZ_3_V212steady_clockENSZ_8durationIlSt5ratioILl1ELl1000000000EEEEEEEEUlmmE_EEEONSt16remove_referenceISF_E4typeESG_
FNDA:0,_ZSt4moveIRN9__gnu_cxx5__ops15_Iter_comp_iterIZN4givp6detail28bidirectional_path_relinkingIZNS4_3runIZL23CATCH2_INTERNAL_TEST_16vEUlRKSt6vectorIdSaIdEEE_EENS3_14OptimizeResultEOT_RKS7_ISt4pairIddESaISH_EENS3_10GivpConfigEEUlSB_E_NS4_3RngEEESG_IS9_dERKSE_SB_SB_mRSt8optionalINS4_15EvaluationCacheEERT0_RKSS_INSt6chrono10time_pointINSY_3_V212steady_clockENSY_8durationIlSt5ratioILl1ELl1000000000EEEEEEEEUlmmE_EEEONSt16remove_referenceISE_E4typeESF_
FNDA:0,_ZSt4moveIRN9__gnu_cxx5__ops15_Iter_comp_iterIZN4givp6detail28bidirectional_path_relinkingIZNS4_3runIZL23CATCH2_INTERNAL_TEST_18vEUlRKSt6vectorIdSaIdEEE_EENS3_14OptimizeResultEOT_RKS7_ISt4pairIddESaISH_EENS3_10GivpConfigEEUlSB_E_NS4_3RngEEESG_IS9_dERKSE_SB_SB_mRSt8optionalINS4_15EvaluationCacheEERT0_RKSS_INSt6chrono10time_pointINSY_3_V212steady_clockENSY_8durationIlSt5ratioILl1ELl1000000000EEEEEEEEUlmmE_EEEONSt16remove_referenceISE_E4typeESF_
FNDA:0,_ZSt4moveIRN9__gnu_cxx5__ops15_Iter_comp_iterIZN4givp6detail28bidirectional_path_relinkingIZNS4_3runIZL23CATCH2_INTERNAL_TEST_20vEUlRKSt6vectorIdSaIdEEE_EENS3_14OptimizeResultEOT_RKS7_ISt4pairIddESaISH_EENS3_10GivpConfigEEUlSB_E_NS4_3RngEEESG_IS9_dERKSE_SB_SB_mRSt8optionalINS4_15EvaluationCacheEERT0_RKSS_INSt6chrono10time_pointINSY_3_V212steady_clockENSY_8durationIlSt5ratioILl1ELl1000000000EEEEEEEEUlmmE_EEEONSt16remove_referenceISE_E4typeESF_
FNDA:0,_ZSt4moveIRN9__gnu_cxx5__ops15_Iter_comp_iterIZN4givp6detail28bidirectional_path_relinkingIZNS4_3runIZL23CATCH2_INTERNAL_TEST_22vEUlRKSt6vectorIdSaIdEEE_EENS3_14OptimizeResultEOT_RKS7_ISt4pairIddESaISH_EENS3_10GivpConfigEEUlSB_E_NS4_3RngEEESG_IS9_dERKSE_SB_SB_mRSt8optionalINS4_15EvaluationCacheEERT0_RKSS_INSt6chrono10time_pointINSY_3_V212steady_clockENSY_8durationIlSt5ratioILl1ELl1000000000EEEEEEEEUlmmE_EEEONSt16remove_referenceISE_E4typeESF_
FNDA:0,_ZSt4moveIRN9__gnu_cxx5__ops15_Iter_comp_iterIZN4givp6detail28bidirectional_path_relinkingIZNS4_3runIZL23CATCH2_INTERNAL_TEST_24vEUlRKSt6vectorIdSaIdEEE_EENS3_14OptimizeResultEOT_RKS7_ISt4pairIddESaISH_EENS3_10GivpConfigEEUlSB_E_NS4_3RngEEESG_IS9_dERKSE_SB_SB_mRSt8optionalINS4_15EvaluationCacheEERT0_RKSS_INSt6chrono10time_pointINSY_3_V212steady_clockENSY_8durationIlSt5ratioILl1ELl1000000000EEEEEEEEUlmmE_EEEONSt16remove_referenceISE_E4typeESF_
FNDA:50,_ZSt4moveIRN9__gnu_cxx5__ops15_Iter_comp_iterIZN4givp6detail9ElitePool3addESt6vectorIdSaIdEEdEUlRKT_RKT0_E0_EEEONSt16remove_referenceIS9_E4typeEOS9_
FNDA:485,_ZSt4moveIRN9__gnu_cxx5__ops15_Iter_comp_iterIZN4givp6detail9ElitePool3addESt6vectorIdSaIdEEdEUlRKT_RKT0_E_EEEONSt16remove_referenceIS9_E4typeEOS9_
FNDA:17740494,_ZSt4moveIRN9__gnu_cxx5__ops15_Iter_comp_iterIZN4givp6detailL17neighborhood_flipIZNS4_3runIRFdRKSt6vectorIdSaIdEEEEENS3_14OptimizeResultEOT_RKS7_ISt4pairIddESaISI_EENS3_10GivpConfigEEUlSB_E_NS4_3RngEEESH_IdbERS9_dRKSF_SR_RT0_SB_SB_RSt8optionalINS4_15EvaluationCacheEEmRKSW_INSt6chrono10time_pointINS10_3_V212steady_clockENS10_8durationIlSt5ratioILl1ELl1000000000EEEEEEEEUlmmE_EEEONSt16remove_referenceISF_E4typeESG_
FNDA:1048000,_ZSt4moveIRN9__gnu_cxx5__ops15_Iter_comp_iterIZN4givp6detailL17neighborhood_flipIZNS4_3runIRZL22CATCH2_INTERNAL_TEST_6vEUlRKSt6vectorIdSaIdEEE_EENS3_14OptimizeResultEOT_RKS7_ISt4pairIddESaISI_EENS3_10GivpConfigEEUlSB_E_NS4_3RngEEESH_IdbERS9_dRKSF_SR_RT0_SB_SB_RSt8optionalINS4_15EvaluationCacheEEmRKSW_INSt6chrono10time_pointINS10_3_V212steady_clockENS10_8durationIlSt5ratioILl1ELl1000000000EEEEEEEEUlmmE_EEEONSt16remove_referenceISF_E4typeESG_
FNDA:1506000,_ZSt4moveIRN9__gnu_cxx5__ops15_Iter_comp_iterIZN4givp6detailL17neighborhood_flipIZNS4_3runIRZL22CATCH2_INTERNAL_TEST_8vEUlRKSt6vectorIdSaIdEEE_EENS3_14OptimizeResultEOT_RKS7_ISt4pairIddESaISI_EENS3_10GivpConfigEEUlSB_E_NS4_3RngEEESH_IdbERS9_dRKSF_SR_RT0_SB_SB_RSt8optionalINS4_15EvaluationCacheEEmRKSW_INSt6chrono10time_pointINS10_3_V212steady_clockENS10_8durationIlSt5ratioILl1ELl1000000000EEEEEEEEUlmmE_EEEONSt16remove_referenceISF_E4typeESG_
FNDA:0,_ZSt4moveIRN9__gnu_cxx5__ops15_Iter_comp_iterIZN4givp6detailL17neighborhood_flipIZNS4_3runIRZL23CATCH2_INTERNAL_TEST_12vEUlRKSt6vectorIdSaIdEEE_EENS3_14OptimizeResultEOT_RKS7_ISt4pairIddESaISI_EENS3_10GivpConfigEEUlSB_E_NS4_3RngEEESH_IdbERS9_dRKSF_SR_RT0_SB_SB_RSt8optionalINS4_15EvaluationCacheEEmRKSW_INSt6chrono10time_pointINS10_3_V212steady_clockENS10_8durationIlSt5ratioILl1ELl1000000000EEEEEEEEUlmmE_EEEONSt16remove_referenceISF_E4typeESG_
FNDA:0,_ZSt4moveIRN9__gnu_cxx5__ops15_Iter_comp_iterIZN4givp6detailL17neighborhood_flipIZNS4_3runIRZL23CATCH2_INTERNAL_TEST_14vEUlRKSt6vectorIdSaIdEEE_EENS3_14OptimizeResultEOT_RKS7_ISt4pairIddESaISI_EENS3_10GivpConfigEEUlSB_E_NS4_3RngEEESH_IdbERS9_dRKSF_SR_RT0_SB_SB_RSt8optionalINS4_15EvaluationCacheEEmRKSW_INSt6chrono10time_pointINS10_3_V212steady_clockENS10_8durationIlSt5ratioILl1ELl1000000000EEEEEEEEUlmmE_EEEONSt16remove_referenceISF_E4typeESG_
FNDA:0,_ZSt4moveIRN9__gnu_cxx5__ops15_Iter_comp_iterIZN4givp6detailL17neighborhood_flipIZNS4_3runIRZL23CATCH2_INTERNAL_TEST_16vEUlRKSt6vectorIdSaIdEEE_EENS3_14OptimizeResultEOT_RKS7_ISt4pairIddESaISI_EENS3_10GivpConfigEEUlSB_E_NS4_3RngEEESH_IdbERS9_dRKSF_SR_RT0_SB_SB_RSt8optionalINS4_15EvaluationCacheEEmRKSW_INSt6chrono10time_pointINS10_3_V212steady_clockENS10_8durationIlSt5ratioILl1ELl1000000000EEEEEEEEUlmmE_EEEONSt16remove_referenceISF_E4typeESG_
FNDA:11550,_ZSt4moveIRN9__gnu_cxx5__ops15_Iter_comp_iterIZN4givp6detailL17neighborhood_flipIZNS4_3runIRZL23CATCH2_INTERNAL_TEST_28vEUlRKSt6vectorIdSaIdEEE_EENS3_14OptimizeResultEOT_RKS7_ISt4pairIddESaISI_EENS3_10GivpConfigEEUlSB_E_NS4_3RngEEESH_IdbERS9_dRKSF_SR_RT0_SB_SB_RSt8optionalINS4_15EvaluationCacheEEmRKSW_INSt6chrono10time_pointINS10_3_V212steady_clockENS10_8durationIlSt5ratioILl1ELl1000000000EEEEEEEEUlmmE_EEEONSt16remove_referenceISF_E4typeESG_
FNDA:1360,_ZSt4moveIRN9__gnu_cxx5__ops15_Iter_comp_iterIZN4givp6detailL17neighborhood_flipIZNS4_3runIRZL23CATCH2_INTERNAL_TEST_42vEUlRKSt6vectorIdSaIdEEE_EENS3_14OptimizeResultEOT_RKS7_ISt4pairIddESaISI_EENS3_10GivpConfigEEUlSB_E_NS4_3RngEEESH_IdbERS9_dRKSF_SR_RT0_SB_SB_RSt8optionalINS4_15EvaluationCacheEEmRKSW_INSt6chrono10time_pointINS10_3_V212steady_clockENS10_8durationIlSt5ratioILl1ELl1000000000EEEEEEEEUlmmE_EEEONSt16remove_referenceISF_E4typeESG_
FNDA:1925,_ZSt4moveIRN9__gnu_cxx5__ops15_Iter_comp_iterIZN4givp6detailL17neighborhood_flipIZNS4_3runIRZL23CATCH2_INTERNAL_TEST_44vEUlRKSt6vectorIdSaIdEEE_EENS3_14OptimizeResultEOT_RKS7_ISt4pairIddESaISI_EENS3_10GivpConfigEEUlSB_E_NS4_3RngEEESH_IdbERS9_dRKSF_SR_RT0_SB_SB_RSt8optionalINS4_15EvaluationCacheEEmRKSW_INSt6chrono10time_pointINS10_3_V212steady_clockENS10_8durationIlSt5ratioILl1ELl1000000000EEEEEEEEUlmmE_EEEONSt16remove_referenceISF_E4typeESG_
FNDA:0,_ZSt4moveIRN9__gnu_cxx5__ops15_Iter_comp_iterIZN4givp6detailL17neighborhood_flipIZNS4_3runIZL23CATCH2_INTERNAL_TEST_16vEUlRKSt6vectorIdSaIdEEE_EENS3_14OptimizeResultEOT_RKS7_ISt4pairIddESaISH_EENS3_10GivpConfigEEUlSB_E_NS4_3RngEEESG_IdbERS9_dRKSE_SQ_RT0_SB_SB_RSt8optionalINS4_15EvaluationCacheEEmRKSV_INSt6chrono10time_pointINSZ_3_V212steady_clockENSZ_8durationIlSt5ratioILl1ELl1000000000EEEEEEEEUlmmE_EEEONSt16remove_referenceISE_E4typeESF_
FNDA:0,_ZSt4moveIRN9__gnu_cxx5__ops15_Iter_comp_iterIZN4givp6detailL17neighborhood_flipIZNS4_3runIZL23CATCH2_INTERNAL_TEST_18vEUlRKSt6vectorIdSaIdEEE_EENS3_14OptimizeResultEOT_RKS7_ISt4pairIddESaISH_EENS3_10GivpConfigEEUlSB_E_NS4_3RngEEESG_IdbERS9_dRKSE_SQ_RT0_SB_SB_RSt8optionalINS4_15EvaluationCacheEEmRKSV_INSt6chrono10time_pointINSZ_3_V212steady_clockENSZ_8durationIlSt5ratioILl1ELl1000000000EEEEEEEEUlmmE_EEEONSt16remove_referenceISE_E4typeESF_
FNDA:0,_ZSt4moveIRN9__gnu_cxx5__ops15_Iter_comp_iterIZN4givp6detailL17neighborhood_flipIZNS4_3runIZL23CATCH2_INTERNAL_TEST_20vEUlRKSt6vectorIdSaIdEEE_EENS3_14OptimizeResultEOT_RKS7_ISt4pairIddESaISH_EENS3_10GivpConfigEEUlSB_E_NS4_3RngEEESG_IdbERS9_dRKSE_SQ_RT0_SB_SB_RSt8optionalINS4_15EvaluationCacheEEmRKSV_INSt6chrono10time_pointINSZ_3_V212steady_clockENSZ_8durationIlSt5ratioILl1ELl1000000000EEEEEEEEUlmmE_EEEONSt16remove_referenceISE_E4typeESF_
FNDA:0,_ZSt4moveIRN9__gnu_cxx5__ops15_Iter_comp_iterIZN4givp6detailL17neighborhood_flipIZNS4_3runIZL23CATCH2_INTERNAL_TEST_22vEUlRKSt6vectorIdSaIdEEE_EENS3_14OptimizeResultEOT_RKS7_ISt4pairIddESaISH_EENS3_10GivpConfigEEUlSB_E_NS4_3RngEEESG_IdbERS9_dRKSE_SQ_RT0_SB_SB_RSt8optionalINS4_15EvaluationCacheEEmRKSV_INSt6chrono10time_pointINSZ_3_V212steady_clockENSZ_8durationIlSt5ratioILl1ELl1000000000EEEEEEEEUlmmE_EEEONSt16remove_referenceISE_E4typeESF_
FNDA:0,_ZSt4moveIRN9__gnu_cxx5__ops15_Iter_comp_iterIZN4givp6detailL17neighborhood_flipIZNS4_3runIZL23CATCH2_INTERNAL_TEST_24vEUlRKSt6vectorIdSaIdEEE_EENS3_14OptimizeResultEOT_RKS7_ISt4pairIddESaISH_EENS3_10GivpConfigEEUlSB_E_NS4_3RngEEESG_IdbERS9_dRKSE_SQ_RT0_SB_SB_RSt8optionalINS4_15EvaluationCacheEEmRKSV_INSt6chrono10time_pointINSZ_3_V212steady_clockENSZ_8durationIlSt5ratioILl1ELl1000000000EEEEEEEEUlmmE_EEEONSt16remove_referenceISE_E4typeESF_
FNDA:0,_ZSt4moveIRN9__gnu_cxx5__ops15_Iter_comp_iterIZN5Catch9sortTestsERKNS3_7IConfigERKSt6vectorINS3_14TestCaseHandleESaIS8_EEEUlRKS8_SE_E_EEEONSt16remove_referenceIT_E4typeEOSJ_
FNDA:0,_ZSt4moveIRN9__gnu_cxx5__ops15_Iter_comp_iterIZN5Catch9sortTestsERKNS3_7IConfigERKSt6vectorINS3_14TestCaseHandleESaIS8_EEEUlRKSt4pairImS8_ESG_E_EEEONSt16remove_referenceIT_E4typeEOSL_
FNDA:0,_ZSt4moveIRN9__gnu_cxx5__ops15_Iter_less_iterEEONSt16remove_referenceIT_E4typeEOS5_
FNDA:1220,_ZSt4moveIRNSt12_Vector_baseIN5Catch10ColumnInfoESaIS2_EE12_Vector_implEEONSt16remove_referenceIT_E4typeEOS8_
FNDA:0,_ZSt4moveIRNSt12_Vector_baseIN5Catch14TestCaseHandleESaIS2_EE12_Vector_implEEONSt16remove_referenceIT_E4typeEOS8_
FNDA:22644,_ZSt4moveIRNSt12_Vector_baseIN5Catch5Clara3ArgESaIS3_EE12_Vector_implEEONSt16remove_referenceIT_E4typeEOS9_
FNDA:22644,_ZSt4moveIRNSt12_Vector_baseIN5Catch5Clara3OptESaIS3_EE12_Vector_implEEONSt16remove_referenceIT_E4typeEOS9_
FNDA:112498,_ZSt4moveIRNSt12_Vector_baseIN5Catch5Clara6Detail5TokenESaIS4_EE12_Vector_implEEONSt16remove_referenceIT_E4typeEOSA_
FNDA:1220,_ZSt4moveIRNSt12_Vector_baseIN5Catch6Detail10unique_ptrINS1_8TestSpec7PatternEEESaIS6_EE12_Vector_implEEONSt16remove_referenceIT_E4typeEOSC_
FNDA:612,_ZSt4moveIRNSt12_Vector_baseIN5Catch8TestSpec6FilterESaIS3_EE12_Vector_implEEONSt16remove_referenceIT_E4typeEOS9_
FNDA:0,_ZSt4moveIRNSt12_Vector_baseIN5Catch8TextFlow6ColumnESaIS3_EE12_Vector_implEEONSt16remove_referenceIT_E4typeEOS9_
FNDA:59364,_ZSt4moveIRNSt12_Vector_baseIN5Catch9StringRefESaIS2_EE12_Vector_implEEONSt16remove_referenceIT_E4typeEOS8_
FNDA:612,_ZSt4moveIRNSt12_Vector_baseINSt7__cxx1112basic_stringIcSt11char_traitsIcESaIcEEESaIS6_EE12_Vector_implEEONSt16remove_referenceIT_E4typeEOSC_
FNDA:0,_ZSt4moveIRNSt12_Vector_baseINSt7__cxx1112regex_traitsIcE10_RegexMaskESaIS4_EE12_Vector_implEEONSt16remove_referenceIT_E4typeEOSA_
FNDA:0,_ZSt4moveIRNSt12_Vector_baseINSt7__cxx119sub_matchIN9__gnu_cxx17__normal_iteratorIPKcNS1_12basic_stringIcSt11char_traitsIcESaIcEEEEEEESaISD_EE12_Vector_implEEONSt16remove_referenceIT_E4typeEOSJ_
FNDA:610,_ZSt4moveIRNSt12_Vector_baseIPKN5Catch14TestCaseHandleESaIS4_EE12_Vector_implEEONSt16remove_referenceIT_E4typeEOSA_
FNDA:0,_ZSt4moveIRNSt12_Vector_baseISt4pairINSt7__cxx1112basic_stringIcSt11char_traitsIcESaIcEEES7_ESaIS8_EE12_Vector_implEEONSt16remove_referenceIT_E4typeEOSE_
FNDA:0,_ZSt4moveIRNSt12_Vector_baseISt4pairIccESaIS2_EE12_Vector_implEEONSt16remove_referenceIT_E4typeEOS8_
FNDA:0,_ZSt4moveIRNSt12_Vector_baseISt4pairIlSt6vectorINSt7__cxx119sub_matchIN9__gnu_cxx17__normal_iteratorIPKcNS3_12basic_stringIcSt11char_traitsIcESaIcEEEEEEESaISF_EEESaISI_EE12_Vector_implEEONSt16remove_referenceIT_E4typeEOSO_
FNDA:0,_ZSt4moveIRNSt12_Vector_baseIcSaIcEE12_Vector_implEEONSt16remove_referenceIT_E4typeEOS6_
FNDA:143452,_ZSt4moveIRNSt12_Vector_baseIdSaIdEE12_Vector_implEEONSt16remove_referenceIT_E4typeEOS6_
FNDA:0,_ZSt4moveIRNSt15__exception_ptr13exception_ptrEEONSt16remove_referenceIT_E4typeEOS4_
FNDA:3140,_ZSt4moveIRNSt7__cxx1112basic_stringIcSt11char_traitsIcESaIcEEEEONSt16remove_referenceIT_E4typeEOS8_
FNDA:0,_ZSt4moveIRNSt7__cxx1112regex_traitsIcE10_RegexMaskEEONSt16remove_referenceIT_E4typeEOS6_
FNDA:0,_ZSt4moveIRNSt8__detail15_BracketMatcherINSt7__cxx1112regex_traitsIcEELb0ELb0EEEEONSt16remove_referenceIT_E4typeEOS8_
FNDA:0,_ZSt4moveIRNSt8__detail15_BracketMatcherINSt7__cxx1112regex_traitsIcEELb0ELb1EEEEONSt16remove_referenceIT_E4typeEOS8_
FNDA:0,_ZSt4moveIRNSt8__detail15_BracketMatcherINSt7__cxx1112regex_traitsIcEELb1ELb0EEEEONSt16remove_referenceIT_E4typeEOS8_
FNDA:0,_ZSt4moveIRNSt8__detail15_BracketMatcherINSt7__cxx1112regex_traitsIcEELb1ELb1EEEEONSt16remove_referenceIT_E4typeEOS8_
FNDA:0,_ZSt4moveIRNSt8__detail6_StateIcEEEONSt16remove_referenceIT_E4typeEOS5_
FNDA:0,_ZSt4moveIRNSt8__detail9_StateSeqINSt7__cxx1112regex_traitsIcEEEEEONSt16remove_referenceIT_E4typeEOS8_
FNDA:0,_ZSt4moveIRPFbRKSt9_Any_dataOcEEONSt16remove_referenceIT_E4typeEOS8_
FNDA:0,_ZSt4moveIRPFbRSt9_Any_dataRKS0_St18_Manager_operationEEONSt16remove_referenceIT_E4typeEOS9_
FNDA:0,_ZSt4moveIRPKN5Catch10ColourImplEEONSt16remove_referenceIT_E4typeEOS6_
FNDA:0,_ZSt4moveIRPKN5Catch22CumulativeReporterBase4NodeINS0_13TestCaseStatsENS1_11SectionNodeEEEEONSt16remove_referenceIT_E4typeEOSA_
FNDA:0,_ZSt4moveIRPKNSt8__detail4_NFAINSt7__cxx1112regex_traitsIcEEEEEONSt16remove_referenceIT_E4typeEOSA_
FNDA:18666,_ZSt4moveIRPN5Catch12TestCaseInfoEEONSt16remove_referenceIT_E4typeEOS5_
FNDA:0,_ZSt4moveIRPN5Catch16TestCaseTracking8ITrackerEEONSt16remove_referenceIT_E4typeEOS6_
FNDA:0,_ZSt4moveIRPN5Catch5Clara3ArgEEONSt16remove_referenceIT_E4typeEOS6_
FNDA:0,_ZSt4moveIRPN5Catch5Clara3OptEEONSt16remove_referenceIT_E4typeEOS6_
FNDA:1836,_ZSt4moveIRPN5Catch5Clara6Detail17BoundValueRefBaseEEONSt16remove_referenceIT_E4typeEOS7_
FNDA:0,_ZSt4moveIRPN5Catch5Clara6Detail8BoundRefEEONSt16remove_referenceIT_E4typeEOS7_
FNDA:0,_ZSt4moveIRPN5Catch9StringRefEEONSt16remove_referenceIT_E4typeEOS5_
FNDA:918,_ZSt4moveIRPNSt7__cxx1112basic_stringIcSt11char_traitsIcESaIcEEEEONSt16remove_referenceIT_E4typeEOS9_
FNDA:306,_ZSt4moveIRSaIN5Catch14TestCaseHandleEEEONSt16remove_referenceIT_E4typeEOS5_
FNDA:306,_ZSt4moveIRSaIN5Catch5Clara3ArgEEEONSt16remove_referenceIT_E4typeEOS6_
FNDA:306,_ZSt4moveIRSaIN5Catch5Clara3OptEEEONSt16remove_referenceIT_E4typeEOS6_
FNDA:610,_ZSt4moveIRSaIN5Catch6Detail10unique_ptrINS0_8TestSpec7PatternEEEEEONSt16remove_referenceIT_E4typeEOS9_
FNDA:305,_ZSt4moveIRSaIN5Catch8TestSpec11FilterMatchEEEONSt16remove_referenceIT_E4typeEOS6_
FNDA:306,_ZSt4moveIRSaIN5Catch8TestSpec6FilterEEEONSt16remove_referenceIT_E4typeEOS6_
FNDA:0,_ZSt4moveIRSaIN5Catch9StringRefEEEONSt16remove_referenceIT_E4typeEOS5_
FNDA:306,_ZSt4moveIRSaINSt7__cxx1112basic_stringIcSt11char_traitsIcESaIcEEEEEONSt16remove_referenceIT_E4typeEOS9_
FNDA:0,_ZSt4moveIRSaINSt7__cxx119sub_matchIN9__gnu_cxx17__normal_iteratorIPKcNS0_12basic_stringIcSt11char_traitsIcESaIcEEEEEEEEEONSt16remove_referenceIT_E4typeEOSG_
FNDA:306,_ZSt4moveIRSaISt13_Rb_tree_nodeIPKN5Catch12TestCaseInfoEEEEONSt16remove_referenceIT_E4typeEOS9_
FNDA:305,_ZSt4moveIRSaISt13_Rb_tree_nodeIPKN5Catch14TestCaseHandleEEEEONSt16remove_referenceIT_E4typeEOS9_
FNDA:0,_ZSt4moveIRSaIcEEONSt16remove_referenceIT_E4typeEOS3_
FNDA:3887,_ZSt4moveIRSaIdEEONSt16remove_referenceIT_E4typeEOS3_
FNDA:0,_ZSt4moveIRSt10shared_ptrIKNSt8__detail4_NFAINSt7__cxx1112regex_traitsIcEEEEEEONSt16remove_referenceIT_E4typeEOSB_
FNDA:306,_ZSt4moveIRSt10shared_ptrIN5Catch5Clara6Detail11BoundLambdaIZNS1_21makeCommandLineParserERNS1_10ConfigDataEEUlRKNSt7__cxx1112basic_stringIcSt11char_traitsIcESaIcEEEE0_EEEEONSt16remove_referenceIT_E4typeEOSK_
FNDA:306,_ZSt4moveIRSt10shared_ptrIN5Catch5Clara6Detail11BoundLambdaIZNS1_21makeCommandLineParserERNS1_10ConfigDataEEUlRKNSt7__cxx1112basic_stringIcSt11char_traitsIcESaIcEEEE1_EEEEONSt16remove_referenceIT_E4typeEOSK_
FNDA:306,_ZSt4moveIRSt10shared_ptrIN5Catch5Clara6Detail11BoundLambdaIZNS1_21makeCommandLineParserERNS1_10ConfigDataEEUlRKNSt7__cxx1112basic_stringIcSt11char_traitsIcESaIcEEEE2_EEEEONSt16remove_referenceIT_E4typeEOSK_
FNDA:306,_ZSt4moveIRSt10shared_ptrIN5Catch5Clara6Detail11BoundLambdaIZNS1_21makeCommandLineParserERNS1_10ConfigDataEEUlRKNSt7__cxx1112basic_stringIcSt11char_traitsIcESaIcEEEE3_EEEEONSt16remove_referenceIT_E4typeEOSK_
FNDA:306,_ZSt4moveIRSt10shared_ptrIN5Catch5Clara6Detail11BoundLambdaIZNS1_21makeCommandLineParserERNS1_10ConfigDataEEUlRKNSt7__cxx1112basic_stringIcSt11char_traitsIcESaIcEEEE4_EEEEONSt16remove_referenceIT_E4typeEOSK_
FNDA:306,_ZSt4moveIRSt10shared_ptrIN5Catch5Clara6Detail11BoundLambdaIZNS1_21makeCommandLineParserERNS1_10ConfigDataEEUlRKNSt7__cxx1112basic_stringIcSt11char_traitsIcESaIcEEEE5_EEEEONSt16remove_referenceIT_E4typeEOSK_
FNDA:306,_ZSt4moveIRSt10shared_ptrIN5Catch5Clara6Detail11BoundLambdaIZNS1_21makeCommandLineParserERNS1_10ConfigDataEEUlRKNSt7__cxx1112basic_stringIcSt11char_traitsIcESaIcEEEE7_EEEEONSt16remove_referenceIT_E4typeEOSK_
FNDA:306,_ZSt4moveIRSt10shared_ptrIN5Catch5Clara6Detail11BoundLambdaIZNS1_21makeCommandLineParserERNS1_10ConfigDataEEUlRKNSt7__cxx1112basic_stringIcSt11char_traitsIcESaIcEEEE8_EEEEONSt16remove_referenceIT_E4typeEOSK_
FNDA:306,_ZSt4moveIRSt10shared_ptrIN5Catch5Clara6Detail11BoundLambdaIZNS1_21makeCommandLineParserERNS1_10ConfigDataEEUlbE0_EEEEONSt16remove_referenceIT_E4typeEOSC_
FNDA:306,_ZSt4moveIRSt10shared_ptrIN5Catch5Clara6Detail11BoundLambdaIZNS1_21makeCommandLineParserERNS1_10ConfigDataEEUliE_EEEEONSt16remove_referenceIT_E4typeEOSC_
FNDA:3978,_ZSt4moveIRSt10shared_ptrIN5Catch5Clara6Detail12BoundFlagRefEEEONSt16remove_referenceIT_E4typeEOS8_
FNDA:918,_ZSt4moveIRSt10shared_ptrIN5Catch5Clara6Detail13BoundValueRefINSt7__cxx1112basic_stringIcSt11char_traitsIcESaIcEEEEEEEONSt16remove_referenceIT_E4typeEOSF_
FNDA:612,_ZSt4moveIRSt10shared_ptrIN5Catch5Clara6Detail13BoundValueRefISt6vectorINSt7__cxx1112basic_stringIcSt11char_traitsIcESaIcEEESaISB_EEEEEEONSt16remove_referenceIT_E4typeEOSI_
FNDA:612,_ZSt4moveIRSt10shared_ptrIN5Catch5Clara6Detail13BoundValueRefIdEEEEONSt16remove_referenceIT_E4typeEOS9_
FNDA:612,_ZSt4moveIRSt10shared_ptrIN5Catch5Clara6Detail13BoundValueRefIjEEEEONSt16remove_referenceIT_E4typeEOS9_
FNDA:306,_ZSt4moveIRSt10shared_ptrIN5Catch5Clara6Detail13BoundValueRefIlEEEEONSt16remove_referenceIT_E4typeEOS9_
FNDA:306,_ZSt4moveIRSt10shared_ptrIN5Catch5Clara6Detail15BoundFlagLambdaIZNS1_21makeCommandLineParserERNS1_10ConfigDataEEUlbE_EEEEONSt16remove_referenceIT_E4typeEOSC_
FNDA:306,_ZSt4moveIRSt10shared_ptrIN5Catch5Clara6Detail15BoundFlagLambdaIZNS2_4HelpC4ERbEUlbE_EEEEONSt16remove_referenceIT_E4typeEOSC_
FNDA:306,_ZSt4moveIRSt10shared_ptrIN5Catch5Clara6Detail15BoundManyLambdaIZNS1_21makeCommandLineParserERNS1_10ConfigDataEEUlRKNSt7__cxx1112basic_stringIcSt11char_traitsIcESaIcEEEE6_EEEEONSt16remove_referenceIT_E4typeEOSK_
FNDA:306,_ZSt4moveIRSt10shared_ptrIN5Catch5Clara6Detail15BoundManyLambdaIZNS1_21makeCommandLineParserERNS1_10ConfigDataEEUlRKNSt7__cxx1112basic_stringIcSt11char_traitsIcESaIcEEEE_EEEEONSt16remove_referenceIT_E4typeEOSK_
FNDA:11628,_ZSt4moveIRSt10shared_ptrIN5Catch5Clara6Detail17BoundValueRefBaseEEEONSt16remove_referenceIT_E4typeEOS8_
FNDA:29682,_ZSt4moveIRSt10shared_ptrIN5Catch5Clara6Detail8BoundRefEEEONSt16remove_referenceIT_E4typeEOS8_
FNDA:11628,_ZSt4moveIRSt10shared_ptrINSt7__cxx1112basic_stringIcSt11char_traitsIcESaIcEEEEEONSt16remove_referenceIT_E4typeEOSA_
FNDA:0,_ZSt4moveIRSt10shared_ptrINSt8__detail4_NFAINSt7__cxx1112regex_traitsIcEEEEEEONSt16remove_referenceIT_E4typeEOSA_
FNDA:0,_ZSt4moveIRSt12__shared_ptrIKNSt8__detail4_NFAINSt7__cxx1112regex_traitsIcEEEELN9__gnu_cxx12_Lock_policyE2EEEONSt16remove_referenceIT_E4typeEOSD_
FNDA:306,_ZSt4moveIRSt12__shared_ptrIN5Catch5Clara6Detail13BoundValueRefINSt7__cxx1112basic_stringIcSt11char_traitsIcESaIcEEEEELN9__gnu_cxx12_Lock_policyE2EEEONSt16remove_referenceIT_E4typeEOSH_
FNDA:306,_ZSt4moveIRSt12__shared_ptrIN5Catch5Clara6Detail17BoundValueRefBaseELN9__gnu_cxx12_Lock_policyE2EEEONSt16remove_referenceIT_E4typeEOSA_
FNDA:0,_ZSt4moveIRSt12__shared_ptrIN5Catch5Clara6Detail8BoundRefELN9__gnu_cxx12_Lock_policyE2EEEONSt16remove_referenceIT_E4typeEOSA_
FNDA:306,_ZSt4moveIRSt12__shared_ptrINSt7__cxx1112basic_stringIcSt11char_traitsIcESaIcEEELN9__gnu_cxx12_Lock_policyE2EEEONSt16remove_referenceIT_E4typeEOSC_
FNDA:145,_ZSt4moveIRSt17_Optional_payloadISt6vectorIdSaIdEELb0ELb0ELb0EEEONSt16remove_referenceIT_E4typeEOS7_
FNDA:305,_ZSt4moveIRSt4lessIPKN5Catch14TestCaseHandleEEEONSt16remove_referenceIT_E4typeEOS8_
FNDA:0,_ZSt4moveIRSt4pairINSt7__cxx1112basic_stringIcSt11char_traitsIcESaIcEEES6_EEONSt16remove_referenceIT_E4typeEOSA_
FNDA:20,_ZSt4moveIRSt4pairIPKSt6vectorIdSaIdEEdEEONSt16remove_referenceIT_E4typeEOS9_
FNDA:0,_ZSt4moveIRSt4pairIRKNSt7__cxx1112basic_stringIcSt11char_traitsIcESaIcEEERN5Catch6Detail10unique_ptrINS9_16IReporterFactoryEEEEEONSt16remove_referenceIT_E4typeEOSI_
FNDA:0,_ZSt4moveIRSt4pairIRNSt7__cxx1112basic_stringIcSt11char_traitsIcESaIcEEES7_EEONSt16remove_referenceIT_E4typeEOSB_
FNDA:240,_ZSt4moveIRSt4pairISt6vectorIdSaIdEES3_EEONSt16remove_referenceIT_E4typeEOS7_
FNDA:10390,_ZSt4moveIRSt4pairISt6vectorIdSaIdEEdEEONSt16remove_referenceIT_E4typeEOS7_
FNDA:0,_ZSt4moveIRSt4pairIccEEONSt16remove_referenceIT_E4typeEOS4_
FNDA:96273436,_ZSt4moveIRSt4pairIdbEEONSt16remove_referenceIT_E4typeEOS4_
FNDA:0,_ZSt4moveIRSt4pairIiN5Catch9StringRefEEEONSt16remove_referenceIT_E4typeEOS6_
FNDA:0,_ZSt4moveIRSt4pairIlSt6vectorINSt7__cxx119sub_matchIN9__gnu_cxx17__normal_iteratorIPKcNS2_12basic_stringIcSt11char_traitsIcESaIcEEEEEEESaISE_EEEEONSt16remove_referenceIT_E4typeEOSK_
FNDA:0,_ZSt4moveIRSt4pairImN5Catch14TestCaseHandleEEEONSt16remove_referenceIT_E4typeEOS6_
FNDA:0,_ZSt4moveIRSt6localeEONSt16remove_referenceIT_E4typeEOS3_
FNDA:306,_ZSt4moveIRSt6vectorIN5Catch14TestCaseHandleESaIS2_EEEONSt16remove_referenceIT_E4typeEOS7_
FNDA:306,_ZSt4moveIRSt6vectorIN5Catch5Clara3ArgESaIS3_EEEONSt16remove_referenceIT_E4typeEOS8_
FNDA:306,_ZSt4moveIRSt6vectorIN5Catch5Clara3OptESaIS3_EEEONSt16remove_referenceIT_E4typeEOS8_
FNDA:610,_ZSt4moveIRSt6vectorIN5Catch6Detail10unique_ptrINS1_8TestSpec7PatternEEESaIS6_EEEONSt16remove_referenceIT_E4typeEOSB_
FNDA:305,_ZSt4moveIRSt6vectorIN5Catch8TestSpec11FilterMatchESaIS3_EEEONSt16remove_referenceIT_E4typeEOS8_
FNDA:306,_ZSt4moveIRSt6vectorIN5Catch8TestSpec6FilterESaIS3_EEEONSt16remove_referenceIT_E4typeEOS8_
FNDA:0,_ZSt4moveIRSt6vectorIN5Catch9StringRefESaIS2_EEEONSt16remove_referenceIT_E4typeEOS7_
FNDA:306,_ZSt4moveIRSt6vectorINSt7__cxx1112basic_stringIcSt11char_traitsIcESaIcEEESaIS6_EEEONSt16remove_referenceIT_E4typeEOSB_
FNDA:0,_ZSt4moveIRSt6vectorINSt7__cxx119sub_matchIN9__gnu_cxx17__normal_iteratorIPKcNS1_12basic_stringIcSt11char_traitsIcESaIcEEEEEEESaISD_EEEONSt16remove_referenceIT_E4typeEOSI_
FNDA:0,_ZSt4moveIRSt6vectorISt4pairIlS0_INSt7__cxx119sub_matchIN9__gnu_cxx17__normal_iteratorIPKcNS2_12basic_stringIcSt11char_traitsIcESaIcEEEEEEESaISE_EEESaISH_EEEONSt16remove_referenceIT_E4typeEOSM_
FNDA:136003,_ZSt4moveIRSt6vectorIdSaIdEEEONSt16remove_referenceIT_E4typeEOS5_
FNDA:0,_ZSt4moveIRSt8functionIFbcEEEONSt16remove_referenceIT_E4typeEOS5_
FNDA:0,_ZSt4moveIRSt9_Any_dataEONSt16remove_referenceIT_E4typeEOS3_
FNDA:0,_ZSt4moveIRZN4givp6detail28bidirectional_path_relinkingIZL23CATCH2_INTERNAL_TEST_38vEUlRKSt6vectorIdSaIdEEE_NS1_3RngEEESt4pairIS5_dERKT_S7_S7_mRSt8optionalINS1_15EvaluationCacheEERT0_RKSF_INSt6chrono10time_pointINSL_3_V212steady_clockENSL_8durationIlSt5ratioILl1ELl1000000000EEEEEEEEUlmmE_EONSt16remove_referenceISC_E4typeEOSC_
FNDA:0,_ZSt4moveIRZN4givp6detail28bidirectional_path_relinkingIZL23CATCH2_INTERNAL_TEST_40vEUlRKSt6vectorIdSaIdEEE_NS1_3RngEEESt4pairIS5_dERKT_S7_S7_mRSt8optionalINS1_15EvaluationCacheEERT0_RKSF_INSt6chrono10time_pointINSL_3_V212steady_clockENSL_8durationIlSt5ratioILl1ELl1000000000EEEEEEEEUlmmE_EONSt16remove_referenceISC_E4typeEOSC_
FNDA:980,_ZSt4moveIRZN4givp6detail28bidirectional_path_relinkingIZNS1_3runIRFdRKSt6vectorIdSaIdEEEEENS0_14OptimizeResultEOT_RKS4_ISt4pairIddESaISF_EENS0_10GivpConfigEEUlS8_E_NS1_3RngEEESE_IS6_dERKSC_S8_S8_mRSt8optionalINS1_15EvaluationCacheEERT0_RKSQ_INSt6chrono10time_pointINSW_3_V212steady_clockENSW_8durationIlSt5ratioILl1ELl1000000000EEEEEEEEUlmmE_EONSt16remove_referenceISC_E4typeESD_
FNDA:0,_ZSt4moveIRZN4givp6detail28bidirectional_path_relinkingIZNS1_3runIRZL22CATCH2_INTERNAL_TEST_6vEUlRKSt6vectorIdSaIdEEE_EENS0_14OptimizeResultEOT_RKS4_ISt4pairIddESaISF_EENS0_10GivpConfigEEUlS8_E_NS1_3RngEEESE_IS6_dERKSC_S8_S8_mRSt8optionalINS1_15EvaluationCacheEERT0_RKSQ_INSt6chrono10time_pointINSW_3_V212steady_clockENSW_8durationIlSt5ratioILl1ELl1000000000EEEEEEEEUlmmE_EONSt16remove_referenceISC_E4typeESD_
FNDA:0,_ZSt4moveIRZN4givp6detail28bidirectional_path_relinkingIZNS1_3runIRZL22CATCH2_INTERNAL_TEST_8vEUlRKSt6vectorIdSaIdEEE_EENS0_14OptimizeResultEOT_RKS4_ISt4pairIddESaISF_EENS0_10GivpConfigEEUlS8_E_NS1_3RngEEESE_IS6_dERKSC_S8_S8_mRSt8optionalINS1_15EvaluationCacheEERT0_RKSQ_INSt6chrono10time_pointINSW_3_V212steady_clockENSW_8durationIlSt5ratioILl1ELl1000000000EEEEEEEEUlmmE_EONSt16remove_referenceISC_E4typeESD_
FNDA:0,_ZSt4moveIRZN4givp6detail28bidirectional_path_relinkingIZNS1_3runIRZL23CATCH2_INTERNAL_TEST_12vEUlRKSt6vectorIdSaIdEEE_EENS0_14OptimizeResultEOT_RKS4_ISt4pairIddESaISF_EENS0_10GivpConfigEEUlS8_E_NS1_3RngEEESE_IS6_dERKSC_S8_S8_mRSt8optionalINS1_15EvaluationCacheEERT0_RKSQ_INSt6chrono10time_pointINSW_3_V212steady_clockENSW_8durationIlSt5ratioILl1ELl1000000000EEEEEEEEUlmmE_EONSt16remove_referenceISC_E4typeESD_
FNDA:0,_ZSt4moveIRZN4givp6detail28bidirectional_path_relinkingIZNS1_3runIRZL23CATCH2_INTERNAL_TEST_14vEUlRKSt6vectorIdSaIdEEE_EENS0_14OptimizeResultEOT_RKS4_ISt4pairIddESaISF_EENS0_10GivpConfigEEUlS8_E_NS1_3RngEEESE_IS6_dERKSC_S8_S8_mRSt8optionalINS1_15EvaluationCacheEERT0_RKSQ_INSt6chrono10time_pointINSW_3_V212steady_clockENSW_8durationIlSt5ratioILl1ELl1000000000EEEEEEEEUlmmE_EONSt16remove_referenceISC_E4typeESD_
FNDA:0,_ZSt4moveIRZN4givp6detail28bidirectional_path_relinkingIZNS1_3runIRZL23CATCH2_INTERNAL_TEST_16vEUlRKSt6vectorIdSaIdEEE_EENS0_14OptimizeResultEOT_RKS4_ISt4pairIddESaISF_EENS0_10GivpConfigEEUlS8_E_NS1_3RngEEESE_IS6_dERKSC_S8_S8_mRSt8optionalINS1_15EvaluationCacheEERT0_RKSQ_INSt6chrono10time_pointINSW_3_V212steady_clockENSW_8durationIlSt5ratioILl1ELl1000000000EEEEEEEEUlmmE_EONSt16remove_referenceISC_E4typeESD_
FNDA:0,_ZSt4moveIRZN4givp6detail28bidirectional_path_relinkingIZNS1_3runIRZL23CATCH2_INTERNAL_TEST_28vEUlRKSt6vectorIdSaIdEEE_EENS0_14OptimizeResultEOT_RKS4_ISt4pairIddESaISF_EENS0_10GivpConfigEEUlS8_E_NS1_3RngEEESE_IS6_dERKSC_S8_S8_mRSt8optionalINS1_15EvaluationCacheEERT0_RKSQ_INSt6chrono10time_pointINSW_3_V212steady_clockENSW_8durationIlSt5ratioILl1ELl1000000000EEEEEEEEUlmmE_EONSt16remove_referenceISC_E4typeESD_
FNDA:0,_ZSt4moveIRZN4givp6detail28bidirectional_path_relinkingIZNS1_3runIRZL23CATCH2_INTERNAL_TEST_42vEUlRKSt6vectorIdSaIdEEE_EENS0_14OptimizeResultEOT_RKS4_ISt4pairIddESaISF_EENS0_10GivpConfigEEUlS8_E_NS1_3RngEEESE_IS6_dERKSC_S8_S8_mRSt8optionalINS1_15EvaluationCacheEERT0_RKSQ_INSt6chrono10time_pointINSW_3_V212steady_clockENSW_8durationIlSt5ratioILl1ELl1000000000EEEEEEEEUlmmE_EONSt16remove_referenceISC_E4typeESD_
FNDA:0,_ZSt4moveIRZN4givp6detail28bidirectional_path_relinkingIZNS1_3runIRZL23CATCH2_INTERNAL_TEST_44vEUlRKSt6vectorIdSaIdEEE_EENS0_14OptimizeResultEOT_RKS4_ISt4pairIddESaISF_EENS0_10GivpConfigEEUlS8_E_NS1_3RngEEESE_IS6_dERKSC_S8_S8_mRSt8optionalINS1_15EvaluationCacheEERT0_RKSQ_INSt6chrono10time_pointINSW_3_V212steady_clockENSW_8durationIlSt5ratioILl1ELl1000000000EEEEEEEEUlmmE_EONSt16remove_referenceISC_E4typeESD_
FNDA:0,_ZSt4moveIRZN4givp6detail28bidirectional_path_relinkingIZNS1_3runIZL23CATCH2_INTERNAL_TEST_16vEUlRKSt6vectorIdSaIdEEE_EENS0_14OptimizeResultEOT_RKS4_ISt4pairIddESaISE_EENS0_10GivpConfigEEUlS8_E_NS1_3RngEEESD_IS6_dERKSB_S8_S8_mRSt8optionalINS1_15EvaluationCacheEERT0_RKSP_INSt6chrono10time_pointINSV_3_V212steady_clockENSV_8durationIlSt5ratioILl1ELl1000000000EEEEEEEEUlmmE_EONSt16remove_referenceISB_E4typeESC_
FNDA:0,_ZSt4moveIRZN4givp6detail28bidirectional_path_relinkingIZNS1_3runIZL23CATCH2_INTERNAL_TEST_18vEUlRKSt6vectorIdSaIdEEE_EENS0_14OptimizeResultEOT_RKS4_ISt4pairIddESaISE_EENS0_10GivpConfigEEUlS8_E_NS1_3RngEEESD_IS6_dERKSB_S8_S8_mRSt8optionalINS1_15EvaluationCacheEERT0_RKSP_INSt6chrono10time_pointINSV_3_V212steady_clockENSV_8durationIlSt5ratioILl1ELl1000000000EEEEEEEEUlmmE_EONSt16remove_referenceISB_E4typeESC_
FNDA:0,_ZSt4moveIRZN4givp6detail28bidirectional_path_relinkingIZNS1_3runIZL23CATCH2_INTERNAL_TEST_20vEUlRKSt6vectorIdSaIdEEE_EENS0_14OptimizeResultEOT_RKS4_ISt4pairIddESaISE_EENS0_10GivpConfigEEUlS8_E_NS1_3RngEEESD_IS6_dERKSB_S8_S8_mRSt8optionalINS1_15EvaluationCacheEERT0_RKSP_INSt6chrono10time_pointINSV_3_V212steady_clockENSV_8durationIlSt5ratioILl1ELl1000000000EEEEEEEEUlmmE_EONSt16remove_referenceISB_E4typeESC_
FNDA:0,_ZSt4moveIRZN4givp6detail28bidirectional_path_relinkingIZNS1_3runIZL23CATCH2_INTERNAL_TEST_22vEUlRKSt6vectorIdSaIdEEE_EENS0_14OptimizeResultEOT_RKS4_ISt4pairIddESaISE_EENS0_10GivpConfigEEUlS8_E_NS1_3RngEEESD_IS6_dERKSB_S8_S8_mRSt8optionalINS1_15EvaluationCacheEERT0_RKSP_INSt6chrono10time_pointINSV_3_V212steady_clockENSV_8durationIlSt5ratioILl1ELl1000000000EEEEEEEEUlmmE_EONSt16remove_referenceISB_E4typeESC_
FNDA:0,_ZSt4moveIRZN4givp6detail28bidirectional_path_relinkingIZNS1_3runIZL23CATCH2_INTERNAL_TEST_24vEUlRKSt6vectorIdSaIdEEE_EENS0_14OptimizeResultEOT_RKS4_ISt4pairIddESaISE_EENS0_10GivpConfigEEUlS8_E_NS1_3RngEEESD_IS6_dERKSB_S8_S8_mRSt8optionalINS1_15EvaluationCacheEERT0_RKSP_INSt6chrono10time_pointINSV_3_V212steady_clockENSV_8durationIlSt5ratioILl1ELl1000000000EEEEEEEEUlmmE_EONSt16remove_referenceISB_E4typeESC_
FNDA:80,_ZSt4moveIRZN4givp6detail9ElitePool3addESt6vectorIdSaIdEEdEUlRKT_RKT0_E0_EONSt16remove_referenceIS6_E4typeEOS6_
FNDA:1313,_ZSt4moveIRZN4givp6detail9ElitePool3addESt6vectorIdSaIdEEdEUlRKT_RKT0_E_EONSt16remove_referenceIS6_E4typeEOS6_
FNDA:27061276,_ZSt4moveIRZN4givp6detailL17neighborhood_flipIZNS1_3runIRFdRKSt6vectorIdSaIdEEEEENS0_14OptimizeResultEOT_RKS4_ISt4pairIddESaISF_EENS0_10GivpConfigEEUlS8_E_NS1_3RngEEESE_IdbERS6_dRKSC_SO_RT0_S8_S8_RSt8optionalINS1_15EvaluationCacheEEmRKST_INSt6chrono10time_pointINSX_3_V212steady_clockENSX_8durationIlSt5ratioILl1ELl1000000000EEEEEEEEUlmmE_EONSt16remove_referenceISC_E4typeESD_
FNDA:1572000,_ZSt4moveIRZN4givp6detailL17neighborhood_flipIZNS1_3runIRZL22CATCH2_INTERNAL_TEST_6vEUlRKSt6vectorIdSaIdEEE_EENS0_14OptimizeResultEOT_RKS4_ISt4pairIddESaISF_EENS0_10GivpConfigEEUlS8_E_NS1_3RngEEESE_IdbERS6_dRKSC_SO_RT0_S8_S8_RSt8optionalINS1_15EvaluationCacheEEmRKST_INSt6chrono10time_pointINSX_3_V212steady_clockENSX_8durationIlSt5ratioILl1ELl1000000000EEEEEEEEUlmmE_EONSt16remove_referenceISC_E4typeESD_
FNDA:2259000,_ZSt4moveIRZN4givp6detailL17neighborhood_flipIZNS1_3runIRZL22CATCH2_INTERNAL_TEST_8vEUlRKSt6vectorIdSaIdEEE_EENS0_14OptimizeResultEOT_RKS4_ISt4pairIddESaISF_EENS0_10GivpConfigEEUlS8_E_NS1_3RngEEESE_IdbERS6_dRKSC_SO_RT0_S8_S8_RSt8optionalINS1_15EvaluationCacheEEmRKST_INSt6chrono10time_pointINSX_3_V212steady_clockENSX_8durationIlSt5ratioILl1ELl1000000000EEEEEEEEUlmmE_EONSt16remove_referenceISC_E4typeESD_
FNDA:345000,_ZSt4moveIRZN4givp6detailL17neighborhood_flipIZNS1_3runIRZL23CATCH2_INTERNAL_TEST_12vEUlRKSt6vectorIdSaIdEEE_EENS0_14OptimizeResultEOT_RKS4_ISt4pairIddESaISF_EENS0_10GivpConfigEEUlS8_E_NS1_3RngEEESE_IdbERS6_dRKSC_SO_RT0_S8_S8_RSt8optionalINS1_15EvaluationCacheEEmRKST_INSt6chrono10time_pointINSX_3_V212steady_clockENSX_8durationIlSt5ratioILl1ELl1000000000EEEEEEEEUlmmE_EONSt16remove_referenceISC_E4typeESD_
FNDA:510000,_ZSt4moveIRZN4givp6detailL17neighborhood_flipIZNS1_3runIRZL23CATCH2_INTERNAL_TEST_14vEUlRKSt6vectorIdSaIdEEE_EENS0_14OptimizeResultEOT_RKS4_ISt4pairIddESaISF_EENS0_10GivpConfigEEUlS8_E_NS1_3RngEEESE_IdbERS6_dRKSC_SO_RT0_S8_S8_RSt8optionalINS1_15EvaluationCacheEEmRKST_INSt6chrono10time_pointINSX_3_V212steady_clockENSX_8durationIlSt5ratioILl1ELl1000000000EEEEEEEEUlmmE_EONSt16remove_referenceISC_E4typeESD_
FNDA:508000,_ZSt4moveIRZN4givp6detailL17neighborhood_flipIZNS1_3runIRZL23CATCH2_INTERNAL_TEST_16vEUlRKSt6vectorIdSaIdEEE_EENS0_14OptimizeResultEOT_RKS4_ISt4pairIddESaISF_EENS0_10GivpConfigEEUlS8_E_NS1_3RngEEESE_IdbERS6_dRKSC_SO_RT0_S8_S8_RSt8optionalINS1_15EvaluationCacheEEmRKST_INSt6chrono10time_pointINSX_3_V212steady_clockENSX_8durationIlSt5ratioILl1ELl1000000000EEEEEEEEUlmmE_EONSt16remove_referenceISC_E4typeESD_
FNDA:19250,_ZSt4moveIRZN4givp6detailL17neighborhood_flipIZNS1_3runIRZL23CATCH2_INTERNAL_TEST_28vEUlRKSt6vectorIdSaIdEEE_EENS0_14OptimizeResultEOT_RKS4_ISt4pairIddESaISF_EENS0_10GivpConfigEEUlS8_E_NS1_3RngEEESE_IdbERS6_dRKSC_SO_RT0_S8_S8_RSt8optionalINS1_15EvaluationCacheEEmRKST_INSt6chrono10time_pointINSX_3_V212steady_clockENSX_8durationIlSt5ratioILl1ELl1000000000EEEEEEEEUlmmE_EONSt16remove_referenceISC_E4typeESD_
FNDA:3360,_ZSt4moveIRZN4givp6detailL17neighborhood_flipIZNS1_3runIRZL23CATCH2_INTERNAL_TEST_42vEUlRKSt6vectorIdSaIdEEE_EENS0_14OptimizeResultEOT_RKS4_ISt4pairIddESaISF_EENS0_10GivpConfigEEUlS8_E_NS1_3RngEEESE_IdbERS6_dRKSC_SO_RT0_S8_S8_RSt8optionalINS1_15EvaluationCacheEEmRKST_INSt6chrono10time_pointINSX_3_V212steady_clockENSX_8durationIlSt5ratioILl1ELl1000000000EEEEEEEEUlmmE_EONSt16remove_referenceISC_E4typeESD_
FNDA:2965,_ZSt4moveIRZN4givp6detailL17neighborhood_flipIZNS1_3runIRZL23CATCH2_INTERNAL_TEST_44vEUlRKSt6vectorIdSaIdEEE_EENS0_14OptimizeResultEOT_RKS4_ISt4pairIddESaISF_EENS0_10GivpConfigEEUlS8_E_NS1_3RngEEESE_IdbERS6_dRKSC_SO_RT0_S8_S8_RSt8optionalINS1_15EvaluationCacheEEmRKST_INSt6chrono10time_pointINSX_3_V212steady_clockENSX_8durationIlSt5ratioILl1ELl1000000000EEEEEEEEUlmmE_EONSt16remove_referenceISC_E4typeESD_
FNDA:0,_ZSt4moveIRZN4givp6detailL17neighborhood_flipIZNS1_3runIZL23CATCH2_INTERNAL_TEST_16vEUlRKSt6vectorIdSaIdEEE_EENS0_14OptimizeResultEOT_RKS4_ISt4pairIddESaISE_EENS0_10GivpConfigEEUlS8_E_NS1_3RngEEESD_IdbERS6_dRKSB_SN_RT0_S8_S8_RSt8optionalINS1_15EvaluationCacheEEmRKSS_INSt6chrono10time_pointINSW_3_V212steady_clockENSW_8durationIlSt5ratioILl1ELl1000000000EEEEEEEEUlmmE_EONSt16remove_referenceISB_E4typeESC_
FNDA:0,_ZSt4moveIRZN4givp6detailL17neighborhood_flipIZNS1_3runIZL23CATCH2_INTERNAL_TEST_18vEUlRKSt6vectorIdSaIdEEE_EENS0_14OptimizeResultEOT_RKS4_ISt4pairIddESaISE_EENS0_10GivpConfigEEUlS8_E_NS1_3RngEEESD_IdbERS6_dRKSB_SN_RT0_S8_S8_RSt8optionalINS1_15EvaluationCacheEEmRKSS_INSt6chrono10time_pointINSW_3_V212steady_clockENSW_8durationIlSt5ratioILl1ELl1000000000EEEEEEEEUlmmE_EONSt16remove_referenceISB_E4typeESC_
FNDA:0,_ZSt4moveIRZN4givp6detailL17neighborhood_flipIZNS1_3runIZL23CATCH2_INTERNAL_TEST_20vEUlRKSt6vectorIdSaIdEEE_EENS0_14OptimizeResultEOT_RKS4_ISt4pairIddESaISE_EENS0_10GivpConfigEEUlS8_E_NS1_3RngEEESD_IdbERS6_dRKSB_SN_RT0_S8_S8_RSt8optionalINS1_15EvaluationCacheEEmRKSS_INSt6chrono10time_pointINSW_3_V212steady_clockENSW_8durationIlSt5ratioILl1ELl1000000000EEEEEEEEUlmmE_EONSt16remove_referenceISB_E4typeESC_
FNDA:0,_ZSt4moveIRZN4givp6detailL17neighborhood_flipIZNS1_3runIZL23CATCH2_INTERNAL_TEST_22vEUlRKSt6vectorIdSaIdEEE_EENS0_14OptimizeResultEOT_RKS4_ISt4pairIddESaISE_EENS0_10GivpConfigEEUlS8_E_NS1_3RngEEESD_IdbERS6_dRKSB_SN_RT0_S8_S8_RSt8optionalINS1_15EvaluationCacheEEmRKSS_INSt6chrono10time_pointINSW_3_V212steady_clockENSW_8durationIlSt5ratioILl1ELl1000000000EEEEEEEEUlmmE_EONSt16remove_referenceISB_E4typeESC_
FNDA:0,_ZSt4moveIRZN4givp6detailL17neighborhood_flipIZNS1_3runIZL23CATCH2_INTERNAL_TEST_24vEUlRKSt6vectorIdSaIdEEE_EENS0_14OptimizeResultEOT_RKS4_ISt4pairIddESaISE_EENS0_10GivpConfigEEUlS8_E_NS1_3RngEEESD_IdbERS6_dRKSB_SN_RT0_S8_S8_RSt8optionalINS1_15EvaluationCacheEEmRKSS_INSt6chrono10time_pointINSW_3_V212steady_clockENSW_8durationIlSt5ratioILl1ELl1000000000EEEEEEEEUlmmE_EONSt16remove_referenceISB_E4typeESC_
FNDA:0,_ZSt4moveIRZN5Catch12_GLOBAL__N_111fileNameTagERKSt6vectorINS0_3TagESaIS3_EEEUlRKS3_E_EONSt16remove_referenceIT_E4typeEOSD_
FNDA:0,_ZSt4moveIRZN5Catch16TestCaseTracking11TrackerBase5closeEvEUlRKNS0_6Detail10unique_ptrINS1_8ITrackerEEEE_EONSt16remove_referenceIT_E4typeEOSC_
FNDA:610,_ZSt4moveIRZN5Catch16TestCaseTracking8ITracker9findChildERKNS1_18NameAndLocationRefEEUlRKNS0_6Detail10unique_ptrIS2_EEE_EONSt16remove_referenceIT_E4typeEOSE_
FNDA:0,_ZSt4moveIRZN5Catch20defaultListListenersERSoRKSt6vectorINS0_19ListenerDescriptionESaIS3_EEEUlRKS3_S9_E_EONSt16remove_referenceIT_E4typeEOSD_
FNDA:0,_ZSt4moveIRZN5Catch20defaultListReportersERSoRKSt6vectorINS0_19ReporterDescriptionESaIS3_EENS0_9VerbosityEEUlRKS3_SA_E_EONSt16remove_referenceIT_E4typeEOSE_
FNDA:0,_ZSt4moveIRZN5Catch9sortTestsERKNS0_7IConfigERKSt6vectorINS0_14TestCaseHandleESaIS5_EEEUlRKS5_SB_E_EONSt16remove_referenceIT_E4typeEOSF_
FNDA:0,_ZSt4moveIRZN5Catch9sortTestsERKNS0_7IConfigERKSt6vectorINS0_14TestCaseHandleESaIS5_EEEUlRKSt4pairImS5_ESD_E_EONSt16remove_referenceIT_E4typeEOSH_
FNDA:0,_ZSt4moveIRZNK5Catch22CumulativeReporterBase11SectionNode16hasAnyAssertionsEvEUlRKNS0_6Detail26AssertionOrBenchmarkResultEE_EONSt16remove_referenceIT_E4typeEOSA_
FNDA:11016,_ZSt4moveIRZNK5Catch5Clara6Parser5parseERKNSt7__cxx1112basic_stringIcSt11char_traitsIcESaIcEEENS1_6Detail11TokenStreamEE10ParserInfoEONSt16remove_referenceIT_E4typeEOSG_
FNDA:26940,_ZSt4moveIRZNK5Catch6Detail19CaseInsensitiveLessclENS0_9StringRefES3_EUlccE_EONSt16remove_referenceIT_E4typeEOS7_
FNDA:0,_ZSt4moveIRZNK5Catch8TestSpec7matchesERKNS0_12TestCaseInfoEEUlRKNS1_6FilterEE_EONSt16remove_referenceIT_E4typeEOSB_
FNDA:0,_ZSt4moveIRZZN5Catch10Generators12_GLOBAL__N_116GeneratorTracker5closeEvENKUlvE_clEvEUlRKNS0_6Detail10unique_ptrINS0_16TestCaseTracking8ITrackerEEEE_EONSt16remove_referenceIT_E4typeEOSF_
FNDA:0,_ZSt4moveIRbEONSt16remove_referenceIT_E4typeEOS2_
FNDA:0,_ZSt4moveIRcEONSt16remove_referenceIT_E4typeEOS2_
FNDA:0,_ZSt4moveIRdEONSt16remove_referenceIT_E4typeEOS2_
FNDA:0,_ZSt4moveIRlEONSt16remove_referenceIT_E4typeEOS2_
FNDA:2375963665,_ZSt4moveIRmEONSt16remove_referenceIT_E4typeEOS2_
FNF:576
FNH:245
DA:51,1495078241
DA:52,1495078241
DA:70,7824995336
DA:71,7824995336
DA:97,2525614632
DA:98,2525614632
DA:138,287613616
DA:139,287613616
DA:189,770165465
DA:197,770165465
DA:198,770165465
DA:199,770165465
DA:200,770165465
LF:13
LH:13
end_of_record
TN:
SF:/usr/include/c++/13/bits/new_allocator.h
FN:104,104,_ZNSt15__new_allocatorIN5Catch10ColumnInfoEED2Ev
FN:104,104,_ZNSt15__new_allocatorIN5Catch11MessageInfoEED2Ev
FN:104,104,_ZNSt15__new_allocatorIN5Catch11SectionInfoEED2Ev
FN:104,104,_ZNSt15__new_allocatorIN5Catch12JsonReporter6WriterEED2Ev
FN:104,104,_ZNSt15__new_allocatorIN5Catch12ReporterSpecEED2Ev
FN:104,104,_ZNSt15__new_allocatorIN5Catch12_GLOBAL__N_113SummaryColumnEED2Ev
FN:104,104,_ZNSt15__new_allocatorIN5Catch13ScopedMessageEED2Ev
FN:104,104,_ZNSt15__new_allocatorIN5Catch14SectionEndInfoEED2Ev
FN:104,104,_ZNSt15__new_allocatorIN5Catch14TestCaseHandleEED2Ev
FN:104,104,_ZNSt15__new_allocatorIN5Catch15JsonArrayWriterEED2Ev
FN:104,104,_ZNSt15__new_allocatorIN5Catch16JsonObjectWriterEED2Ev
FN:104,104,_ZNSt15__new_allocatorIN5Catch19ListenerDescriptionEED2Ev
FN:104,104,_ZNSt15__new_allocatorIN5Catch19ReporterDescriptionEED2Ev
FN:104,104,_ZNSt15__new_allocatorIN5Catch21ProcessedReporterSpecEED2Ev
FN:104,104,_ZNSt15__new_allocatorIN5Catch3TagEED2Ev
FN:104,104,_ZNSt15__new_allocatorIN5Catch5Clara3ArgEED2Ev
FN:104,104,_ZNSt15__new_allocatorIN5Catch5Clara3OptEED2Ev
FN:104,104,_ZNSt15__new_allocatorIN5Catch5Clara6Detail11HelpColumnsEED2Ev
FN:104,104,_ZNSt15__new_allocatorIN5Catch5Clara6Detail5TokenEED2Ev
FN:104,104,_ZNSt15__new_allocatorIN5Catch6Detail10unique_ptrIKNS0_20IExceptionTranslatorEEEED2Ev
FN:104,104,_ZNSt15__new_allocatorIN5Catch6Detail10unique_ptrINS0_12ITestInvokerEEEED2Ev
FN:104,104,_ZNSt15__new_allocatorIN5Catch6Detail10unique_ptrINS0_12TestCaseInfoEEEED2Ev
FN:104,104,_ZNSt15__new_allocatorIN5Catch6Detail10unique_ptrINS0_14IEventListenerEEEED2Ev
FN:104,104,_ZNSt15__new_allocatorIN5Catch6Detail10unique_ptrINS0_16TestCaseTracking8ITrackerEEEED2Ev
FN:104,104,_ZNSt15__new_allocatorIN5Catch6Detail10unique_ptrINS0_20EventListenerFactoryEEEED2Ev
FN:104,104,_ZNSt15__new_allocatorIN5Catch6Detail10unique_ptrINS0_22CumulativeReporterBase11SectionNodeEEEED2Ev
FN:104,104,_ZNSt15__new_allocatorIN5Catch6Detail10unique_ptrINS0_22CumulativeReporterBase4NodeINS0_13TestCaseStatsENS3_11SectionNodeEEEEEED2Ev
FN:104,104,_ZNSt15__new_allocatorIN5Catch6Detail10unique_ptrINS0_8TestSpec7PatternEEEED2Ev
FN:104,104,_ZNSt15__new_allocatorIN5Catch6Detail10unique_ptrINS1_8EnumInfoEEEED2Ev
FN:104,104,_ZNSt15__new_allocatorIN5Catch6Detail10unique_ptrINSt7__cxx1119basic_ostringstreamIcSt11char_traitsIcESaIcEEEEEED2Ev
FN:104,104,_ZNSt15__new_allocatorIN5Catch6Detail26AssertionOrBenchmarkResultEED2Ev
FN:104,104,_ZNSt15__new_allocatorIN5Catch7TagInfoEED2Ev
FN:104,104,_ZNSt15__new_allocatorIN5Catch8TestSpec11FilterMatchEED2Ev
FN:104,104,_ZNSt15__new_allocatorIN5Catch8TestSpec6FilterEED2Ev
FN:104,104,_ZNSt15__new_allocatorIN5Catch8TextFlow6Column14const_iteratorEED2Ev
FN:104,104,_ZNSt15__new_allocatorIN5Catch8TextFlow6ColumnEED2Ev
FN:104,104,_ZNSt15__new_allocatorIN5Catch9StringRefEED2Ev
FN:104,104,_ZNSt15__new_allocatorINSt15__exception_ptr13exception_ptrEED2Ev
FN:104,104,_ZNSt15__new_allocatorINSt6chrono8durationIdSt5ratioILl1ELl1000000000EEEEED2Ev
FN:104,104,_ZNSt15__new_allocatorINSt7__cxx1112basic_stringIcSt11char_traitsIcESaIcEEEED2Ev
FN:104,104,_ZNSt15__new_allocatorINSt7__cxx1112regex_traitsIcE10_RegexMaskEED2Ev
FN:104,104,_ZNSt15__new_allocatorINSt7__cxx119sub_matchIN9__gnu_cxx17__normal_iteratorIPKcNS0_12basic_stringIcSt11char_traitsIcESaIcEEEEEEEED2Ev
FN:104,104,_ZNSt15__new_allocatorINSt8__detail10_Hash_nodeISt4pairIKNSt7__cxx1112basic_stringIcSt11char_traitsIcESaIcEEES8_ELb1EEEED2Ev
FN:104,104,_ZNSt15__new_allocatorINSt8__detail10_Hash_nodeISt4pairIKmdELb0EEEED2Ev
FN:104,104,_ZNSt15__new_allocatorINSt8__detail6_StateIcEEED2Ev
FN:104,104,_ZNSt15__new_allocatorINSt8__detail9_StateSeqINSt7__cxx1112regex_traitsIcEEEEED2Ev
FN:104,104,_ZNSt15__new_allocatorIPKN5Catch12TestCaseInfoEED2Ev
FN:104,104,_ZNSt15__new_allocatorIPKN5Catch14TestCaseHandleEED2Ev
FN:104,104,_ZNSt15__new_allocatorIPKN5Catch22CumulativeReporterBase4NodeINS0_13TestCaseStatsENS1_11SectionNodeEEEED2Ev
FN:104,104,_ZNSt15__new_allocatorIPN5Catch10ISingletonEED2Ev
FN:104,104,_ZNSt15__new_allocatorIPN5Catch12JsonReporter6WriterEED2Ev
FN:104,104,_ZNSt15__new_allocatorIPN5Catch12TestCaseInfoEED2Ev
FN:104,104,_ZNSt15__new_allocatorIPN5Catch15JsonArrayWriterEED2Ev
FN:104,104,_ZNSt15__new_allocatorIPN5Catch16JsonObjectWriterEED2Ev
FN:104,104,_ZNSt15__new_allocatorIPN5Catch16TestCaseTracking8ITrackerEED2Ev
FN:104,104,_ZNSt15__new_allocatorIPN5Catch22CumulativeReporterBase11SectionNodeEED2Ev
FN:104,104,_ZNSt15__new_allocatorIPNSt8__detail15_Hash_node_baseEED2Ev
FN:104,104,_ZNSt15__new_allocatorIPNSt8__detail9_StateSeqINSt7__cxx1112regex_traitsIcEEEEED2Ev
FN:104,104,_ZNSt15__new_allocatorIPcED2Ev
FN:104,104,_ZNSt15__new_allocatorIPlED2Ev
FN:104,104,_ZNSt15__new_allocatorISt13_Rb_tree_nodeIN5Catch9StringRefEEED2Ev
FN:104,104,_ZNSt15__new_allocatorISt13_Rb_tree_nodeIPKN5Catch12TestCaseInfoEEED2Ev
FN:104,104,_ZNSt15__new_allocatorISt13_Rb_tree_nodeIPKN5Catch14TestCaseHandleEEED2Ev
FN:104,104,_ZNSt15__new_allocatorISt13_Rb_tree_nodeISt4pairIKN5Catch9StringRefENS2_7TagInfoEEEED2Ev
FN:104,104,_ZNSt15__new_allocatorISt13_Rb_tree_nodeISt4pairIKN5Catch9StringRefESt6vectorIPKNS2_22CumulativeReporterBase4NodeINS2_13TestCaseStatsENS6_11SectionNodeEEESaISC_EEEEED2Ev
FN:104,104,_ZNSt15__new_allocatorISt13_Rb_tree_nodeISt4pairIKNSt7__cxx1112basic_stringIcSt11char_traitsIcESaIcEEEN5Catch6Detail10unique_ptrINS9_16IReporterFactoryEEEEEED2Ev
FN:104,104,_ZNSt15__new_allocatorISt13_Rb_tree_nodeISt4pairIKNSt7__cxx1112basic_stringIcSt11char_traitsIcESaIcEEEN5Catch8TagAliasEEEED2Ev
FN:104,104,_ZNSt15__new_allocatorISt13_Rb_tree_nodeISt4pairIKNSt7__cxx1112basic_stringIcSt11char_traitsIcESaIcEEES7_EEED2Ev
FN:104,104,_ZNSt15__new_allocatorISt13_Rb_tree_nodeISt4pairIKllEEED2Ev
FN:104,104,_ZNSt15__new_allocatorISt23_Sp_counted_ptr_inplaceIN5Catch5Clara6Detail11BoundLambdaIZNS1_21makeCommandLineParserERNS1_10ConfigDataEEUlRKNSt7__cxx1112basic_stringIcSt11char_traitsIcESaIcEEEE0_EESaIvELN9__gnu_cxx12_Lock_policyE2EEED2Ev
FN:104,104,_ZNSt15__new_allocatorISt23_Sp_counted_ptr_inplaceIN5Catch5Clara6Detail11BoundLambdaIZNS1_21makeCommandLineParserERNS1_10ConfigDataEEUlRKNSt7__cxx1112basic_stringIcSt11char_traitsIcESaIcEEEE1_EESaIvELN9__gnu_cxx12_Lock_policyE2EEED2Ev
FN:104,104,_ZNSt15__new_allocatorISt23_Sp_counted_ptr_inplaceIN5Catch5Clara6Detail11BoundLambdaIZNS1_21makeCommandLineParserERNS1_10ConfigDataEEUlRKNSt7__cxx1112basic_stringIcSt11char_traitsIcESaIcEEEE2_EESaIvELN9__gnu_cxx12_Lock_policyE2EEED2Ev
FN:104,104,_ZNSt15__new_allocatorISt23_Sp_counted_ptr_inplaceIN5Catch5Clara6Detail11BoundLambdaIZNS1_21makeCommandLineParserERNS1_10ConfigDataEEUlRKNSt7__cxx1112basic_stringIcSt11char_traitsIcESaIcEEEE3_EESaIvELN9__gnu_cxx12_Lock_policyE2EEED2Ev
FN:104,104,_ZNSt15__new_allocatorISt23_Sp_counted_ptr_inplaceIN5Catch5Clara6Detail11BoundLambdaIZNS1_21makeCommandLineParserERNS1_10ConfigDataEEUlRKNSt7__cxx1112basic_stringIcSt11char_traitsIcESaIcEEEE4_EESaIvELN9__gnu_cxx12_Lock_policyE2EEED2Ev
FN:104,104,_ZNSt15__new_allocatorISt23_Sp_counted_ptr_inplaceIN5Catch5Clara6Detail11BoundLambdaIZNS1_21makeCommandLineParserERNS1_10ConfigDataEEUlRKNSt7__cxx1112basic_stringIcSt11char_traitsIcESaIcEEEE5_EESaIvELN9__gnu_cxx12_Lock_policyE2EEED2Ev
FN:104,104,_ZNSt15__new_allocatorISt23_Sp_counted_ptr_inplaceIN5Catch5Clara6Detail11BoundLambdaIZNS1_21makeCommandLineParserERNS1_10ConfigDataEEUlRKNSt7__cxx1112basic_stringIcSt11char_traitsIcESaIcEEEE7_EESaIvELN9__gnu_cxx12_Lock_policyE2EEED2Ev
FN:104,104,_ZNSt15__new_allocatorISt23_Sp_counted_ptr_inplaceIN5Catch5Clara6Detail11BoundLambdaIZNS1_21makeCommandLineParserERNS1_10ConfigDataEEUlRKNSt7__cxx1112basic_stringIcSt11char_traitsIcESaIcEEEE8_EESaIvELN9__gnu_cxx12_Lock_policyE2EEED2Ev
FN:104,104,_ZNSt15__new_allocatorISt23_Sp_counted_ptr_inplaceIN5Catch5Clara6Detail11BoundLambdaIZNS1_21makeCommandLineParserERNS1_10ConfigDataEEUlbE0_EESaIvELN9__gnu_cxx12_Lock_policyE2EEED2Ev
FN:104,104,_ZNSt15__new_allocatorISt23_Sp_counted_ptr_inplaceIN5Catch5Clara6Detail11BoundLambdaIZNS1_21makeCommandLineParserERNS1_10ConfigDataEEUliE_EESaIvELN9__gnu_cxx12_Lock_policyE2EEED2Ev
FN:104,104,_ZNSt15__new_allocatorISt23_Sp_counted_ptr_inplaceIN5Catch5Clara6Detail12BoundFlagRefESaIvELN9__gnu_cxx12_Lock_policyE2EEED2Ev
FN:104,104,_ZNSt15__new_allocatorISt23_Sp_counted_ptr_inplaceIN5Catch5Clara6Detail13BoundValueRefINSt7__cxx1112basic_stringIcSt11char_traitsIcESaIcEEEEESaIvELN9__gnu_cxx12_Lock_policyE2EEED2Ev
FN:104,104,_ZNSt15__new_allocatorISt23_Sp_counted_ptr_inplaceIN5Catch5Clara6Detail13BoundValueRefISt6vectorINSt7__cxx1112basic_stringIcSt11char_traitsIcESaIcEEESaISB_EEEESaIvELN9__gnu_cxx12_Lock_policyE2EEED2Ev
FN:104,104,_ZNSt15__new_allocatorISt23_Sp_counted_ptr_inplaceIN5Catch5Clara6Detail13BoundValueRefIdEESaIvELN9__gnu_cxx12_Lock_policyE2EEED2Ev
FN:104,104,_ZNSt15__new_allocatorISt23_Sp_counted_ptr_inplaceIN5Catch5Clara6Detail13BoundValueRefIjEESaIvELN9__gnu_cxx12_Lock_policyE2EEED2Ev
FN:104,104,_ZNSt15__new_allocatorISt23_Sp_counted_ptr_inplaceIN5Catch5Clara6Detail13BoundValueRefIlEESaIvELN9__gnu_cxx12_Lock_policyE2EEED2Ev
FN:104,104,_ZNSt15__new_allocatorISt23_Sp_counted_ptr_inplaceIN5Catch5Clara6Detail15BoundFlagLambdaIZNS1_21makeCommandLineParserERNS1_10ConfigDataEEUlbE_EESaIvELN9__gnu_cxx12_Lock_policyE2EEED2Ev
FN:104,104,_ZNSt15__new_allocatorISt23_Sp_counted_ptr_inplaceIN5Catch5Clara6Detail15BoundFlagLambdaIZNS2_4HelpC4ERbEUlbE_EESaIvELN9__gnu_cxx12_Lock_policyE2EEED2Ev
FN:104,104,_ZNSt15__new_allocatorISt23_Sp_counted_ptr_inplaceIN5Catch5Clara6Detail15BoundManyLambdaIZNS1_21makeCommandLineParserERNS1_10ConfigDataEEUlRKNSt7__cxx1112basic_stringIcSt11char_traitsIcESaIcEEEE6_EESaIvELN9__gnu_cxx12_Lock_policyE2EEED2Ev
FN:104,104,_ZNSt15__new_allocatorISt23_Sp_counted_ptr_inplaceIN5Catch5Clara6Detail15BoundManyLambdaIZNS1_21makeCommandLineParserERNS1_10ConfigDataEEUlRKNSt7__cxx1112basic_stringIcSt11char_traitsIcESaIcEEEE_EESaIvELN9__gnu_cxx12_Lock_policyE2EEED2Ev
FN:104,104,_ZNSt15__new_allocatorISt23_Sp_counted_ptr_inplaceINSt7__cxx1112basic_stringIcSt11char_traitsIcESaIcEEESaIvELN9__gnu_cxx12_Lock_policyE2EEED2Ev
FN:104,104,_ZNSt15__new_allocatorISt23_Sp_counted_ptr_inplaceINSt8__detail4_NFAINSt7__cxx1112regex_traitsIcEEEESaIvELN9__gnu_cxx12_Lock_policyE2EEED2Ev
FN:104,104,_ZNSt15__new_allocatorISt4pairIN9__gnu_cxx17__normal_iteratorIPKcNSt7__cxx1112basic_stringIcSt11char_traitsIcESaIcEEEEEiEED2Ev
FN:104,104,_ZNSt15__new_allocatorISt4pairINSt7__cxx1112basic_stringIcSt11char_traitsIcESaIcEEES6_EED2Ev
FN:104,104,_ZNSt15__new_allocatorISt4pairISt6vectorIdSaIdEEdEED2Ev
FN:104,104,_ZNSt15__new_allocatorISt4pairIccEED2Ev
FN:104,104,_ZNSt15__new_allocatorISt4pairIddEED2Ev
FN:104,104,_ZNSt15__new_allocatorISt4pairIiN5Catch9StringRefEEED2Ev
FN:104,104,_ZNSt15__new_allocatorISt4pairIlSt6vectorINSt7__cxx119sub_matchIN9__gnu_cxx17__normal_iteratorIPKcNS2_12basic_stringIcSt11char_traitsIcESaIcEEEEEEESaISE_EEEED2Ev
FN:104,104,_ZNSt15__new_allocatorISt4pairImN5Catch14TestCaseHandleEEED2Ev
FN:104,104,_ZNSt15__new_allocatorISt6vectorIdSaIdEEED2Ev
FN:104,104,_ZNSt15__new_allocatorIZNK5Catch5Clara6Parser5parseERKNSt7__cxx1112basic_stringIcSt11char_traitsIcESaIcEEENS1_6Detail11TokenStreamEE10ParserInfoED2Ev
FN:104,104,_ZNSt15__new_allocatorIcED2Ev
FN:104,104,_ZNSt15__new_allocatorIdED2Ev
FN:104,104,_ZNSt15__new_allocatorIlED2Ev
FN:104,104,_ZNSt15__new_allocatorImED2Ev
FN:104,104,_ZNSt15__new_allocatorIwED2Ev
FN:126,152,_ZNSt15__new_allocatorIN5Catch10ColumnInfoEE8allocateEmPKv
FN:126,152,_ZNSt15__new_allocatorIN5Catch11MessageInfoEE8allocateEmPKv
FN:126,152,_ZNSt15__new_allocatorIN5Catch11SectionInfoEE8allocateEmPKv
FN:126,152,_ZNSt15__new_allocatorIN5Catch12JsonReporter6WriterEE8allocateEmPKv
FN:126,152,_ZNSt15__new_allocatorIN5Catch12ReporterSpecEE8allocateEmPKv
FN:126,152,_ZNSt15__new_allocatorIN5Catch12_GLOBAL__N_113SummaryColumnEE8allocateEmPKv
FN:126,152,_ZNSt15__new_allocatorIN5Catch13ScopedMessageEE8allocateEmPKv
FN:126,152,_ZNSt15__new_allocatorIN5Catch14SectionEndInfoEE8allocateEmPKv
FN:126,152,_ZNSt15__new_allocatorIN5Catch14TestCaseHandleEE8allocateEmPKv
FN:126,152,_ZNSt15__new_allocatorIN5Catch15JsonArrayWriterEE8allocateEmPKv
FN:126,152,_ZNSt15__new_allocatorIN5Catch16JsonObjectWriterEE8allocateEmPKv
FN:126,152,_ZNSt15__new_allocatorIN5Catch19ListenerDescriptionEE8allocateEmPKv
FN:126,152,_ZNSt15__new_allocatorIN5Catch19ReporterDescriptionEE8allocateEmPKv
FN:126,152,_ZNSt15__new_allocatorIN5Catch21ProcessedReporterSpecEE8allocateEmPKv
FN:126,152,_ZNSt15__new_allocatorIN5Catch3TagEE8allocateEmPKv
FN:126,152,_ZNSt15__new_allocatorIN5Catch5Clara3ArgEE8allocateEmPKv
FN:126,152,_ZNSt15__new_allocatorIN5Catch5Clara3OptEE8allocateEmPKv
FN:126,152,_ZNSt15__new_allocatorIN5Catch5Clara6Detail11HelpColumnsEE8allocateEmPKv
FN:126,152,_ZNSt15__new_allocatorIN5Catch5Clara6Detail5TokenEE8allocateEmPKv
FN:126,152,_ZNSt15__new_allocatorIN5Catch6Detail10unique_ptrIKNS0_20IExceptionTranslatorEEEE8allocateEmPKv
FN:126,152,_ZNSt15__new_allocatorIN5Catch6Detail10unique_ptrINS0_12ITestInvokerEEEE8allocateEmPKv
FN:126,152,_ZNSt15__new_allocatorIN5Catch6Detail10unique_ptrINS0_12TestCaseInfoEEEE8allocateEmPKv
FN:126,152,_ZNSt15__new_allocatorIN5Catch6Detail10unique_ptrINS0_14IEventListenerEEEE8allocateEmPKv
FN:126,152,_ZNSt15__new_allocatorIN5Catch6Detail10unique_ptrINS0_16TestCaseTracking8ITrackerEEEE8allocateEmPKv
FN:126,152,_ZNSt15__new_allocatorIN5Catch6Detail10unique_ptrINS0_20EventListenerFactoryEEEE8allocateEmPKv
FN:126,152,_ZNSt15__new_allocatorIN5Catch6Detail10unique_ptrINS0_22CumulativeReporterBase11SectionNodeEEEE8allocateEmPKv
FN:126,152,_ZNSt15__new_allocatorIN5Catch6Detail10unique_ptrINS0_22CumulativeReporterBase4NodeINS0_13TestCaseStatsENS3_11SectionNodeEEEEEE8allocateEmPKv
FN:126,152,_ZNSt15__new_allocatorIN5Catch6Detail10unique_ptrINS0_8TestSpec7PatternEEEE8allocateEmPKv
FN:126,152,_ZNSt15__new_allocatorIN5Catch6Detail10unique_ptrINS1_8EnumInfoEEEE8allocateEmPKv
FN:126,152,_ZNSt15__new_allocatorIN5Catch6Detail10unique_ptrINSt7__cxx1119basic_ostringstreamIcSt11char_traitsIcESaIcEEEEEE8allocateEmPKv
FN:126,152,_ZNSt15__new_allocatorIN5Catch6Detail26AssertionOrBenchmarkResultEE8allocateEmPKv
FN:126,152,_ZNSt15__new_allocatorIN5Catch7TagInfoEE8allocateEmPKv
FN:126,152,_ZNSt15__new_allocatorIN5Catch8TestSpec11FilterMatchEE8allocateEmPKv
FN:126,152,_ZNSt15__new_allocatorIN5Catch8TestSpec6FilterEE8allocateEmPKv
FN:126,152,_ZNSt15__new_allocatorIN5Catch8TextFlow6Column14const_iteratorEE8allocateEmPKv
FN:126,152,_ZNSt15__new_allocatorIN5Catch8TextFlow6ColumnEE8allocateEmPKv
FN:126,152,_ZNSt15__new_allocatorIN5Catch9StringRefEE8allocateEmPKv
FN:126,152,_ZNSt15__new_allocatorINSt15__exception_ptr13exception_ptrEE8allocateEmPKv
FN:126,152,_ZNSt15__new_allocatorINSt6chrono8durationIdSt5ratioILl1ELl1000000000EEEEE8allocateEmPKv
FN:126,152,_ZNSt15__new_allocatorINSt7__cxx1112basic_stringIcSt11char_traitsIcESaIcEEEE8allocateEmPKv
FN:126,152,_ZNSt15__new_allocatorINSt7__cxx1112regex_traitsIcE10_RegexMaskEE8allocateEmPKv
FN:126,152,_ZNSt15__new_allocatorINSt7__cxx119sub_matchIN9__gnu_cxx17__normal_iteratorIPKcNS0_12basic_stringIcSt11char_traitsIcESaIcEEEEEEEE8allocateEmPKv
FN:126,152,_ZNSt15__new_allocatorINSt8__detail10_Hash_nodeISt4pairIKmdELb0EEEE8allocateEmPKv
FN:126,152,_ZNSt15__new_allocatorINSt8__detail6_StateIcEEE8allocateEmPKv
FN:126,152,_ZNSt15__new_allocatorINSt8__detail9_StateSeqINSt7__cxx1112regex_traitsIcEEEEE8allocateEmPKv
FN:126,152,_ZNSt15__new_allocatorIPKN5Catch14TestCaseHandleEE8allocateEmPKv
FN:126,152,_ZNSt15__new_allocatorIPKN5Catch22CumulativeReporterBase4NodeINS0_13TestCaseStatsENS1_11SectionNodeEEEE8allocateEmPKv
FN:126,152,_ZNSt15__new_allocatorIPN5Catch10ISingletonEE8allocateEmPKv
FN:126,152,_ZNSt15__new_allocatorIPN5Catch12JsonReporter6WriterEE8allocateEmPKv
FN:126,152,_ZNSt15__new_allocatorIPN5Catch12TestCaseInfoEE8allocateEmPKv
FN:126,152,_ZNSt15__new_allocatorIPN5Catch15JsonArrayWriterEE8allocateEmPKv
FN:126,152,_ZNSt15__new_allocatorIPN5Catch16JsonObjectWriterEE8allocateEmPKv
FN:126,152,_ZNSt15__new_allocatorIPN5Catch16TestCaseTracking8ITrackerEE8allocateEmPKv
FN:126,152,_ZNSt15__new_allocatorIPN5Catch22CumulativeReporterBase11SectionNodeEE8allocateEmPKv
FN:126,152,_ZNSt15__new_allocatorIPNSt8__detail15_Hash_node_baseEE8allocateEmPKv
FN:126,152,_ZNSt15__new_allocatorIPNSt8__detail9_StateSeqINSt7__cxx1112regex_traitsIcEEEEE8allocateEmPKv
FN:126,152,_ZNSt15__new_allocatorIPcE8allocateEmPKv
FN:126,152,_ZNSt15__new_allocatorIPlE8allocateEmPKv
FN:126,152,_ZNSt15__new_allocatorISt13_Rb_tree_nodeIN5Catch9StringRefEEE8allocateEmPKv
FN:126,152,_ZNSt15__new_allocatorISt13_Rb_tree_nodeIPKN5Catch12TestCaseInfoEEE8allocateEmPKv
FN:126,152,_ZNSt15__new_allocatorISt13_Rb_tree_nodeIPKN5Catch14TestCaseHandleEEE8allocateEmPKv
FN:126,152,_ZNSt15__new_allocatorISt13_Rb_tree_nodeISt4pairIKN5Catch9StringRefENS2_7TagInfoEEEE8allocateEmPKv
FN:126,152,_ZNSt15__new_allocatorISt13_Rb_tree_nodeISt4pairIKN5Catch9StringRefESt6vectorIPKNS2_22CumulativeReporterBase4NodeINS2_13TestCaseStatsENS6_11SectionNodeEEESaISC_EEEEE8allocateEmPKv
FN:126,152,_ZNSt15__new_allocatorISt13_Rb_tree_nodeISt4pairIKNSt7__cxx1112basic_stringIcSt11char_traitsIcESaIcEEEN5Catch6Detail10unique_ptrINS9_16IReporterFactoryEEEEEE8allocateEmPKv
FN:126,152,_ZNSt15__new_allocatorISt13_Rb_tree_nodeISt4pairIKNSt7__cxx1112basic_stringIcSt11char_traitsIcESaIcEEEN5Catch8TagAliasEEEE8allocateEmPKv
FN:126,152,_ZNSt15__new_allocatorISt13_Rb_tree_nodeISt4pairIKNSt7__cxx1112basic_stringIcSt11char_traitsIcESaIcEEES7_EEE8allocateEmPKv
FN:126,152,_ZNSt15__new_allocatorISt13_Rb_tree_nodeISt4pairIKllEEE8allocateEmPKv
FN:126,152,_ZNSt15__new_allocatorISt23_Sp_counted_ptr_inplaceIN5Catch5Clara6Detail11BoundLambdaIZNS1_21makeCommandLineParserERNS1_10ConfigDataEEUlRKNSt7__cxx1112basic_stringIcSt11char_traitsIcESaIcEEEE0_EESaIvELN9__gnu_cxx12_Lock_policyE2EEE8allocateEmPKv
FN:126,152,_ZNSt15__new_allocatorISt23_Sp_counted_ptr_inplaceIN5Catch5Clara6Detail11BoundLambdaIZNS1_21makeCommandLineParserERNS1_10ConfigDataEEUlRKNSt7__cxx1112basic_stringIcSt11char_traitsIcESaIcEEEE1_EESaIvELN9__gnu_cxx12_Lock_policyE2EEE8allocateEmPKv
FN:126,152,_ZNSt15__new_allocatorISt23_Sp_counted_ptr_inplaceIN5Catch5Clara6Detail11BoundLambdaIZNS1_21makeCommandLineParserERNS1_10ConfigDataEEUlRKNSt7__cxx1112basic_stringIcSt11char_traitsIcESaIcEEEE2_EESaIvELN9__gnu_cxx12_Lock_policyE2EEE8allocateEmPKv
FN:126,152,_ZNSt15__new_allocatorISt23_Sp_counted_ptr_inplaceIN5Catch5Clara6Detail11BoundLambdaIZNS1_21makeCommandLineParserERNS1_10ConfigDataEEUlRKNSt7__cxx1112basic_stringIcSt11char_traitsIcESaIcEEEE3_EESaIvELN9__gnu_cxx12_Lock_policyE2EEE8allocateEmPKv
FN:126,152,_ZNSt15__new_allocatorISt23_Sp_counted_ptr_inplaceIN5Catch5Clara6Detail11BoundLambdaIZNS1_21makeCommandLineParserERNS1_10ConfigDataEEUlRKNSt7__cxx1112basic_stringIcSt11char_traitsIcESaIcEEEE4_EESaIvELN9__gnu_cxx12_Lock_policyE2EEE8allocateEmPKv
FN:126,152,_ZNSt15__new_allocatorISt23_Sp_counted_ptr_inplaceIN5Catch5Clara6Detail11BoundLambdaIZNS1_21makeCommandLineParserERNS1_10ConfigDataEEUlRKNSt7__cxx1112basic_stringIcSt11char_traitsIcESaIcEEEE5_EESaIvELN9__gnu_cxx12_Lock_policyE2EEE8allocateEmPKv
FN:126,152,_ZNSt15__new_allocatorISt23_Sp_counted_ptr_inplaceIN5Catch5Clara6Detail11BoundLambdaIZNS1_21makeCommandLineParserERNS1_10ConfigDataEEUlRKNSt7__cxx1112basic_stringIcSt11char_traitsIcESaIcEEEE7_EESaIvELN9__gnu_cxx12_Lock_policyE2EEE8allocateEmPKv
FN:126,152,_ZNSt15__new_allocatorISt23_Sp_counted_ptr_inplaceIN5Catch5Clara6Detail11BoundLambdaIZNS1_21makeCommandLineParserERNS1_10ConfigDataEEUlRKNSt7__cxx1112basic_stringIcSt11char_traitsIcESaIcEEEE8_EESaIvELN9__gnu_cxx12_Lock_policyE2EEE8allocateEmPKv
FN:126,152,_ZNSt15__new_allocatorISt23_Sp_counted_ptr_inplaceIN5Catch5Clara6Detail11BoundLambdaIZNS1_21makeCommandLineParserERNS1_10ConfigDataEEUlbE0_EESaIvELN9__gnu_cxx12_Lock_policyE2EEE8allocateEmPKv
FN:126,152,_ZNSt15__new_allocatorISt23_Sp_counted_ptr_inplaceIN5Catch5Clara6Detail11BoundLambdaIZNS1_21makeCommandLineParserERNS1_10ConfigDataEEUliE_EESaIvELN9__gnu_cxx12_Lock_policyE2EEE8allocateEmPKv
FN:126,152,_ZNSt15__new_allocatorISt23_Sp_counted_ptr_inplaceIN5Catch5Clara6Detail12BoundFlagRefESaIvELN9__gnu_cxx12_Lock_policyE2EEE8allocateEmPKv
FN:126,152,_ZNSt15__new_allocatorISt23_Sp_counted_ptr_inplaceIN5Catch5Clara6Detail13BoundValueRefINSt7__cxx1112basic_stringIcSt11char_traitsIcESaIcEEEEESaIvELN9__gnu_cxx12_Lock_policyE2EEE8allocateEmPKv
FN:126,152,_ZNSt15__new_allocatorISt23_Sp_counted_ptr_inplaceIN5Catch5Clara6Detail13BoundValueRefISt6vectorINSt7__cxx1112basic_stringIcSt11char_traitsIcESaIcEEESaISB_EEEESaIvELN9__gnu_cxx12_Lock_policyE2EEE8allocateEmPKv
FN:126,152,_ZNSt15__new_allocatorISt23_Sp_counted_ptr_inplaceIN5Catch5Clara6Detail13BoundValueRefIdEESaIvELN9__gnu_cxx12_Lock_policyE2EEE8allocateEmPKv
FN:126,152,_ZNSt15__new_allocatorISt23_Sp_counted_ptr_inplaceIN5Catch5Clara6Detail13BoundValueRefIjEESaIvELN9__gnu_cxx12_Lock_policyE2EEE8allocateEmPKv
FN:126,152,_ZNSt15__new_allocatorISt23_Sp_counted_ptr_inplaceIN5Catch5Clara6Detail13BoundValueRefIlEESaIvELN9__gnu_cxx12_Lock_policyE2EEE8allocateEmPKv
FN:126,152,_ZNSt15__new_allocatorISt23_Sp_counted_ptr_inplaceIN5Catch5Clara6Detail15BoundFlagLambdaIZNS1_21makeCommandLineParserERNS1_10ConfigDataEEUlbE_EESaIvELN9__gnu_cxx12_Lock_policyE2EEE8allocateEmPKv
FN:126,152,_ZNSt15__new_allocatorISt23_Sp_counted_ptr_inplaceIN5Catch5Clara6Detail15BoundFlagLambdaIZNS2_4HelpC4ERbEUlbE_EESaIvELN9__gnu_cxx12_Lock_policyE2EEE8allocateEmPKv
FN:126,152,_ZNSt15__new_allocatorISt23_Sp_counted_ptr_inplaceIN5Catch5Clara6Detail15BoundManyLambdaIZNS1_21makeCommandLineParserERNS1_10ConfigDataEEUlRKNSt7__cxx1112basic_stringIcSt11char_traitsIcESaIcEEEE6_EESaIvELN9__gnu_cxx12_Lock_policyE2EEE8allocateEmPKv
FN:126,152,_ZNSt15__new_allocatorISt23_Sp_counted_ptr_inplaceIN5Catch5Clara6Detail15BoundManyLambdaIZNS1_21makeCommandLineParserERNS1_10ConfigDataEEUlRKNSt7__cxx1112basic_stringIcSt11char_traitsIcESaIcEEEE_EESaIvELN9__gnu_cxx12_Lock_policyE2EEE8allocateEmPKv
FN:126,152,_ZNSt15__new_allocatorISt23_Sp_counted_ptr_inplaceINSt7__cxx1112basic_stringIcSt11char_traitsIcESaIcEEESaIvELN9__gnu_cxx12_Lock_policyE2EEE8allocateEmPKv
FN:126,152,_ZNSt15__new_allocatorISt23_Sp_counted_ptr_inplaceINSt8__detail4_NFAINSt7__cxx1112regex_traitsIcEEEESaIvELN9__gnu_cxx12_Lock_policyE2EEE8allocateEmPKv
FN:126,152,_ZNSt15__new_allocatorISt4pairIN9__gnu_cxx17__normal_iteratorIPKcNSt7__cxx1112basic_stringIcSt11char_traitsIcESaIcEEEEEiEE8allocateEmPKv
FN:126,152,_ZNSt15__new_allocatorISt4pairINSt7__cxx1112basic_stringIcSt11char_traitsIcESaIcEEES6_EE8allocateEmPKv
FN:126,152,_ZNSt15__new_allocatorISt4pairISt6vectorIdSaIdEEdEE8allocateEmPKv
FN:126,152,_ZNSt15__new_allocatorISt4pairIccEE8allocateEmPKv
FN:126,152,_ZNSt15__new_allocatorISt4pairIddEE8allocateEmPKv
FN:126,152,_ZNSt15__new_allocatorISt4pairIiN5Catch9StringRefEEE8allocateEmPKv
FN:126,152,_ZNSt15__new_allocatorISt4pairIlSt6vectorINSt7__cxx119sub_matchIN9__gnu_cxx17__normal_iteratorIPKcNS2_12basic_stringIcSt11char_traitsIcESaIcEEEEEEESaISE_EEEE8allocateEmPKv
FN:126,152,_ZNSt15__new_allocatorISt4pairImN5Catch14TestCaseHandleEEE8allocateEmPKv
FN:126,152,_ZNSt15__new_allocatorISt6vectorIdSaIdEEE8allocateEmPKv
FN:126,152,_ZNSt15__new_allocatorIZNK5Catch5Clara6Parser5parseERKNSt7__cxx1112basic_stringIcSt11char_traitsIcESaIcEEENS1_6Detail11TokenStreamEE10ParserInfoE8allocateEmPKv
FN:126,152,_ZNSt15__new_allocatorIcE8allocateEmPKv
FN:126,152,_ZNSt15__new_allocatorIdE8allocateEmPKv
FN:126,152,_ZNSt15__new_allocatorIlE8allocateEmPKv
FN:126,152,_ZNSt15__new_allocatorImE8allocateEmPKv
FN:156,173,_ZNSt15__new_allocatorIN5Catch10ColumnInfoEE10deallocateEPS1_m
FN:156,173,_ZNSt15__new_allocatorIN5Catch11MessageInfoEE10deallocateEPS1_m
FN:156,173,_ZNSt15__new_allocatorIN5Catch11SectionInfoEE10deallocateEPS1_m
FN:156,173,_ZNSt15__new_allocatorIN5Catch12JsonReporter6WriterEE10deallocateEPS2_m
FN:156,173,_ZNSt15__new_allocatorIN5Catch12ReporterSpecEE10deallocateEPS1_m
FN:156,173,_ZNSt15__new_allocatorIN5Catch12_GLOBAL__N_113SummaryColumnEE10deallocateEPS2_m
FN:156,173,_ZNSt15__new_allocatorIN5Catch13ScopedMessageEE10deallocateEPS1_m
FN:156,173,_ZNSt15__new_allocatorIN5Catch14SectionEndInfoEE10deallocateEPS1_m
FN:156,173,_ZNSt15__new_allocatorIN5Catch14TestCaseHandleEE10deallocateEPS1_m
FN:156,173,_ZNSt15__new_allocatorIN5Catch15JsonArrayWriterEE10deallocateEPS1_m
FN:156,173,_ZNSt15__new_allocatorIN5Catch16JsonObjectWriterEE10deallocateEPS1_m
FN:156,173,_ZNSt15__new_allocatorIN5Catch19ListenerDescriptionEE10deallocateEPS1_m
FN:156,173,_ZNSt15__new_allocatorIN5Catch19ReporterDescriptionEE10deallocateEPS1_m
FN:156,173,_ZNSt15__new_allocatorIN5Catch21ProcessedReporterSpecEE10deallocateEPS1_m
FN:156,173,_ZNSt15__new_allocatorIN5Catch3TagEE10deallocateEPS1_m
FN:156,173,_ZNSt15__new_allocatorIN5Catch5Clara3ArgEE10deallocateEPS2_m
FN:156,173,_ZNSt15__new_allocatorIN5Catch5Clara3OptEE10deallocateEPS2_m
FN:156,173,_ZNSt15__new_allocatorIN5Catch5Clara6Detail11HelpColumnsEE10deallocateEPS3_m
FN:156,173,_ZNSt15__new_allocatorIN5Catch5Clara6Detail5TokenEE10deallocateEPS3_m
FN:156,173,_ZNSt15__new_allocatorIN5Catch6Detail10unique_ptrIKNS0_20IExceptionTranslatorEEEE10deallocateEPS5_m
FN:156,173,_ZNSt15__new_allocatorIN5Catch6Detail10unique_ptrINS0_12ITestInvokerEEEE10deallocateEPS4_m
FN:156,173,_ZNSt15__new_allocatorIN5Catch6Detail10unique_ptrINS0_12TestCaseInfoEEEE10deallocateEPS4_m
FN:156,173,_ZNSt15__new_allocatorIN5Catch6Detail10unique_ptrINS0_14IEventListenerEEEE10deallocateEPS4_m
FN:156,173,_ZNSt15__new_allocatorIN5Catch6Detail10unique_ptrINS0_16TestCaseTracking8ITrackerEEEE10deallocateEPS5_m
FN:156,173,_ZNSt15__new_allocatorIN5Catch6Detail10unique_ptrINS0_20EventListenerFactoryEEEE10deallocateEPS4_m
FN:156,173,_ZNSt15__new_allocatorIN5Catch6Detail10unique_ptrINS0_22CumulativeReporterBase11SectionNodeEEEE10deallocateEPS5_m
FN:156,173,_ZNSt15__new_allocatorIN5Catch6Detail10unique_ptrINS0_22CumulativeReporterBase4NodeINS0_13TestCaseStatsENS3_11SectionNodeEEEEEE10deallocateEPS8_m
FN:156,173,_ZNSt15__new_allocatorIN5Catch6Detail10unique_ptrINS0_8TestSpec7PatternEEEE10deallocateEPS5_m
FN:156,173,_ZNSt15__new_allocatorIN5Catch6Detail10unique_ptrINS1_8EnumInfoEEEE10deallocateEPS4_m
FN:156,173,_ZNSt15__new_allocatorIN5Catch6Detail10unique_ptrINSt7__cxx1119basic_ostringstreamIcSt11char_traitsIcESaIcEEEEEE10deallocateEPS9_m
FN:156,173,_ZNSt15__new_allocatorIN5Catch6Detail26AssertionOrBenchmarkResultEE10deallocateEPS2_m
FN:156,173,_ZNSt15__new_allocatorIN5Catch7TagInfoEE10deallocateEPS1_m
FN:156,173,_ZNSt15__new_allocatorIN5Catch8TestSpec11FilterMatchEE10deallocateEPS2_m
FN:156,173,_ZNSt15__new_allocatorIN5Catch8TestSpec6FilterEE10deallocateEPS2_m
FN:156,173,_ZNSt15__new_allocatorIN5Catch8TextFlow6Column14const_iteratorEE10deallocateEPS3_m
FN:156,173,_ZNSt15__new_allocatorIN5Catch8TextFlow6ColumnEE10deallocateEPS2_m
FN:156,173,_ZNSt15__new_allocatorIN5Catch9StringRefEE10deallocateEPS1_m
FN:156,173,_ZNSt15__new_allocatorINSt15__exception_ptr13exception_ptrEE10deallocateEPS1_m
FN:156,173,_ZNSt15__new_allocatorINSt6chrono8durationIdSt5ratioILl1ELl1000000000EEEEE10deallocateEPS4_m
FN:156,173,_ZNSt15__new_allocatorINSt7__cxx1112basic_stringIcSt11char_traitsIcESaIcEEEE10deallocateEPS5_m
FN:156,173,_ZNSt15__new_allocatorINSt7__cxx1112regex_traitsIcE10_RegexMaskEE10deallocateEPS3_m
FN:156,173,_ZNSt15__new_allocatorINSt7__cxx119sub_matchIN9__gnu_cxx17__normal_iteratorIPKcNS0_12basic_stringIcSt11char_traitsIcESaIcEEEEEEEE10deallocateEPSC_m
FN:156,173,_ZNSt15__new_allocatorINSt8__detail10_Hash_nodeISt4pairIKNSt7__cxx1112basic_stringIcSt11char_traitsIcESaIcEEES8_ELb1EEEE10deallocateEPSB_m
FN:156,173,_ZNSt15__new_allocatorINSt8__detail10_Hash_nodeISt4pairIKmdELb0EEEE10deallocateEPS5_m
FN:156,173,_ZNSt15__new_allocatorINSt8__detail6_StateIcEEE10deallocateEPS2_m
FN:156,173,_ZNSt15__new_allocatorINSt8__detail9_StateSeqINSt7__cxx1112regex_traitsIcEEEEE10deallocateEPS5_m
FN:156,173,_ZNSt15__new_allocatorIPKN5Catch14TestCaseHandleEE10deallocateEPS3_m
FN:156,173,_ZNSt15__new_allocatorIPKN5Catch22CumulativeReporterBase4NodeINS0_13TestCaseStatsENS1_11SectionNodeEEEE10deallocateEPS7_m
FN:156,173,_ZNSt15__new_allocatorIPN5Catch10ISingletonEE10deallocateEPS2_m
FN:156,173,_ZNSt15__new_allocatorIPN5Catch12JsonReporter6WriterEE10deallocateEPS3_m
FN:156,173,_ZNSt15__new_allocatorIPN5Catch12TestCaseInfoEE10deallocateEPS2_m
FN:156,173,_ZNSt15__new_allocatorIPN5Catch15JsonArrayWriterEE10deallocateEPS2_m
FN:156,173,_ZNSt15__new_allocatorIPN5Catch16JsonObjectWriterEE10deallocateEPS2_m
FN:156,173,_ZNSt15__new_allocatorIPN5Catch16TestCaseTracking8ITrackerEE10deallocateEPS3_m
FN:156,173,_ZNSt15__new_allocatorIPN5Catch22CumulativeReporterBase11SectionNodeEE10deallocateEPS3_m
FN:156,173,_ZNSt15__new_allocatorIPNSt8__detail15_Hash_node_baseEE10deallocateEPS2_m
FN:156,173,_ZNSt15__new_allocatorIPNSt8__detail9_StateSeqINSt7__cxx1112regex_traitsIcEEEEE10deallocateEPS6_m
FN:156,173,_ZNSt15__new_allocatorIPcE10deallocateEPS0_m
FN:156,173,_ZNSt15__new_allocatorIPlE10deallocateEPS0_m
FN:156,173,_ZNSt15__new_allocatorISt13_Rb_tree_nodeIN5Catch9StringRefEEE10deallocateEPS3_m
FN:156,173,_ZNSt15__new_allocatorISt13_Rb_tree_nodeIPKN5Catch12TestCaseInfoEEE10deallocateEPS5_m
FN:156,173,_ZNSt15__new_allocatorISt13_Rb_tree_nodeIPKN5Catch14TestCaseHandleEEE10deallocateEPS5_m
FN:156,173,_ZNSt15__new_allocatorISt13_Rb_tree_nodeISt4pairIKN5Catch9StringRefENS2_7TagInfoEEEE10deallocateEPS7_m
FN:156,173,_ZNSt15__new_allocatorISt13_Rb_tree_nodeISt4pairIKN5Catch9StringRefESt6vectorIPKNS2_22CumulativeReporterBase4NodeINS2_13TestCaseStatsENS6_11SectionNodeEEESaISC_EEEEE10deallocateEPSG_m
FN:156,173,_ZNSt15__new_allocatorISt13_Rb_tree_nodeISt4pairIKNSt7__cxx1112basic_stringIcSt11char_traitsIcESaIcEEEN5Catch6Detail10unique_ptrINS9_16IReporterFactoryEEEEEE10deallocateEPSF_m
FN:156,173,_ZNSt15__new_allocatorISt13_Rb_tree_nodeISt4pairIKNSt7__cxx1112basic_stringIcSt11char_traitsIcESaIcEEEN5Catch8TagAliasEEEE10deallocateEPSC_m
FN:156,173,_ZNSt15__new_allocatorISt13_Rb_tree_nodeISt4pairIKNSt7__cxx1112basic_stringIcSt11char_traitsIcESaIcEEES7_EEE10deallocateEPSA_m
FN:156,173,_ZNSt15__new_allocatorISt13_Rb_tree_nodeISt4pairIKllEEE10deallocateEPS4_m
FN:156,173,_ZNSt15__new_allocatorISt23_Sp_counted_ptr_inplaceIN5Catch5Clara6Detail11BoundLambdaIZNS1_21makeCommandLineParserERNS1_10ConfigDataEEUlRKNSt7__cxx1112basic_stringIcSt11char_traitsIcESaIcEEEE0_EESaIvELN9__gnu_cxx12_Lock_policyE2EEE10deallocateEPSK_m
FN:156,173,_ZNSt15__new_allocatorISt23_Sp_counted_ptr_inplaceIN5Catch5Clara6Detail11BoundLambdaIZNS1_21makeCommandLineParserERNS1_10ConfigDataEEUlRKNSt7__cxx1112basic_stringIcSt11char_traitsIcESaIcEEEE1_EESaIvELN9__gnu_cxx12_Lock_policyE2EEE10deallocateEPSK_m
FN:156,173,_ZNSt15__new_allocatorISt23_Sp_counted_ptr_inplaceIN5Catch5Clara6Detail11BoundLambdaIZNS1_21makeCommandLineParserERNS1_10ConfigDataEEUlRKNSt7__cxx1112basic_stringIcSt11char_traitsIcESaIcEEEE2_EESaIvELN9__gnu_cxx12_Lock_policyE2EEE10deallocateEPSK_m
FN:156,173,_ZNSt15__new_allocatorISt23_Sp_counted_ptr_inplaceIN5Catch5Clara6Detail11BoundLambdaIZNS1_21makeCommandLineParserERNS1_10ConfigDataEEUlRKNSt7__cxx1112basic_stringIcSt11char_traitsIcESaIcEEEE3_EESaIvELN9__gnu_cxx12_Lock_policyE2EEE10deallocateEPSK_m
FN:156,173,_ZNSt15__new_allocatorISt23_Sp_counted_ptr_inplaceIN5Catch5Clara6Detail11BoundLambdaIZNS1_21makeCommandLineParserERNS1_10ConfigDataEEUlRKNSt7__cxx1112basic_stringIcSt11char_traitsIcESaIcEEEE4_EESaIvELN9__gnu_cxx12_Lock_policyE2EEE10deallocateEPSK_m
FN:156,173,_ZNSt15__new_allocatorISt23_Sp_counted_ptr_inplaceIN5Catch5Clara6Detail11BoundLambdaIZNS1_21makeCommandLineParserERNS1_10ConfigDataEEUlRKNSt7__cxx1112basic_stringIcSt11char_traitsIcESaIcEEEE5_EESaIvELN9__gnu_cxx12_Lock_policyE2EEE10deallocateEPSK_m
FN:156,173,_ZNSt15__new_allocatorISt23_Sp_counted_ptr_inplaceIN5Catch5Clara6Detail11BoundLambdaIZNS1_21makeCommandLineParserERNS1_10ConfigDataEEUlRKNSt7__cxx1112basic_stringIcSt11char_traitsIcESaIcEEEE7_EESaIvELN9__gnu_cxx12_Lock_policyE2EEE10deallocateEPSK_m
FN:156,173,_ZNSt15__new_allocatorISt23_Sp_counted_ptr_inplaceIN5Catch5Clara6Detail11BoundLambdaIZNS1_21makeCommandLineParserERNS1_10ConfigDataEEUlRKNSt7__cxx1112basic_stringIcSt11char_traitsIcESaIcEEEE8_EESaIvELN9__gnu_cxx12_Lock_policyE2EEE10deallocateEPSK_m
FN:156,173,_ZNSt15__new_allocatorISt23_Sp_counted_ptr_inplaceIN5Catch5Clara6Detail11BoundLambdaIZNS1_21makeCommandLineParserERNS1_10ConfigDataEEUlbE0_EESaIvELN9__gnu_cxx12_Lock_policyE2EEE10deallocateEPSC_m
FN:156,173,_ZNSt15__new_allocatorISt23_Sp_counted_ptr_inplaceIN5Catch5Clara6Detail11BoundLambdaIZNS1_21makeCommandLineParserERNS1_10ConfigDataEEUliE_EESaIvELN9__gnu_cxx12_Lock_policyE2EEE10deallocateEPSC_m
FN:156,173,_ZNSt15__new_allocatorISt23_Sp_counted_ptr_inplaceIN5Catch5Clara6Detail12BoundFlagRefESaIvELN9__gnu_cxx12_Lock_policyE2EEE10deallocateEPS8_m
FN:156,173,_ZNSt15__new_allocatorISt23_Sp_counted_ptr_inplaceIN5Catch5Clara6Detail13BoundValueRefINSt7__cxx1112basic_stringIcSt11char_traitsIcESaIcEEEEESaIvELN9__gnu_cxx12_Lock_policyE2EEE10deallocateEPSF_m
FN:156,173,_ZNSt15__new_allocatorISt23_Sp_counted_ptr_inplaceIN5Catch5Clara6Detail13BoundValueRefISt6vectorINSt7__cxx1112basic_stringIcSt11char_traitsIcESaIcEEESaISB_EEEESaIvELN9__gnu_cxx12_Lock_policyE2EEE10deallocateEPSI_m
FN:156,173,_ZNSt15__new_allocatorISt23_Sp_counted_ptr_inplaceIN5Catch5Clara6Detail13BoundValueRefIdEESaIvELN9__gnu_cxx12_Lock_policyE2EEE10deallocateEPS9_m
FN:156,173,_ZNSt15__new_allocatorISt23_Sp_counted_ptr_inplaceIN5Catch5Clara6Detail13BoundValueRefIjEESaIvELN9__gnu_cxx12_Lock_policyE2EEE10deallocateEPS9_m
FN:156,173,_ZNSt15__new_allocatorISt23_Sp_counted_ptr_inplaceIN5Catch5Clara6Detail13BoundValueRefIlEESaIvELN9__gnu_cxx12_Lock_policyE2EEE10deallocateEPS9_m
FN:156,173,_ZNSt15__new_allocatorISt23_Sp_counted_ptr_inplaceIN5Catch5Clara6Detail15BoundFlagLambdaIZNS1_21makeCommandLineParserERNS1_10ConfigDataEEUlbE_EESaIvELN9__gnu_cxx12_Lock_policyE2EEE10deallocateEPSC_m
FN:156,173,_ZNSt15__new_allocatorISt23_Sp_counted_ptr_inplaceIN5Catch5Clara6Detail15BoundFlagLambdaIZNS2_4HelpC4ERbEUlbE_EESaIvELN9__gnu_cxx12_Lock_policyE2EEE10deallocateEPSC_m
FN:156,173,_ZNSt15__new_allocatorISt23_Sp_counted_ptr_inplaceIN5Catch5Clara6Detail15BoundManyLambdaIZNS1_21makeCommandLineParserERNS1_10ConfigDataEEUlRKNSt7__cxx1112basic_stringIcSt11char_traitsIcESaIcEEEE6_EESaIvELN9__gnu_cxx12_Lock_policyE2EEE10deallocateEPSK_m
FN:156,173,_ZNSt15__new_allocatorISt23_Sp_counted_ptr_inplaceIN5Catch5Clara6Detail15BoundManyLambdaIZNS1_21makeCommandLineParserERNS1_10ConfigDataEEUlRKNSt7__cxx1112basic_stringIcSt11char_traitsIcESaIcEEEE_EESaIvELN9__gnu_cxx12_Lock_policyE2EEE10deallocateEPSK_m
FN:156,173,_ZNSt15__new_allocatorISt23_Sp_counted_ptr_inplaceINSt7__cxx1112basic_stringIcSt11char_traitsIcESaIcEEESaIvELN9__gnu_cxx12_Lock_policyE2EEE10deallocateEPSA_m
FN:156,173,_ZNSt15__new_allocatorISt23_Sp_counted_ptr_inplaceINSt8__detail4_NFAINSt7__cxx1112regex_traitsIcEEEESaIvELN9__gnu_cxx12_Lock_policyE2EEE10deallocateEPSA_m
FN:156,173,_ZNSt15__new_allocatorISt4pairIN9__gnu_cxx17__normal_iteratorIPKcNSt7__cxx1112basic_stringIcSt11char_traitsIcESaIcEEEEEiEE10deallocateEPSC_m
FN:156,173,_ZNSt15__new_allocatorISt4pairINSt7__cxx1112basic_stringIcSt11char_traitsIcESaIcEEES6_EE10deallocateEPS7_m
FN:156,173,_ZNSt15__new_allocatorISt4pairISt6vectorIdSaIdEEdEE10deallocateEPS4_m
FN:156,173,_ZNSt15__new_allocatorISt4pairIccEE10deallocateEPS1_m
FN:156,173,_ZNSt15__new_allocatorISt4pairIddEE10deallocateEPS1_m
FN:156,173,_ZNSt15__new_allocatorISt4pairIiN5Catch9StringRefEEE10deallocateEPS3_m
FN:156,173,_ZNSt15__new_allocatorISt4pairIlSt6vectorINSt7__cxx119sub_matchIN9__gnu_cxx17__normal_iteratorIPKcNS2_12basic_stringIcSt11char_traitsIcESaIcEEEEEEESaISE_EEEE10deallocateEPSH_m
FN:156,173,_ZNSt15__new_allocatorISt4pairImN5Catch14TestCaseHandleEEE10deallocateEPS3_m
FN:156,173,_ZNSt15__new_allocatorISt6vectorIdSaIdEEE10deallocateEPS2_m
FN:156,173,_ZNSt15__new_allocatorIZNK5Catch5Clara6Parser5parseERKNSt7__cxx1112basic_stringIcSt11char_traitsIcESaIcEEENS1_6Detail11TokenStreamEE10ParserInfoE10deallocateEPSD_m
FN:156,173,_ZNSt15__new_allocatorIcE10deallocateEPcm
FN:156,173,_ZNSt15__new_allocatorIdE10deallocateEPdm
FN:156,173,_ZNSt15__new_allocatorIlE10deallocateEPlm
FN:156,173,_ZNSt15__new_allocatorImE10deallocateEPmm
FNDA:1525,_ZNSt15__new_allocatorIN5Catch10ColumnInfoEED2Ev
FNDA:645,_ZNSt15__new_allocatorIN5Catch11MessageInfoEED2Ev
FNDA:306,_ZNSt15__new_allocatorIN5Catch11SectionInfoEED2Ev
FNDA:1,_ZNSt15__new_allocatorIN5Catch12JsonReporter6WriterEED2Ev
FNDA:918,_ZNSt15__new_allocatorIN5Catch12ReporterSpecEED2Ev
FNDA:0,_ZNSt15__new_allocatorIN5Catch12_GLOBAL__N_113SummaryColumnEED2Ev
FNDA:305,_ZNSt15__new_allocatorIN5Catch13ScopedMessageEED2Ev
FNDA:305,_ZNSt15__new_allocatorIN5Catch14SectionEndInfoEED2Ev
FNDA:1839,_ZNSt15__new_allocatorIN5Catch14TestCaseHandleEED2Ev
FNDA:1,_ZNSt15__new_allocatorIN5Catch15JsonArrayWriterEED2Ev
FNDA:1,_ZNSt15__new_allocatorIN5Catch16JsonObjectWriterEED2Ev
FNDA:0,_ZNSt15__new_allocatorIN5Catch19ListenerDescriptionEED2Ev
FNDA:0,_ZNSt15__new_allocatorIN5Catch19ReporterDescriptionEED2Ev
FNDA:306,_ZNSt15__new_allocatorIN5Catch21ProcessedReporterSpecEED2Ev
FNDA:18666,_ZNSt15__new_allocatorIN5Catch3TagEED2Ev
FNDA:12546,_ZNSt15__new_allocatorIN5Catch5Clara3ArgEED2Ev
FNDA:12546,_ZNSt15__new_allocatorIN5Catch5Clara3OptEED2Ev
FNDA:0,_ZNSt15__new_allocatorIN5Catch5Clara6Detail11HelpColumnsEED2Ev
FNDA:56555,_ZNSt15__new_allocatorIN5Catch5Clara6Detail5TokenEED2Ev
FNDA:306,_ZNSt15__new_allocatorIN5Catch6Detail10unique_ptrIKNS0_20IExceptionTranslatorEEEED2Ev
FNDA:306,_ZNSt15__new_allocatorIN5Catch6Detail10unique_ptrINS0_12ITestInvokerEEEED2Ev
FNDA:306,_ZNSt15__new_allocatorIN5Catch6Detail10unique_ptrINS0_12TestCaseInfoEEEED2Ev
FNDA:0,_ZNSt15__new_allocatorIN5Catch6Detail10unique_ptrINS0_14IEventListenerEEEED2Ev
FNDA:610,_ZNSt15__new_allocatorIN5Catch6Detail10unique_ptrINS0_16TestCaseTracking8ITrackerEEEED2Ev
FNDA:306,_ZNSt15__new_allocatorIN5Catch6Detail10unique_ptrINS0_20EventListenerFactoryEEEED2Ev
FNDA:0,_ZNSt15__new_allocatorIN5Catch6Detail10unique_ptrINS0_22CumulativeReporterBase11SectionNodeEEEED2Ev
FNDA:0,_ZNSt15__new_allocatorIN5Catch6Detail10unique_ptrINS0_22CumulativeReporterBase4NodeINS0_13TestCaseStatsENS3_11SectionNodeEEEEEED2Ev
FNDA:3052,_ZNSt15__new_allocatorIN5Catch6Detail10unique_ptrINS0_8TestSpec7PatternEEEED2Ev
FNDA:306,_ZNSt15__new_allocatorIN5Catch6Detail10unique_ptrINS1_8EnumInfoEEEED2Ev
FNDA:305,_ZNSt15__new_allocatorIN5Catch6Detail10unique_ptrINSt7__cxx1119basic_ostringstreamIcSt11char_traitsIcESaIcEEEEEED2Ev
FNDA:0,_ZNSt15__new_allocatorIN5Catch6Detail26AssertionOrBenchmarkResultEED2Ev
FNDA:0,_ZNSt15__new_allocatorIN5Catch7TagInfoEED2Ev
FNDA:1220,_ZNSt15__new_allocatorIN5Catch8TestSpec11FilterMatchEED2Ev
FNDA:1530,_ZNSt15__new_allocatorIN5Catch8TestSpec6FilterEED2Ev
FNDA:0,_ZNSt15__new_allocatorIN5Catch8TextFlow6Column14const_iteratorEED2Ev
FNDA:0,_ZNSt15__new_allocatorIN5Catch8TextFlow6ColumnEED2Ev
FNDA:42532,_ZNSt15__new_allocatorIN5Catch9StringRefEED2Ev
FNDA:306,_ZNSt15__new_allocatorINSt15__exception_ptr13exception_ptrEED2Ev
FNDA:0,_ZNSt15__new_allocatorINSt6chrono8durationIdSt5ratioILl1ELl1000000000EEEEED2Ev
FNDA:3672,_ZNSt15__new_allocatorINSt7__cxx1112basic_stringIcSt11char_traitsIcESaIcEEEED2Ev
FNDA:0,_ZNSt15__new_allocatorINSt7__cxx1112regex_traitsIcE10_RegexMaskEED2Ev
FNDA:0,_ZNSt15__new_allocatorINSt7__cxx119sub_matchIN9__gnu_cxx17__normal_iteratorIPKcNS0_12basic_stringIcSt11char_traitsIcESaIcEEEEEEEED2Ev
FNDA:120,_ZNSt15__new_allocatorINSt8__detail10_Hash_nodeISt4pairIKNSt7__cxx1112basic_stringIcSt11char_traitsIcESaIcEEES8_ELb1EEEED2Ev
FNDA:150,_ZNSt15__new_allocatorINSt8__detail10_Hash_nodeISt4pairIKmdELb0EEEED2Ev
FNDA:0,_ZNSt15__new_allocatorINSt8__detail6_StateIcEEED2Ev
FNDA:0,_ZNSt15__new_allocatorINSt8__detail9_StateSeqINSt7__cxx1112regex_traitsIcEEEEED2Ev
FNDA:612,_ZNSt15__new_allocatorIPKN5Catch12TestCaseInfoEED2Ev
FNDA:1220,_ZNSt15__new_allocatorIPKN5Catch14TestCaseHandleEED2Ev
FNDA:0,_ZNSt15__new_allocatorIPKN5Catch22CumulativeReporterBase4NodeINS0_13TestCaseStatsENS1_11SectionNodeEEEED2Ev
FNDA:612,_ZNSt15__new_allocatorIPN5Catch10ISingletonEED2Ev
FNDA:2,_ZNSt15__new_allocatorIPN5Catch12JsonReporter6WriterEED2Ev
FNDA:306,_ZNSt15__new_allocatorIPN5Catch12TestCaseInfoEED2Ev
FNDA:2,_ZNSt15__new_allocatorIPN5Catch15JsonArrayWriterEED2Ev
FNDA:2,_ZNSt15__new_allocatorIPN5Catch16JsonObjectWriterEED2Ev
FNDA:305,_ZNSt15__new_allocatorIPN5Catch16TestCaseTracking8ITrackerEED2Ev
FNDA:0,_ZNSt15__new_allocatorIPN5Catch22CumulativeReporterBase11SectionNodeEED2Ev
FNDA:300,_ZNSt15__new_allocatorIPNSt8__detail15_Hash_node_baseEED2Ev
FNDA:0,_ZNSt15__new_allocatorIPNSt8__detail9_StateSeqINSt7__cxx1112regex_traitsIcEEEEED2Ev
FNDA:0,_ZNSt15__new_allocatorIPcED2Ev
FNDA:0,_ZNSt15__new_allocatorIPlED2Ev
FNDA:0,_ZNSt15__new_allocatorISt13_Rb_tree_nodeIN5Catch9StringRefEEED2Ev
FNDA:612,_ZNSt15__new_allocatorISt13_Rb_tree_nodeIPKN5Catch12TestCaseInfoEEED2Ev
FNDA:915,_ZNSt15__new_allocatorISt13_Rb_tree_nodeIPKN5Catch14TestCaseHandleEEED2Ev
FNDA:0,_ZNSt15__new_allocatorISt13_Rb_tree_nodeISt4pairIKN5Catch9StringRefENS2_7TagInfoEEEED2Ev
FNDA:0,_ZNSt15__new_allocatorISt13_Rb_tree_nodeISt4pairIKN5Catch9StringRefESt6vectorIPKNS2_22CumulativeReporterBase4NodeINS2_13TestCaseStatsENS6_11SectionNodeEEESaISC_EEEEED2Ev
FNDA:306,_ZNSt15__new_allocatorISt13_Rb_tree_nodeISt4pairIKNSt7__cxx1112basic_stringIcSt11char_traitsIcESaIcEEEN5Catch6Detail10unique_ptrINS9_16IReporterFactoryEEEEEED2Ev
FNDA:306,_ZNSt15__new_allocatorISt13_Rb_tree_nodeISt4pairIKNSt7__cxx1112basic_stringIcSt11char_traitsIcESaIcEEEN5Catch8TagAliasEEEED2Ev
FNDA:3980,_ZNSt15__new_allocatorISt13_Rb_tree_nodeISt4pairIKNSt7__cxx1112basic_stringIcSt11char_traitsIcESaIcEEES7_EEED2Ev
FNDA:0,_ZNSt15__new_allocatorISt13_Rb_tree_nodeISt4pairIKllEEED2Ev
FNDA:612,_ZNSt15__new_allocatorISt23_Sp_counted_ptr_inplaceIN5Catch5Clara6Detail11BoundLambdaIZNS1_21makeCommandLineParserERNS1_10ConfigDataEEUlRKNSt7__cxx1112basic_stringIcSt11char_traitsIcESaIcEEEE0_EESaIvELN9__gnu_cxx12_Lock_policyE2EEED2Ev
FNDA:612,_ZNSt15__new_allocatorISt23_Sp_counted_ptr_inplaceIN5Catch5Clara6Detail11BoundLambdaIZNS1_21makeCommandLineParserERNS1_10ConfigDataEEUlRKNSt7__cxx1112basic_stringIcSt11char_traitsIcESaIcEEEE1_EESaIvELN9__gnu_cxx12_Lock_policyE2EEED2Ev
FNDA:612,_ZNSt15__new_allocatorISt23_Sp_counted_ptr_inplaceIN5Catch5Clara6Detail11BoundLambdaIZNS1_21makeCommandLineParserERNS1_10ConfigDataEEUlRKNSt7__cxx1112basic_stringIcSt11char_traitsIcESaIcEEEE2_EESaIvELN9__gnu_cxx12_Lock_policyE2EEED2Ev
FNDA:612,_ZNSt15__new_allocatorISt23_Sp_counted_ptr_inplaceIN5Catch5Clara6Detail11BoundLambdaIZNS1_21makeCommandLineParserERNS1_10ConfigDataEEUlRKNSt7__cxx1112basic_stringIcSt11char_traitsIcESaIcEEEE3_EESaIvELN9__gnu_cxx12_Lock_policyE2EEED2Ev
FNDA:612,_ZNSt15__new_allocatorISt23_Sp_counted_ptr_inplaceIN5Catch5Clara6Detail11BoundLambdaIZNS1_21makeCommandLineParserERNS1_10ConfigDataEEUlRKNSt7__cxx1112basic_stringIcSt11char_traitsIcESaIcEEEE4_EESaIvELN9__gnu_cxx12_Lock_policyE2EEED2Ev
FNDA:612,_ZNSt15__new_allocatorISt23_Sp_counted_ptr_inplaceIN5Catch5Clara6Detail11BoundLambdaIZNS1_21makeCommandLineParserERNS1_10ConfigDataEEUlRKNSt7__cxx1112basic_stringIcSt11char_traitsIcESaIcEEEE5_EESaIvELN9__gnu_cxx12_Lock_policyE2EEED2Ev
FNDA:612,_ZNSt15__new_allocatorISt23_Sp_counted_ptr_inplaceIN5Catch5Clara6Detail11BoundLambdaIZNS1_21makeCommandLineParserERNS1_10ConfigDataEEUlRKNSt7__cxx1112basic_stringIcSt11char_traitsIcESaIcEEEE7_EESaIvELN9__gnu_cxx12_Lock_policyE2EEED2Ev
FNDA:612,_ZNSt15__new_allocatorISt23_Sp_counted_ptr_inplaceIN5Catch5Clara6Detail11BoundLambdaIZNS1_21makeCommandLineParserERNS1_10ConfigDataEEUlRKNSt7__cxx1112basic_stringIcSt11char_traitsIcESaIcEEEE8_EESaIvELN9__gnu_cxx12_Lock_policyE2EEED2Ev
FNDA:612,_ZNSt15__new_allocatorISt23_Sp_counted_ptr_inplaceIN5Catch5Clara6Detail11BoundLambdaIZNS1_21makeCommandLineParserERNS1_10ConfigDataEEUlbE0_EESaIvELN9__gnu_cxx12_Lock_policyE2EEED2Ev
FNDA:612,_ZNSt15__new_allocatorISt23_Sp_counted_ptr_inplaceIN5Catch5Clara6Detail11BoundLambdaIZNS1_21makeCommandLineParserERNS1_10ConfigDataEEUliE_EESaIvELN9__gnu_cxx12_Lock_policyE2EEED2Ev
FNDA:7956,_ZNSt15__new_allocatorISt23_Sp_counted_ptr_inplaceIN5Catch5Clara6Detail12BoundFlagRefESaIvELN9__gnu_cxx12_Lock_policyE2EEED2Ev
FNDA:1836,_ZNSt15__new_allocatorISt23_Sp_counted_ptr_inplaceIN5Catch5Clara6Detail13BoundValueRefINSt7__cxx1112basic_stringIcSt11char_traitsIcESaIcEEEEESaIvELN9__gnu_cxx12_Lock_policyE2EEED2Ev
FNDA:1224,_ZNSt15__new_allocatorISt23_Sp_counted_ptr_inplaceIN5Catch5Clara6Detail13BoundValueRefISt6vectorINSt7__cxx1112basic_stringIcSt11char_traitsIcESaIcEEESaISB_EEEESaIvELN9__gnu_cxx12_Lock_policyE2EEED2Ev
FNDA:1224,_ZNSt15__new_allocatorISt23_Sp_counted_ptr_inplaceIN5Catch5Clara6Detail13BoundValueRefIdEESaIvELN9__gnu_cxx12_Lock_policyE2EEED2Ev
FNDA:1224,_ZNSt15__new_allocatorISt23_Sp_counted_ptr_inplaceIN5Catch5Clara6Detail13BoundValueRefIjEESaIvELN9__gnu_cxx12_Lock_policyE2EEED2Ev
FNDA:612,_ZNSt15__new_allocatorISt23_Sp_counted_ptr_inplaceIN5Catch5Clara6Detail13BoundValueRefIlEESaIvELN9__gnu_cxx12_Lock_policyE2EEED2Ev
FNDA:612,_ZNSt15__new_allocatorISt23_Sp_counted_ptr_inplaceIN5Catch5Clara6Detail15BoundFlagLambdaIZNS1_21makeCommandLineParserERNS1_10ConfigDataEEUlbE_EESaIvELN9__gnu_cxx12_Lock_policyE2EEED2Ev
FNDA:612,_ZNSt15__new_allocatorISt23_Sp_counted_ptr_inplaceIN5Catch5Clara6Detail15BoundFlagLambdaIZNS2_4HelpC4ERbEUlbE_EESaIvELN9__gnu_cxx12_Lock_policyE2EEED2Ev
FNDA:612,_ZNSt15__new_allocatorISt23_Sp_counted_ptr_inplaceIN5Catch5Clara6Detail15BoundManyLambdaIZNS1_21makeCommandLineParserERNS1_10ConfigDataEEUlRKNSt7__cxx1112basic_stringIcSt11char_traitsIcESaIcEEEE6_EESaIvELN9__gnu_cxx12_Lock_policyE2EEED2Ev
FNDA:612,_ZNSt15__new_allocatorISt23_Sp_counted_ptr_inplaceIN5Catch5Clara6Detail15BoundManyLambdaIZNS1_21makeCommandLineParserERNS1_10ConfigDataEEUlRKNSt7__cxx1112basic_stringIcSt11char_traitsIcESaIcEEEE_EESaIvELN9__gnu_cxx12_Lock_policyE2EEED2Ev
FNDA:1836,_ZNSt15__new_allocatorISt23_Sp_counted_ptr_inplaceINSt7__cxx1112basic_stringIcSt11char_traitsIcESaIcEEESaIvELN9__gnu_cxx12_Lock_policyE2EEED2Ev
FNDA:0,_ZNSt15__new_allocatorISt23_Sp_counted_ptr_inplaceINSt8__detail4_NFAINSt7__cxx1112regex_traitsIcEEEESaIvELN9__gnu_cxx12_Lock_policyE2EEED2Ev
FNDA:0,_ZNSt15__new_allocatorISt4pairIN9__gnu_cxx17__normal_iteratorIPKcNSt7__cxx1112basic_stringIcSt11char_traitsIcESaIcEEEEEiEED2Ev
FNDA:0,_ZNSt15__new_allocatorISt4pairINSt7__cxx1112basic_stringIcSt11char_traitsIcESaIcEEES6_EED2Ev
FNDA:160,_ZNSt15__new_allocatorISt4pairISt6vectorIdSaIdEEdEED2Ev
FNDA:0,_ZNSt15__new_allocatorISt4pairIccEED2Ev
FNDA:425,_ZNSt15__new_allocatorISt4pairIddEED2Ev
FNDA:0,_ZNSt15__new_allocatorISt4pairIiN5Catch9StringRefEEED2Ev
FNDA:0,_ZNSt15__new_allocatorISt4pairIlSt6vectorINSt7__cxx119sub_matchIN9__gnu_cxx17__normal_iteratorIPKcNS2_12basic_stringIcSt11char_traitsIcESaIcEEEEEEESaISE_EEEED2Ev
FNDA:0,_ZNSt15__new_allocatorISt4pairImN5Catch14TestCaseHandleEEED2Ev
FNDA:2899,_ZNSt15__new_allocatorISt6vectorIdSaIdEEED2Ev
FNDA:306,_ZNSt15__new_allocatorIZNK5Catch5Clara6Parser5parseERKNSt7__cxx1112basic_stringIcSt11char_traitsIcESaIcEEENS1_6Detail11TokenStreamEE10ParserInfoED2Ev
FNDA:27097,_ZNSt15__new_allocatorIcED2Ev
FNDA:557600207,_ZNSt15__new_allocatorIdED2Ev
FNDA:0,_ZNSt15__new_allocatorIlED2Ev
FNDA:853807685,_ZNSt15__new_allocatorImED2Ev
FNDA:0,_ZNSt15__new_allocatorIwED2Ev
FNDA:305,_ZNSt15__new_allocatorIN5Catch10ColumnInfoEE8allocateEmPKv
FNDA:0,_ZNSt15__new_allocatorIN5Catch11MessageInfoEE8allocateEmPKv
FNDA:305,_ZNSt15__new_allocatorIN5Catch11SectionInfoEE8allocateEmPKv
FNDA:1,_ZNSt15__new_allocatorIN5Catch12JsonReporter6WriterEE8allocateEmPKv
FNDA:307,_ZNSt15__new_allocatorIN5Catch12ReporterSpecEE8allocateEmPKv
FNDA:0,_ZNSt15__new_allocatorIN5Catch12_GLOBAL__N_113SummaryColumnEE8allocateEmPKv
FNDA:0,_ZNSt15__new_allocatorIN5Catch13ScopedMessageEE8allocateEmPKv
FNDA:0,_ZNSt15__new_allocatorIN5Catch14SectionEndInfoEE8allocateEmPKv
FNDA:2450,_ZNSt15__new_allocatorIN5Catch14TestCaseHandleEE8allocateEmPKv
FNDA:1,_ZNSt15__new_allocatorIN5Catch15JsonArrayWriterEE8allocateEmPKv
FNDA:1,_ZNSt15__new_allocatorIN5Catch16JsonObjectWriterEE8allocateEmPKv
FNDA:0,_ZNSt15__new_allocatorIN5Catch19ListenerDescriptionEE8allocateEmPKv
FNDA:0,_ZNSt15__new_allocatorIN5Catch19ReporterDescriptionEE8allocateEmPKv
FNDA:306,_ZNSt15__new_allocatorIN5Catch21ProcessedReporterSpecEE8allocateEmPKv
FNDA:18666,_ZNSt15__new_allocatorIN5Catch3TagEE8allocateEmPKv
FNDA:306,_ZNSt15__new_allocatorIN5Catch5Clara3ArgEE8allocateEmPKv
FNDA:2142,_ZNSt15__new_allocatorIN5Catch5Clara3OptEE8allocateEmPKv
FNDA:0,_ZNSt15__new_allocatorIN5Catch5Clara6Detail11HelpColumnsEE8allocateEmPKv
FNDA:306,_ZNSt15__new_allocatorIN5Catch5Clara6Detail5TokenEE8allocateEmPKv
FNDA:0,_ZNSt15__new_allocatorIN5Catch6Detail10unique_ptrIKNS0_20IExceptionTranslatorEEEE8allocateEmPKv
FNDA:2142,_ZNSt15__new_allocatorIN5Catch6Detail10unique_ptrINS0_12ITestInvokerEEEE8allocateEmPKv
FNDA:2142,_ZNSt15__new_allocatorIN5Catch6Detail10unique_ptrINS0_12TestCaseInfoEEEE8allocateEmPKv
FNDA:0,_ZNSt15__new_allocatorIN5Catch6Detail10unique_ptrINS0_14IEventListenerEEEE8allocateEmPKv
FNDA:305,_ZNSt15__new_allocatorIN5Catch6Detail10unique_ptrINS0_16TestCaseTracking8ITrackerEEEE8allocateEmPKv
FNDA:0,_ZNSt15__new_allocatorIN5Catch6Detail10unique_ptrINS0_20EventListenerFactoryEEEE8allocateEmPKv
FNDA:0,_ZNSt15__new_allocatorIN5Catch6Detail10unique_ptrINS0_22CumulativeReporterBase11SectionNodeEEEE8allocateEmPKv
FNDA:0,_ZNSt15__new_allocatorIN5Catch6Detail10unique_ptrINS0_22CumulativeReporterBase4NodeINS0_13TestCaseStatsENS3_11SectionNodeEEEEEE8allocateEmPKv
FNDA:305,_ZNSt15__new_allocatorIN5Catch6Detail10unique_ptrINS0_8TestSpec7PatternEEEE8allocateEmPKv
FNDA:0,_ZNSt15__new_allocatorIN5Catch6Detail10unique_ptrINS1_8EnumInfoEEEE8allocateEmPKv
FNDA:610,_ZNSt15__new_allocatorIN5Catch6Detail10unique_ptrINSt7__cxx1119basic_ostringstreamIcSt11char_traitsIcESaIcEEEEEE8allocateEmPKv
FNDA:0,_ZNSt15__new_allocatorIN5Catch6Detail26AssertionOrBenchmarkResultEE8allocateEmPKv
FNDA:0,_ZNSt15__new_allocatorIN5Catch7TagInfoEE8allocateEmPKv
FNDA:305,_ZNSt15__new_allocatorIN5Catch8TestSpec11FilterMatchEE8allocateEmPKv
FNDA:305,_ZNSt15__new_allocatorIN5Catch8TestSpec6FilterEE8allocateEmPKv
FNDA:0,_ZNSt15__new_allocatorIN5Catch8TextFlow6Column14const_iteratorEE8allocateEmPKv
FNDA:0,_ZNSt15__new_allocatorIN5Catch8TextFlow6ColumnEE8allocateEmPKv
FNDA:16830,_ZNSt15__new_allocatorIN5Catch9StringRefEE8allocateEmPKv
FNDA:0,_ZNSt15__new_allocatorINSt15__exception_ptr13exception_ptrEE8allocateEmPKv
FNDA:0,_ZNSt15__new_allocatorINSt6chrono8durationIdSt5ratioILl1ELl1000000000EEEEE8allocateEmPKv
FNDA:916,_ZNSt15__new_allocatorINSt7__cxx1112basic_stringIcSt11char_traitsIcESaIcEEEE8allocateEmPKv
FNDA:0,_ZNSt15__new_allocatorINSt7__cxx1112regex_traitsIcE10_RegexMaskEE8allocateEmPKv
FNDA:0,_ZNSt15__new_allocatorINSt7__cxx119sub_matchIN9__gnu_cxx17__normal_iteratorIPKcNS0_12basic_stringIcSt11char_traitsIcESaIcEEEEEEEE8allocateEmPKv
FNDA:287613466,_ZNSt15__new_allocatorINSt8__detail10_Hash_nodeISt4pairIKmdELb0EEEE8allocateEmPKv
FNDA:0,_ZNSt15__new_allocatorINSt8__detail6_StateIcEEE8allocateEmPKv
FNDA:0,_ZNSt15__new_allocatorINSt8__detail9_StateSeqINSt7__cxx1112regex_traitsIcEEEEE8allocateEmPKv
FNDA:610,_ZNSt15__new_allocatorIPKN5Catch14TestCaseHandleEE8allocateEmPKv
FNDA:0,_ZNSt15__new_allocatorIPKN5Catch22CumulativeReporterBase4NodeINS0_13TestCaseStatsENS1_11SectionNodeEEEE8allocateEmPKv
FNDA:611,_ZNSt15__new_allocatorIPN5Catch10ISingletonEE8allocateEmPKv
FNDA:1,_ZNSt15__new_allocatorIPN5Catch12JsonReporter6WriterEE8allocateEmPKv
FNDA:2142,_ZNSt15__new_allocatorIPN5Catch12TestCaseInfoEE8allocateEmPKv
FNDA:1,_ZNSt15__new_allocatorIPN5Catch15JsonArrayWriterEE8allocateEmPKv
FNDA:1,_ZNSt15__new_allocatorIPN5Catch16JsonObjectWriterEE8allocateEmPKv
FNDA:0,_ZNSt15__new_allocatorIPN5Catch16TestCaseTracking8ITrackerEE8allocateEmPKv
FNDA:0,_ZNSt15__new_allocatorIPN5Catch22CumulativeReporterBase11SectionNodeEE8allocateEmPKv
FNDA:150,_ZNSt15__new_allocatorIPNSt8__detail15_Hash_node_baseEE8allocateEmPKv
FNDA:0,_ZNSt15__new_allocatorIPNSt8__detail9_StateSeqINSt7__cxx1112regex_traitsIcEEEEE8allocateEmPKv
FNDA:0,_ZNSt15__new_allocatorIPcE8allocateEmPKv
FNDA:0,_ZNSt15__new_allocatorIPlE8allocateEmPKv
FNDA:0,_ZNSt15__new_allocatorISt13_Rb_tree_nodeIN5Catch9StringRefEEE8allocateEmPKv
FNDA:18666,_ZNSt15__new_allocatorISt13_Rb_tree_nodeIPKN5Catch12TestCaseInfoEEE8allocateEmPKv
FNDA:610,_ZNSt15__new_allocatorISt13_Rb_tree_nodeIPKN5Catch14TestCaseHandleEEE8allocateEmPKv
FNDA:0,_ZNSt15__new_allocatorISt13_Rb_tree_nodeISt4pairIKN5Catch9StringRefENS2_7TagInfoEEEE8allocateEmPKv
FNDA:0,_ZNSt15__new_allocatorISt13_Rb_tree_nodeISt4pairIKN5Catch9StringRefESt6vectorIPKNS2_22CumulativeReporterBase4NodeINS2_13TestCaseStatsENS6_11SectionNodeEEESaISC_EEEEE8allocateEmPKv
FNDA:2754,_ZNSt15__new_allocatorISt13_Rb_tree_nodeISt4pairIKNSt7__cxx1112basic_stringIcSt11char_traitsIcESaIcEEEN5Catch6Detail10unique_ptrINS9_16IReporterFactoryEEEEEE8allocateEmPKv
FNDA:0,_ZNSt15__new_allocatorISt13_Rb_tree_nodeISt4pairIKNSt7__cxx1112basic_stringIcSt11char_traitsIcESaIcEEEN5Catch8TagAliasEEEE8allocateEmPKv
FNDA:0,_ZNSt15__new_allocatorISt13_Rb_tree_nodeISt4pairIKNSt7__cxx1112basic_stringIcSt11char_traitsIcESaIcEEES7_EEE8allocateEmPKv
FNDA:0,_ZNSt15__new_allocatorISt13_Rb_tree_nodeISt4pairIKllEEE8allocateEmPKv
FNDA:306,_ZNSt15__new_allocatorISt23_Sp_counted_ptr_inplaceIN5Catch5Clara6Detail11BoundLambdaIZNS1_21makeCommandLineParserERNS1_10ConfigDataEEUlRKNSt7__cxx1112basic_stringIcSt11char_traitsIcESaIcEEEE0_EESaIvELN9__gnu_cxx12_Lock_policyE2EEE8allocateEmPKv
FNDA:306,_ZNSt15__new_allocatorISt23_Sp_counted_ptr_inplaceIN5Catch5Clara6Detail11BoundLambdaIZNS1_21makeCommandLineParserERNS1_10ConfigDataEEUlRKNSt7__cxx1112basic_stringIcSt11char_traitsIcESaIcEEEE1_EESaIvELN9__gnu_cxx12_Lock_policyE2EEE8allocateEmPKv
FNDA:306,_ZNSt15__new_allocatorISt23_Sp_counted_ptr_inplaceIN5Catch5Clara6Detail11BoundLambdaIZNS1_21makeCommandLineParserERNS1_10ConfigDataEEUlRKNSt7__cxx1112basic_stringIcSt11char_traitsIcESaIcEEEE2_EESaIvELN9__gnu_cxx12_Lock_policyE2EEE8allocateEmPKv
FNDA:306,_ZNSt15__new_allocatorISt23_Sp_counted_ptr_inplaceIN5Catch5Clara6Detail11BoundLambdaIZNS1_21makeCommandLineParserERNS1_10ConfigDataEEUlRKNSt7__cxx1112basic_stringIcSt11char_traitsIcESaIcEEEE3_EESaIvELN9__gnu_cxx12_Lock_policyE2EEE8allocateEmPKv
FNDA:306,_ZNSt15__new_allocatorISt23_Sp_counted_ptr_inplaceIN5Catch5Clara6Detail11BoundLambdaIZNS1_21makeCommandLineParserERNS1_10ConfigDataEEUlRKNSt7__cxx1112basic_stringIcSt11char_traitsIcESaIcEEEE4_EESaIvELN9__gnu_cxx12_Lock_policyE2EEE8allocateEmPKv
FNDA:306,_ZNSt15__new_allocatorISt23_Sp_counted_ptr_inplaceIN5Catch5Clara6Detail11BoundLambdaIZNS1_21makeCommandLineParserERNS1_10ConfigDataEEUlRKNSt7__cxx1112basic_stringIcSt11char_traitsIcESaIcEEEE5_EESaIvELN9__gnu_cxx12_Lock_policyE2EEE8allocateEmPKv
FNDA:306,_ZNSt15__new_allocatorISt23_Sp_counted_ptr_inplaceIN5Catch5Clara6Detail11BoundLambdaIZNS1_21makeCommandLineParserERNS1_10ConfigDataEEUlRKNSt7__cxx1112basic_stringIcSt11char_traitsIcESaIcEEEE7_EESaIvELN9__gnu_cxx12_Lock_policyE2EEE8allocateEmPKv
FNDA:306,_ZNSt15__new_allocatorISt23_Sp_counted_ptr_inplaceIN5Catch5Clara6Detail11BoundLambdaIZNS1_21makeCommandLineParserERNS1_10ConfigDataEEUlRKNSt7__cxx1112basic_stringIcSt11char_traitsIcESaIcEEEE8_EESaIvELN9__gnu_cxx12_Lock_policyE2EEE8allocateEmPKv
FNDA:306,_ZNSt15__new_allocatorISt23_Sp_counted_ptr_inplaceIN5Catch5Clara6Detail11BoundLambdaIZNS1_21makeCommandLineParserERNS1_10ConfigDataEEUlbE0_EESaIvELN9__gnu_cxx12_Lock_policyE2EEE8allocateEmPKv
FNDA:306,_ZNSt15__new_allocatorISt23_Sp_counted_ptr_inplaceIN5Catch5Clara6Detail11BoundLambdaIZNS1_21makeCommandLineParserERNS1_10ConfigDataEEUliE_EESaIvELN9__gnu_cxx12_Lock_policyE2EEE8allocateEmPKv
FNDA:3978,_ZNSt15__new_allocatorISt23_Sp_counted_ptr_inplaceIN5Catch5Clara6Detail12BoundFlagRefESaIvELN9__gnu_cxx12_Lock_policyE2EEE8allocateEmPKv
FNDA:918,_ZNSt15__new_allocatorISt23_Sp_counted_ptr_inplaceIN5Catch5Clara6Detail13BoundValueRefINSt7__cxx1112basic_stringIcSt11char_traitsIcESaIcEEEEESaIvELN9__gnu_cxx12_Lock_policyE2EEE8allocateEmPKv
FNDA:612,_ZNSt15__new_allocatorISt23_Sp_counted_ptr_inplaceIN5Catch5Clara6Detail13BoundValueRefISt6vectorINSt7__cxx1112basic_stringIcSt11char_traitsIcESaIcEEESaISB_EEEESaIvELN9__gnu_cxx12_Lock_policyE2EEE8allocateEmPKv
FNDA:612,_ZNSt15__new_allocatorISt23_Sp_counted_ptr_inplaceIN5Catch5Clara6Detail13BoundValueRefIdEESaIvELN9__gnu_cxx12_Lock_policyE2EEE8allocateEmPKv
FNDA:612,_ZNSt15__new_allocatorISt23_Sp_counted_ptr_inplaceIN5Catch5Clara6Detail13BoundValueRefIjEESaIvELN9__gnu_cxx12_Lock_policyE2EEE8allocateEmPKv
FNDA:306,_ZNSt15__new_allocatorISt23_Sp_counted_ptr_inplaceIN5Catch5Clara6Detail13BoundValueRefIlEESaIvELN9__gnu_cxx12_Lock_policyE2EEE8allocateEmPKv
FNDA:306,_ZNSt15__new_allocatorISt23_Sp_counted_ptr_inplaceIN5Catch5Clara6Detail15BoundFlagLambdaIZNS1_21makeCommandLineParserERNS1_10ConfigDataEEUlbE_EESaIvELN9__gnu_cxx12_Lock_policyE2EEE8allocateEmPKv
FNDA:306,_ZNSt15__new_allocatorISt23_Sp_counted_ptr_inplaceIN5Catch5Clara6Detail15BoundFlagLambdaIZNS2_4HelpC4ERbEUlbE_EESaIvELN9__gnu_cxx12_Lock_policyE2EEE8allocateEmPKv
FNDA:306,_ZNSt15__new_allocatorISt23_Sp_counted_ptr_inplaceIN5Catch5Clara6Detail15BoundManyLambdaIZNS1_21makeCommandLineParserERNS1_10ConfigDataEEUlRKNSt7__cxx1112basic_stringIcSt11char_traitsIcESaIcEEEE6_EESaIvELN9__gnu_cxx12_Lock_policyE2EEE8allocateEmPKv
FNDA:306,_ZNSt15__new_allocatorISt23_Sp_counted_ptr_inplaceIN5Catch5Clara6Detail15BoundManyLambdaIZNS1_21makeCommandLineParserERNS1_10ConfigDataEEUlRKNSt7__cxx1112basic_stringIcSt11char_traitsIcESaIcEEEE_EESaIvELN9__gnu_cxx12_Lock_policyE2EEE8allocateEmPKv
FNDA:918,_ZNSt15__new_allocatorISt23_Sp_counted_ptr_inplaceINSt7__cxx1112basic_stringIcSt11char_traitsIcESaIcEEESaIvELN9__gnu_cxx12_Lock_policyE2EEE8allocateEmPKv
FNDA:0,_ZNSt15__new_allocatorISt23_Sp_counted_ptr_inplaceINSt8__detail4_NFAINSt7__cxx1112regex_traitsIcEEEESaIvELN9__gnu_cxx12_Lock_policyE2EEE8allocateEmPKv
FNDA:0,_ZNSt15__new_allocatorISt4pairIN9__gnu_cxx17__normal_iteratorIPKcNSt7__cxx1112basic_stringIcSt11char_traitsIcESaIcEEEEEiEE8allocateEmPKv
FNDA:0,_ZNSt15__new_allocatorISt4pairINSt7__cxx1112basic_stringIcSt11char_traitsIcESaIcEEES6_EE8allocateEmPKv
FNDA:160,_ZNSt15__new_allocatorISt4pairISt6vectorIdSaIdEEdEE8allocateEmPKv
FNDA:0,_ZNSt15__new_allocatorISt4pairIccEE8allocateEmPKv
FNDA:140,_ZNSt15__new_allocatorISt4pairIddEE8allocateEmPKv
FNDA:0,_ZNSt15__new_allocatorISt4pairIiN5Catch9StringRefEEE8allocateEmPKv
FNDA:0,_ZNSt15__new_allocatorISt4pairIlSt6vectorINSt7__cxx119sub_matchIN9__gnu_cxx17__normal_iteratorIPKcNS2_12basic_stringIcSt11char_traitsIcESaIcEEEEEEESaISE_EEEE8allocateEmPKv
FNDA:0,_ZNSt15__new_allocatorISt4pairImN5Catch14TestCaseHandleEEE8allocateEmPKv
FNDA:2899,_ZNSt15__new_allocatorISt6vectorIdSaIdEEE8allocateEmPKv
FNDA:306,_ZNSt15__new_allocatorIZNK5Catch5Clara6Parser5parseERKNSt7__cxx1112basic_stringIcSt11char_traitsIcESaIcEEENS1_6Detail11TokenStreamEE10ParserInfoE8allocateEmPKv
FNDA:0,_ZNSt15__new_allocatorIcE8allocateEmPKv
FNDA:278718076,_ZNSt15__new_allocatorIdE8allocateEmPKv
FNDA:0,_ZNSt15__new_allocatorIlE8allocateEmPKv
FNDA:284616734,_ZNSt15__new_allocatorImE8allocateEmPKv
FNDA:305,_ZNSt15__new_allocatorIN5Catch10ColumnInfoEE10deallocateEPS1_m
FNDA:0,_ZNSt15__new_allocatorIN5Catch11MessageInfoEE10deallocateEPS1_m
FNDA:305,_ZNSt15__new_allocatorIN5Catch11SectionInfoEE10deallocateEPS1_m
FNDA:1,_ZNSt15__new_allocatorIN5Catch12JsonReporter6WriterEE10deallocateEPS2_m
FNDA:307,_ZNSt15__new_allocatorIN5Catch12ReporterSpecEE10deallocateEPS1_m
FNDA:0,_ZNSt15__new_allocatorIN5Catch12_GLOBAL__N_113SummaryColumnEE10deallocateEPS2_m
FNDA:0,_ZNSt15__new_allocatorIN5Catch13ScopedMessageEE10deallocateEPS1_m
FNDA:0,_ZNSt15__new_allocatorIN5Catch14SectionEndInfoEE10deallocateEPS1_m
FNDA:2450,_ZNSt15__new_allocatorIN5Catch14TestCaseHandleEE10deallocateEPS1_m
FNDA:1,_ZNSt15__new_allocatorIN5Catch15JsonArrayWriterEE10deallocateEPS1_m
FNDA:1,_ZNSt15__new_allocatorIN5Catch16JsonObjectWriterEE10deallocateEPS1_m
FNDA:0,_ZNSt15__new_allocatorIN5Catch19ListenerDescriptionEE10deallocateEPS1_m
FNDA:0,_ZNSt15__new_allocatorIN5Catch19ReporterDescriptionEE10deallocateEPS1_m
FNDA:306,_ZNSt15__new_allocatorIN5Catch21ProcessedReporterSpecEE10deallocateEPS1_m
FNDA:18666,_ZNSt15__new_allocatorIN5Catch3TagEE10deallocateEPS1_m
FNDA:306,_ZNSt15__new_allocatorIN5Catch5Clara3ArgEE10deallocateEPS2_m
FNDA:2142,_ZNSt15__new_allocatorIN5Catch5Clara3OptEE10deallocateEPS2_m
FNDA:0,_ZNSt15__new_allocatorIN5Catch5Clara6Detail11HelpColumnsEE10deallocateEPS3_m
FNDA:306,_ZNSt15__new_allocatorIN5Catch5Clara6Detail5TokenEE10deallocateEPS3_m
FNDA:0,_ZNSt15__new_allocatorIN5Catch6Detail10unique_ptrIKNS0_20IExceptionTranslatorEEEE10deallocateEPS5_m
FNDA:2142,_ZNSt15__new_allocatorIN5Catch6Detail10unique_ptrINS0_12ITestInvokerEEEE10deallocateEPS4_m
FNDA:2142,_ZNSt15__new_allocatorIN5Catch6Detail10unique_ptrINS0_12TestCaseInfoEEEE10deallocateEPS4_m
FNDA:0,_ZNSt15__new_allocatorIN5Catch6Detail10unique_ptrINS0_14IEventListenerEEEE10deallocateEPS4_m
FNDA:305,_ZNSt15__new_allocatorIN5Catch6Detail10unique_ptrINS0_16TestCaseTracking8ITrackerEEEE10deallocateEPS5_m
FNDA:0,_ZNSt15__new_allocatorIN5Catch6Detail10unique_ptrINS0_20EventListenerFactoryEEEE10deallocateEPS4_m
FNDA:0,_ZNSt15__new_allocatorIN5Catch6Detail10unique_ptrINS0_22CumulativeReporterBase11SectionNodeEEEE10deallocateEPS5_m
FNDA:0,_ZNSt15__new_allocatorIN5Catch6Detail10unique_ptrINS0_22CumulativeReporterBase4NodeINS0_13TestCaseStatsENS3_11SectionNodeEEEEEE10deallocateEPS8_m
FNDA:305,_ZNSt15__new_allocatorIN5Catch6Detail10unique_ptrINS0_8TestSpec7PatternEEEE10deallocateEPS5_m
FNDA:0,_ZNSt15__new_allocatorIN5Catch6Detail10unique_ptrINS1_8EnumInfoEEEE10deallocateEPS4_m
FNDA:610,_ZNSt15__new_allocatorIN5Catch6Detail10unique_ptrINSt7__cxx1119basic_ostringstreamIcSt11char_traitsIcESaIcEEEEEE10deallocateEPS9_m
FNDA:0,_ZNSt15__new_allocatorIN5Catch6Detail26AssertionOrBenchmarkResultEE10deallocateEPS2_m
FNDA:0,_ZNSt15__new_allocatorIN5Catch7TagInfoEE10deallocateEPS1_m
FNDA:305,_ZNSt15__new_allocatorIN5Catch8TestSpec11FilterMatchEE10deallocateEPS2_m
FNDA:305,_ZNSt15__new_allocatorIN5Catch8TestSpec6FilterEE10deallocateEPS2_m
FNDA:0,_ZNSt15__new_allocatorIN5Catch8TextFlow6Column14const_iteratorEE10deallocateEPS3_m
FNDA:0,_ZNSt15__new_allocatorIN5Catch8TextFlow6ColumnEE10deallocateEPS2_m
FNDA:16830,_ZNSt15__new_allocatorIN5Catch9StringRefEE10deallocateEPS1_m
FNDA:0,_ZNSt15__new_allocatorINSt15__exception_ptr13exception_ptrEE10deallocateEPS1_m
FNDA:0,_ZNSt15__new_allocatorINSt6chrono8durationIdSt5ratioILl1ELl1000000000EEEEE10deallocateEPS4_m
FNDA:916,_ZNSt15__new_allocatorINSt7__cxx1112basic_stringIcSt11char_traitsIcESaIcEEEE10deallocateEPS5_m
FNDA:0,_ZNSt15__new_allocatorINSt7__cxx1112regex_traitsIcE10_RegexMaskEE10deallocateEPS3_m
FNDA:0,_ZNSt15__new_allocatorINSt7__cxx119sub_matchIN9__gnu_cxx17__normal_iteratorIPKcNS0_12basic_stringIcSt11char_traitsIcESaIcEEEEEEEE10deallocateEPSC_m
FNDA:0,_ZNSt15__new_allocatorINSt8__detail10_Hash_nodeISt4pairIKNSt7__cxx1112basic_stringIcSt11char_traitsIcESaIcEEES8_ELb1EEEE10deallocateEPSB_m
FNDA:287613466,_ZNSt15__new_allocatorINSt8__detail10_Hash_nodeISt4pairIKmdELb0EEEE10deallocateEPS5_m
FNDA:0,_ZNSt15__new_allocatorINSt8__detail6_StateIcEEE10deallocateEPS2_m
FNDA:0,_ZNSt15__new_allocatorINSt8__detail9_StateSeqINSt7__cxx1112regex_traitsIcEEEEE10deallocateEPS5_m
FNDA:610,_ZNSt15__new_allocatorIPKN5Catch14TestCaseHandleEE10deallocateEPS3_m
FNDA:0,_ZNSt15__new_allocatorIPKN5Catch22CumulativeReporterBase4NodeINS0_13TestCaseStatsENS1_11SectionNodeEEEE10deallocateEPS7_m
FNDA:611,_ZNSt15__new_allocatorIPN5Catch10ISingletonEE10deallocateEPS2_m
FNDA:1,_ZNSt15__new_allocatorIPN5Catch12JsonReporter6WriterEE10deallocateEPS3_m
FNDA:2142,_ZNSt15__new_allocatorIPN5Catch12TestCaseInfoEE10deallocateEPS2_m
FNDA:1,_ZNSt15__new_allocatorIPN5Catch15JsonArrayWriterEE10deallocateEPS2_m
FNDA:1,_ZNSt15__new_allocatorIPN5Catch16JsonObjectWriterEE10deallocateEPS2_m
FNDA:0,_ZNSt15__new_allocatorIPN5Catch16TestCaseTracking8ITrackerEE10deallocateEPS3_m
FNDA:0,_ZNSt15__new_allocatorIPN5Catch22CumulativeReporterBase11SectionNodeEE10deallocateEPS3_m
FNDA:150,_ZNSt15__new_allocatorIPNSt8__detail15_Hash_node_baseEE10deallocateEPS2_m
FNDA:0,_ZNSt15__new_allocatorIPNSt8__detail9_StateSeqINSt7__cxx1112regex_traitsIcEEEEE10deallocateEPS6_m
FNDA:0,_ZNSt15__new_allocatorIPcE10deallocateEPS0_m
FNDA:0,_ZNSt15__new_allocatorIPlE10deallocateEPS0_m
FNDA:0,_ZNSt15__new_allocatorISt13_Rb_tree_nodeIN5Catch9StringRefEEE10deallocateEPS3_m
FNDA:18666,_ZNSt15__new_allocatorISt13_Rb_tree_nodeIPKN5Catch12TestCaseInfoEEE10deallocateEPS5_m
FNDA:610,_ZNSt15__new_allocatorISt13_Rb_tree_nodeIPKN5Catch14TestCaseHandleEEE10deallocateEPS5_m
FNDA:0,_ZNSt15__new_allocatorISt13_Rb_tree_nodeISt4pairIKN5Catch9StringRefENS2_7TagInfoEEEE10deallocateEPS7_m
FNDA:0,_ZNSt15__new_allocatorISt13_Rb_tree_nodeISt4pairIKN5Catch9StringRefESt6vectorIPKNS2_22CumulativeReporterBase4NodeINS2_13TestCaseStatsENS6_11SectionNodeEEESaISC_EEEEE10deallocateEPSG_m
FNDA:2754,_ZNSt15__new_allocatorISt13_Rb_tree_nodeISt4pairIKNSt7__cxx1112basic_stringIcSt11char_traitsIcESaIcEEEN5Catch6Detail10unique_ptrINS9_16IReporterFactoryEEEEEE10deallocateEPSF_m
FNDA:0,_ZNSt15__new_allocatorISt13_Rb_tree_nodeISt4pairIKNSt7__cxx1112basic_stringIcSt11char_traitsIcESaIcEEEN5Catch8TagAliasEEEE10deallocateEPSC_m
FNDA:0,_ZNSt15__new_allocatorISt13_Rb_tree_nodeISt4pairIKNSt7__cxx1112basic_stringIcSt11char_traitsIcESaIcEEES7_EEE10deallocateEPSA_m
FNDA:0,_ZNSt15__new_allocatorISt13_Rb_tree_nodeISt4pairIKllEEE10deallocateEPS4_m
FNDA:306,_ZNSt15__new_allocatorISt23_Sp_counted_ptr_inplaceIN5Catch5Clara6Detail11BoundLambdaIZNS1_21makeCommandLineParserERNS1_10ConfigDataEEUlRKNSt7__cxx1112basic_stringIcSt11char_traitsIcESaIcEEEE0_EESaIvELN9__gnu_cxx12_Lock_policyE2EEE10deallocateEPSK_m
FNDA:306,_ZNSt15__new_allocatorISt23_Sp_counted_ptr_inplaceIN5Catch5Clara6Detail11BoundLambdaIZNS1_21makeCommandLineParserERNS1_10ConfigDataEEUlRKNSt7__cxx1112basic_stringIcSt11char_traitsIcESaIcEEEE1_EESaIvELN9__gnu_cxx12_Lock_policyE2EEE10deallocateEPSK_m
FNDA:306,_ZNSt15__new_allocatorISt23_Sp_counted_ptr_inplaceIN5Catch5Clara6Detail11BoundLambdaIZNS1_21makeCommandLineParserERNS1_10ConfigDataEEUlRKNSt7__cxx1112basic_stringIcSt11char_traitsIcESaIcEEEE2_EESaIvELN9__gnu_cxx12_Lock_policyE2EEE10deallocateEPSK_m
FNDA:306,_ZNSt15__new_allocatorISt23_Sp_counted_ptr_inplaceIN5Catch5Clara6Detail11BoundLambdaIZNS1_21makeCommandLineParserERNS1_10ConfigDataEEUlRKNSt7__cxx1112basic_stringIcSt11char_traitsIcESaIcEEEE3_EESaIvELN9__gnu_cxx12_Lock_policyE2EEE10deallocateEPSK_m
FNDA:306,_ZNSt15__new_allocatorISt23_Sp_counted_ptr_inplaceIN5Catch5Clara6Detail11BoundLambdaIZNS1_21makeCommandLineParserERNS1_10ConfigDataEEUlRKNSt7__cxx1112basic_stringIcSt11char_traitsIcESaIcEEEE4_EESaIvELN9__gnu_cxx12_Lock_policyE2EEE10deallocateEPSK_m
FNDA:306,_ZNSt15__new_allocatorISt23_Sp_counted_ptr_inplaceIN5Catch5Clara6Detail11BoundLambdaIZNS1_21makeCommandLineParserERNS1_10ConfigDataEEUlRKNSt7__cxx1112basic_stringIcSt11char_traitsIcESaIcEEEE5_EESaIvELN9__gnu_cxx12_Lock_policyE2EEE10deallocateEPSK_m
FNDA:306,_ZNSt15__new_allocatorISt23_Sp_counted_ptr_inplaceIN5Catch5Clara6Detail11BoundLambdaIZNS1_21makeCommandLineParserERNS1_10ConfigDataEEUlRKNSt7__cxx1112basic_stringIcSt11char_traitsIcESaIcEEEE7_EESaIvELN9__gnu_cxx12_Lock_policyE2EEE10deallocateEPSK_m
FNDA:306,_ZNSt15__new_allocatorISt23_Sp_counted_ptr_inplaceIN5Catch5Clara6Detail11BoundLambdaIZNS1_21makeCommandLineParserERNS1_10ConfigDataEEUlRKNSt7__cxx1112basic_stringIcSt11char_traitsIcESaIcEEEE8_EESaIvELN9__gnu_cxx12_Lock_policyE2EEE10deallocateEPSK_m
FNDA:306,_ZNSt15__new_allocatorISt23_Sp_counted_ptr_inplaceIN5Catch5Clara6Detail11BoundLambdaIZNS1_21makeCommandLineParserERNS1_10ConfigDataEEUlbE0_EESaIvELN9__gnu_cxx12_Lock_policyE2EEE10deallocateEPSC_m
FNDA:306,_ZNSt15__new_allocatorISt23_Sp_counted_ptr_inplaceIN5Catch5Clara6Detail11BoundLambdaIZNS1_21makeCommandLineParserERNS1_10ConfigDataEEUliE_EESaIvELN9__gnu_cxx12_Lock_policyE2EEE10deallocateEPSC_m
FNDA:3978,_ZNSt15__new_allocatorISt23_Sp_counted_ptr_inplaceIN5Catch5Clara6Detail12BoundFlagRefESaIvELN9__gnu_cxx12_Lock_policyE2EEE10deallocateEPS8_m
FNDA:918,_ZNSt15__new_allocatorISt23_Sp_counted_ptr_inplaceIN5Catch5Clara6Detail13BoundValueRefINSt7__cxx1112basic_stringIcSt11char_traitsIcESaIcEEEEESaIvELN9__gnu_cxx12_Lock_policyE2EEE10deallocateEPSF_m
FNDA:612,_ZNSt15__new_allocatorISt23_Sp_counted_ptr_inplaceIN5Catch5Clara6Detail13BoundValueRefISt6vectorINSt7__cxx1112basic_stringIcSt11char_traitsIcESaIcEEESaISB_EEEESaIvELN9__gnu_cxx12_Lock_policyE2EEE10deallocateEPSI_m
FNDA:612,_ZNSt15__new_allocatorISt23_Sp_counted_ptr_inplaceIN5Catch5Clara6Detail13BoundValueRefIdEESaIvELN9__gnu_cxx12_Lock_policyE2EEE10deallocateEPS9_m
FNDA:612,_ZNSt15__new_allocatorISt23_Sp_counted_ptr_inplaceIN5Catch5Clara6Detail13BoundValueRefIjEESaIvELN9__gnu_cxx12_Lock_policyE2EEE10deallocateEPS9_m
FNDA:306,_ZNSt15__new_allocatorISt23_Sp_counted_ptr_inplaceIN5Catch5Clara6Detail13BoundValueRefIlEESaIvELN9__gnu_cxx12_Lock_policyE2EEE10deallocateEPS9_m
FNDA:306,_ZNSt15__new_allocatorISt23_Sp_counted_ptr_inplaceIN5Catch5Clara6Detail15BoundFlagLambdaIZNS1_21makeCommandLineParserERNS1_10ConfigDataEEUlbE_EESaIvELN9__gnu_cxx12_Lock_policyE2EEE10deallocateEPSC_m
FNDA:306,_ZNSt15__new_allocatorISt23_Sp_counted_ptr_inplaceIN5Catch5Clara6Detail15BoundFlagLambdaIZNS2_4HelpC4ERbEUlbE_EESaIvELN9__gnu_cxx12_Lock_policyE2EEE10deallocateEPSC_m
FNDA:306,_ZNSt15__new_allocatorISt23_Sp_counted_ptr_inplaceIN5Catch5Clara6Detail15BoundManyLambdaIZNS1_21makeCommandLineParserERNS1_10ConfigDataEEUlRKNSt7__cxx1112basic_stringIcSt11char_traitsIcESaIcEEEE6_EESaIvELN9__gnu_cxx12_Lock_policyE2EEE10deallocateEPSK_m
FNDA:306,_ZNSt15__new_allocatorISt23_Sp_counted_ptr_inplaceIN5Catch5Clara6Detail15BoundManyLambdaIZNS1_21makeCommandLineParserERNS1_10ConfigDataEEUlRKNSt7__cxx1112basic_stringIcSt11char_traitsIcESaIcEEEE_EESaIvELN9__gnu_cxx12_Lock_policyE2EEE10deallocateEPSK_m
FNDA:918,_ZNSt15__new_allocatorISt23_Sp_counted_ptr_inplaceINSt7__cxx1112basic_stringIcSt11char_traitsIcESaIcEEESaIvELN9__gnu_cxx12_Lock_policyE2EEE10deallocateEPSA_m
FNDA:0,_ZNSt15__new_allocatorISt23_Sp_counted_ptr_inplaceINSt8__detail4_NFAINSt7__cxx1112regex_traitsIcEEEESaIvELN9__gnu_cxx12_Lock_policyE2EEE10deallocateEPSA_m
FNDA:0,_ZNSt15__new_allocatorISt4pairIN9__gnu_cxx17__normal_iteratorIPKcNSt7__cxx1112basic_stringIcSt11char_traitsIcESaIcEEEEEiEE10deallocateEPSC_m
FNDA:0,_ZNSt15__new_allocatorISt4pairINSt7__cxx1112basic_stringIcSt11char_traitsIcESaIcEEES6_EE10deallocateEPS7_m
FNDA:160,_ZNSt15__new_allocatorISt4pairISt6vectorIdSaIdEEdEE10deallocateEPS4_m
FNDA:0,_ZNSt15__new_allocatorISt4pairIccEE10deallocateEPS1_m
FNDA:140,_ZNSt15__new_allocatorISt4pairIddEE10deallocateEPS1_m
FNDA:0,_ZNSt15__new_allocatorISt4pairIiN5Catch9StringRefEEE10deallocateEPS3_m
FNDA:0,_ZNSt15__new_allocatorISt4pairIlSt6vectorINSt7__cxx119sub_matchIN9__gnu_cxx17__normal_iteratorIPKcNS2_12basic_stringIcSt11char_traitsIcESaIcEEEEEEESaISE_EEEE10deallocateEPSH_m
FNDA:0,_ZNSt15__new_allocatorISt4pairImN5Catch14TestCaseHandleEEE10deallocateEPS3_m
FNDA:2899,_ZNSt15__new_allocatorISt6vectorIdSaIdEEE10deallocateEPS2_m
FNDA:306,_ZNSt15__new_allocatorIZNK5Catch5Clara6Parser5parseERKNSt7__cxx1112basic_stringIcSt11char_traitsIcESaIcEEENS1_6Detail11TokenStreamEE10ParserInfoE10deallocateEPSD_m
FNDA:0,_ZNSt15__new_allocatorIcE10deallocateEPcm
FNDA:278718076,_ZNSt15__new_allocatorIdE10deallocateEPdm
FNDA:0,_ZNSt15__new_allocatorIlE10deallocateEPlm
FNDA:284616734,_ZNSt15__new_allocatorImE10deallocateEPmm
FNF:313
FNH:190
DA:88,612
DA:92,1126718209
DA:104,1411634231
DA:126,851038523
DA:134,851038523
DA:138,0
DA:139,0
DA:140,0
DA:151,851038523
DA:156,851038523
DA:172,851038523
DA:183,284767424
DA:191,575412126
DA:198,0
DA:233,1135739546
LF:15
LH:11
end_of_record
TN:
SF:/usr/include/c++/13/bits/predefined_ops.h
FN:108,109,_ZN9__gnu_cxx5__ops15__val_comp_iterENS0_15_Iter_less_iterE
FN:116,117,_ZNK9__gnu_cxx5__ops19_Iter_equal_to_iterclINS_17__normal_iteratorIPN5Catch3TagESt6vectorIS5_SaIS5_EEEESA_EEbT_T0_
FN:116,117,_ZNK9__gnu_cxx5__ops19_Iter_equal_to_iterclINS_17__normal_iteratorIPcSt6vectorIcSaIcEEEES8_EEbT_T0_
FN:122,123,_ZN9__gnu_cxx5__ops20__iter_equal_to_iterEv
FN:150,152,_ZN9__gnu_cxx5__ops15_Iter_comp_iterIZN4givp6detail28bidirectional_path_relinkingIZL23CATCH2_INTERNAL_TEST_38vEUlRKSt6vectorIdSaIdEEE_NS3_3RngEEESt4pairIS7_dERKT_S9_S9_mRSt8optionalINS3_15EvaluationCacheEERT0_RKSH_INSt6chrono10time_pointINSN_3_V212steady_clockENSN_8durationIlSt5ratioILl1ELl1000000000EEEEEEEEUlmmE_EC2ESZ_
FN:150,152,_ZN9__gnu_cxx5__ops15_Iter_comp_iterIZN4givp6detail28bidirectional_path_relinkingIZL23CATCH2_INTERNAL_TEST_40vEUlRKSt6vectorIdSaIdEEE_NS3_3RngEEESt4pairIS7_dERKT_S9_S9_mRSt8optionalINS3_15EvaluationCacheEERT0_RKSH_INSt6chrono10time_pointINSN_3_V212steady_clockENSN_8durationIlSt5ratioILl1ELl1000000000EEEEEEEEUlmmE_EC2ESZ_
FN:150,152,_ZN9__gnu_cxx5__ops15_Iter_comp_iterIZN4givp6detail28bidirectional_path_relinkingIZNS3_3runIRFdRKSt6vectorIdSaIdEEEEENS2_14OptimizeResultEOT_RKS6_ISt4pairIddESaISH_EENS2_10GivpConfigEEUlSA_E_NS3_3RngEEESG_IS8_dERKSE_SA_SA_mRSt8optionalINS3_15EvaluationCacheEERT0_RKSS_INSt6chrono10time_pointINSY_3_V212steady_clockENSY_8durationIlSt5ratioILl1ELl1000000000EEEEEEEEUlmmE_EC2ES1A_
FN:150,152,_ZN9__gnu_cxx5__ops15_Iter_comp_iterIZN4givp6detail28bidirectional_path_relinkingIZNS3_3runIRZL22CATCH2_INTERNAL_TEST_6vEUlRKSt6vectorIdSaIdEEE_EENS2_14OptimizeResultEOT_RKS6_ISt4pairIddESaISH_EENS2_10GivpConfigEEUlSA_E_NS3_3RngEEESG_IS8_dERKSE_SA_SA_mRSt8optionalINS3_15EvaluationCacheEERT0_RKSS_INSt6chrono10time_pointINSY_3_V212steady_clockENSY_8durationIlSt5ratioILl1ELl1000000000EEEEEEEEUlmmE_EC2ES1A_
FN:150,152,_ZN9__gnu_cxx5__ops15_Iter_comp_iterIZN4givp6detail28bidirectional_path_relinkingIZNS3_3runIRZL22CATCH2_INTERNAL_TEST_8vEUlRKSt6vectorIdSaIdEEE_EENS2_14OptimizeResultEOT_RKS6_ISt4pairIddESaISH_EENS2_10GivpConfigEEUlSA_E_NS3_3RngEEESG_IS8_dERKSE_SA_SA_mRSt8optionalINS3_15EvaluationCacheEERT0_RKSS_INSt6chrono10time_pointINSY_3_V212steady_clockENSY_8durationIlSt5ratioILl1ELl1000000000EEEEEEEEUlmmE_EC2ES1A_
FN:150,152,_ZN9__gnu_cxx5__ops15_Iter_comp_iterIZN4givp6detail28bidirectional_path_relinkingIZNS3_3runIRZL23CATCH2_INTERNAL_TEST_12vEUlRKSt6vectorIdSaIdEEE_EENS2_14OptimizeResultEOT_RKS6_ISt4pairIddESaISH_EENS2_10GivpConfigEEUlSA_E_NS3_3RngEEESG_IS8_dERKSE_SA_SA_mRSt8optionalINS3_15EvaluationCacheEERT0_RKSS_INSt6chrono10time_pointINSY_3_V212steady_clockENSY_8durationIlSt5ratioILl1ELl1000000000EEEEEEEEUlmmE_EC2ES1A_
FN:150,152,_ZN9__gnu_cxx5__ops15_Iter_comp_iterIZN4givp6detail28bidirectional_path_relinkingIZNS3_3runIRZL23CATCH2_INTERNAL_TEST_14vEUlRKSt6vectorIdSaIdEEE_EENS2_14OptimizeResultEOT_RKS6_ISt4pairIddESaISH_EENS2_10GivpConfigEEUlSA_E_NS3_3RngEEESG_IS8_dERKSE_SA_SA_mRSt8optionalINS3_15EvaluationCacheEERT0_RKSS_INSt6chrono10time_pointINSY_3_V212steady_clockENSY_8durationIlSt5ratioILl1ELl1000000000EEEEEEEEUlmmE_EC2ES1A_
FN:150,152,_ZN9__gnu_cxx5__ops15_Iter_comp_iterIZN4givp6detail28bidirectional_path_relinkingIZNS3_3runIRZL23CATCH2_INTERNAL_TEST_16vEUlRKSt6vectorIdSaIdEEE_EENS2_14OptimizeResultEOT_RKS6_ISt4pairIddESaISH_EENS2_10GivpConfigEEUlSA_E_NS3_3RngEEESG_IS8_dERKSE_SA_SA_mRSt8optionalINS3_15EvaluationCacheEERT0_RKSS_INSt6chrono10time_pointINSY_3_V212steady_clockENSY_8durationIlSt5ratioILl1ELl1000000000EEEEEEEEUlmmE_EC2ES1A_
FN:150,152,_ZN9__gnu_cxx5__ops15_Iter_comp_iterIZN4givp6detail28bidirectional_path_relinkingIZNS3_3runIRZL23CATCH2_INTERNAL_TEST_28vEUlRKSt6vectorIdSaIdEEE_EENS2_14OptimizeResultEOT_RKS6_ISt4pairIddESaISH_EENS2_10GivpConfigEEUlSA_E_NS3_3RngEEESG_IS8_dERKSE_SA_SA_mRSt8optionalINS3_15EvaluationCacheEERT0_RKSS_INSt6chrono10time_pointINSY_3_V212steady_clockENSY_8durationIlSt5ratioILl1ELl1000000000EEEEEEEEUlmmE_EC2ES1A_
FN:150,152,_ZN9__gnu_cxx5__ops15_Iter_comp_iterIZN4givp6detail28bidirectional_path_relinkingIZNS3_3runIRZL23CATCH2_INTERNAL_TEST_42vEUlRKSt6vectorIdSaIdEEE_EENS2_14OptimizeResultEOT_RKS6_ISt4pairIddESaISH_EENS2_10GivpConfigEEUlSA_E_NS3_3RngEEESG_IS8_dERKSE_SA_SA_mRSt8optionalINS3_15EvaluationCacheEERT0_RKSS_INSt6chrono10time_pointINSY_3_V212steady_clockENSY_8durationIlSt5ratioILl1ELl1000000000EEEEEEEEUlmmE_EC2ES1A_
FN:150,152,_ZN9__gnu_cxx5__ops15_Iter_comp_iterIZN4givp6detail28bidirectional_path_relinkingIZNS3_3runIRZL23CATCH2_INTERNAL_TEST_44vEUlRKSt6vectorIdSaIdEEE_EENS2_14OptimizeResultEOT_RKS6_ISt4pairIddESaISH_EENS2_10GivpConfigEEUlSA_E_NS3_3RngEEESG_IS8_dERKSE_SA_SA_mRSt8optionalINS3_15EvaluationCacheEERT0_RKSS_INSt6chrono10time_pointINSY_3_V212steady_clockENSY_8durationIlSt5ratioILl1ELl1000000000EEEEEEEEUlmmE_EC2ES1A_
FN:150,152,_ZN9__gnu_cxx5__ops15_Iter_comp_iterIZN4givp6detail28bidirectional_path_relinkingIZNS3_3runIZL23CATCH2_INTERNAL_TEST_16vEUlRKSt6vectorIdSaIdEEE_EENS2_14OptimizeResultEOT_RKS6_ISt4pairIddESaISG_EENS2_10GivpConfigEEUlSA_E_NS3_3RngEEESF_IS8_dERKSD_SA_SA_mRSt8optionalINS3_15EvaluationCacheEERT0_RKSR_INSt6chrono10time_pointINSX_3_V212steady_clockENSX_8durationIlSt5ratioILl1ELl1000000000EEEEEEEEUlmmE_EC2ES19_
FN:150,152,_ZN9__gnu_cxx5__ops15_Iter_comp_iterIZN4givp6detail28bidirectional_path_relinkingIZNS3_3runIZL23CATCH2_INTERNAL_TEST_18vEUlRKSt6vectorIdSaIdEEE_EENS2_14OptimizeResultEOT_RKS6_ISt4pairIddESaISG_EENS2_10GivpConfigEEUlSA_E_NS3_3RngEEESF_IS8_dERKSD_SA_SA_mRSt8optionalINS3_15EvaluationCacheEERT0_RKSR_INSt6chrono10time_pointINSX_3_V212steady_clockENSX_8durationIlSt5ratioILl1ELl1000000000EEEEEEEEUlmmE_EC2ES19_
FN:150,152,_ZN9__gnu_cxx5__ops15_Iter_comp_iterIZN4givp6detail28bidirectional_path_relinkingIZNS3_3runIZL23CATCH2_INTERNAL_TEST_20vEUlRKSt6vectorIdSaIdEEE_EENS2_14OptimizeResultEOT_RKS6_ISt4pairIddESaISG_EENS2_10GivpConfigEEUlSA_E_NS3_3RngEEESF_IS8_dERKSD_SA_SA_mRSt8optionalINS3_15EvaluationCacheEERT0_RKSR_INSt6chrono10time_pointINSX_3_V212steady_clockENSX_8durationIlSt5ratioILl1ELl1000000000EEEEEEEEUlmmE_EC2ES19_
FN:150,152,_ZN9__gnu_cxx5__ops15_Iter_comp_iterIZN4givp6detail28bidirectional_path_relinkingIZNS3_3runIZL23CATCH2_INTERNAL_TEST_22vEUlRKSt6vectorIdSaIdEEE_EENS2_14OptimizeResultEOT_RKS6_ISt4pairIddESaISG_EENS2_10GivpConfigEEUlSA_E_NS3_3RngEEESF_IS8_dERKSD_SA_SA_mRSt8optionalINS3_15EvaluationCacheEERT0_RKSR_INSt6chrono10time_pointINSX_3_V212steady_clockENSX_8durationIlSt5ratioILl1ELl1000000000EEEEEEEEUlmmE_EC2ES19_
FN:150,152,_ZN9__gnu_cxx5__ops15_Iter_comp_iterIZN4givp6detail28bidirectional_path_relinkingIZNS3_3runIZL23CATCH2_INTERNAL_TEST_24vEUlRKSt6vectorIdSaIdEEE_EENS2_14OptimizeResultEOT_RKS6_ISt4pairIddESaISG_EENS2_10GivpConfigEEUlSA_E_NS3_3RngEEESF_IS8_dERKSD_SA_SA_mRSt8optionalINS3_15EvaluationCacheEERT0_RKSR_INSt6chrono10time_pointINSX_3_V212steady_clockENSX_8durationIlSt5ratioILl1ELl1000000000EEEEEEEEUlmmE_EC2ES19_
FN:150,152,_ZN9__gnu_cxx5__ops15_Iter_comp_iterIZN4givp6detail9ElitePool3addESt6vectorIdSaIdEEdEUlRKT_RKT0_E0_EC2ESE_
FN:150,152,_ZN9__gnu_cxx5__ops15_Iter_comp_iterIZN4givp6detail9ElitePool3addESt6vectorIdSaIdEEdEUlRKT_RKT0_E_EC2ESE_
FN:150,152,_ZN9__gnu_cxx5__ops15_Iter_comp_iterIZN4givp6detailL17neighborhood_flipIZNS3_3runIRFdRKSt6vectorIdSaIdEEEEENS2_14OptimizeResultEOT_RKS6_ISt4pairIddESaISH_EENS2_10GivpConfigEEUlSA_E_NS3_3RngEEESG_IdbERS8_dRKSE_SQ_RT0_SA_SA_RSt8optionalINS3_15EvaluationCacheEEmRKSV_INSt6chrono10time_pointINSZ_3_V212steady_clockENSZ_8durationIlSt5ratioILl1ELl1000000000EEEEEEEEUlmmE_EC2ES1B_
FN:150,152,_ZN9__gnu_cxx5__ops15_Iter_comp_iterIZN4givp6detailL17neighborhood_flipIZNS3_3runIRZL22CATCH2_INTERNAL_TEST_6vEUlRKSt6vectorIdSaIdEEE_EENS2_14OptimizeResultEOT_RKS6_ISt4pairIddESaISH_EENS2_10GivpConfigEEUlSA_E_NS3_3RngEEESG_IdbERS8_dRKSE_SQ_RT0_SA_SA_RSt8optionalINS3_15EvaluationCacheEEmRKSV_INSt6chrono10time_pointINSZ_3_V212steady_clockENSZ_8durationIlSt5ratioILl1ELl1000000000EEEEEEEEUlmmE_EC2ES1B_
FN:150,152,_ZN9__gnu_cxx5__ops15_Iter_comp_iterIZN4givp6detailL17neighborhood_flipIZNS3_3runIRZL22CATCH2_INTERNAL_TEST_8vEUlRKSt6vectorIdSaIdEEE_EENS2_14OptimizeResultEOT_RKS6_ISt4pairIddESaISH_EENS2_10GivpConfigEEUlSA_E_NS3_3RngEEESG_IdbERS8_dRKSE_SQ_RT0_SA_SA_RSt8optionalINS3_15EvaluationCacheEEmRKSV_INSt6chrono10time_pointINSZ_3_V212steady_clockENSZ_8durationIlSt5ratioILl1ELl1000000000EEEEEEEEUlmmE_EC2ES1B_
FN:150,152,_ZN9__gnu_cxx5__ops15_Iter_comp_iterIZN4givp6detailL17neighborhood_flipIZNS3_3runIRZL23CATCH2_INTERNAL_TEST_12vEUlRKSt6vectorIdSaIdEEE_EENS2_14OptimizeResultEOT_RKS6_ISt4pairIddESaISH_EENS2_10GivpConfigEEUlSA_E_NS3_3RngEEESG_IdbERS8_dRKSE_SQ_RT0_SA_SA_RSt8optionalINS3_15EvaluationCacheEEmRKSV_INSt6chrono10time_pointINSZ_3_V212steady_clockENSZ_8durationIlSt5ratioILl1ELl1000000000EEEEEEEEUlmmE_EC2ES1B_
FN:150,152,_ZN9__gnu_cxx5__ops15_Iter_comp_iterIZN4givp6detailL17neighborhood_flipIZNS3_3runIRZL23CATCH2_INTERNAL_TEST_14vEUlRKSt6vectorIdSaIdEEE_EENS2_14OptimizeResultEOT_RKS6_ISt4pairIddESaISH_EENS2_10GivpConfigEEUlSA_E_NS3_3RngEEESG_IdbERS8_dRKSE_SQ_RT0_SA_SA_RSt8optionalINS3_15EvaluationCacheEEmRKSV_INSt6chrono10time_pointINSZ_3_V212steady_clockENSZ_8durationIlSt5ratioILl1ELl1000000000EEEEEEEEUlmmE_EC2ES1B_
FN:150,152,_ZN9__gnu_cxx5__ops15_Iter_comp_iterIZN4givp6detailL17neighborhood_flipIZNS3_3runIRZL23CATCH2_INTERNAL_TEST_16vEUlRKSt6vectorIdSaIdEEE_EENS2_14OptimizeResultEOT_RKS6_ISt4pairIddESaISH_EENS2_10GivpConfigEEUlSA_E_NS3_3RngEEESG_IdbERS8_dRKSE_SQ_RT0_SA_SA_RSt8optionalINS3_15EvaluationCacheEEmRKSV_INSt6chrono10time_pointINSZ_3_V212steady_clockENSZ_8durationIlSt5ratioILl1ELl1000000000EEEEEEEEUlmmE_EC2ES1B_
FN:150,152,_ZN9__gnu_cxx5__ops15_Iter_comp_iterIZN4givp6detailL17neighborhood_flipIZNS3_3runIRZL23CATCH2_INTERNAL_TEST_28vEUlRKSt6vectorIdSaIdEEE_EENS2_14OptimizeResultEOT_RKS6_ISt4pairIddESaISH_EENS2_10GivpConfigEEUlSA_E_NS3_3RngEEESG_IdbERS8_dRKSE_SQ_RT0_SA_SA_RSt8optionalINS3_15EvaluationCacheEEmRKSV_INSt6chrono10time_pointINSZ_3_V212steady_clockENSZ_8durationIlSt5ratioILl1ELl1000000000EEEEEEEEUlmmE_EC2ES1B_
FN:150,152,_ZN9__gnu_cxx5__ops15_Iter_comp_iterIZN4givp6detailL17neighborhood_flipIZNS3_3runIRZL23CATCH2_INTERNAL_TEST_42vEUlRKSt6vectorIdSaIdEEE_EENS2_14OptimizeResultEOT_RKS6_ISt4pairIddESaISH_EENS2_10GivpConfigEEUlSA_E_NS3_3RngEEESG_IdbERS8_dRKSE_SQ_RT0_SA_SA_RSt8optionalINS3_15EvaluationCacheEEmRKSV_INSt6chrono10time_pointINSZ_3_V212steady_clockENSZ_8durationIlSt5ratioILl1ELl1000000000EEEEEEEEUlmmE_EC2ES1B_
FN:150,152,_ZN9__gnu_cxx5__ops15_Iter_comp_iterIZN4givp6detailL17neighborhood_flipIZNS3_3runIRZL23CATCH2_INTERNAL_TEST_44vEUlRKSt6vectorIdSaIdEEE_EENS2_14OptimizeResultEOT_RKS6_ISt4pairIddESaISH_EENS2_10GivpConfigEEUlSA_E_NS3_3RngEEESG_IdbERS8_dRKSE_SQ_RT0_SA_SA_RSt8optionalINS3_15EvaluationCacheEEmRKSV_INSt6chrono10time_pointINSZ_3_V212steady_clockENSZ_8durationIlSt5ratioILl1ELl1000000000EEEEEEEEUlmmE_EC2ES1B_
FN:150,152,_ZN9__gnu_cxx5__ops15_Iter_comp_iterIZN4givp6detailL17neighborhood_flipIZNS3_3runIZL23CATCH2_INTERNAL_TEST_16vEUlRKSt6vectorIdSaIdEEE_EENS2_14OptimizeResultEOT_RKS6_ISt4pairIddESaISG_EENS2_10GivpConfigEEUlSA_E_NS3_3RngEEESF_IdbERS8_dRKSD_SP_RT0_SA_SA_RSt8optionalINS3_15EvaluationCacheEEmRKSU_INSt6chrono10time_pointINSY_3_V212steady_clockENSY_8durationIlSt5ratioILl1ELl1000000000EEEEEEEEUlmmE_EC2ES1A_
FN:150,152,_ZN9__gnu_cxx5__ops15_Iter_comp_iterIZN4givp6detailL17neighborhood_flipIZNS3_3runIZL23CATCH2_INTERNAL_TEST_18vEUlRKSt6vectorIdSaIdEEE_EENS2_14OptimizeResultEOT_RKS6_ISt4pairIddESaISG_EENS2_10GivpConfigEEUlSA_E_NS3_3RngEEESF_IdbERS8_dRKSD_SP_RT0_SA_SA_RSt8optionalINS3_15EvaluationCacheEEmRKSU_INSt6chrono10time_pointINSY_3_V212steady_clockENSY_8durationIlSt5ratioILl1ELl1000000000EEEEEEEEUlmmE_EC2ES1A_
FN:150,152,_ZN9__gnu_cxx5__ops15_Iter_comp_iterIZN4givp6detailL17neighborhood_flipIZNS3_3runIZL23CATCH2_INTERNAL_TEST_20vEUlRKSt6vectorIdSaIdEEE_EENS2_14OptimizeResultEOT_RKS6_ISt4pairIddESaISG_EENS2_10GivpConfigEEUlSA_E_NS3_3RngEEESF_IdbERS8_dRKSD_SP_RT0_SA_SA_RSt8optionalINS3_15EvaluationCacheEEmRKSU_INSt6chrono10time_pointINSY_3_V212steady_clockENSY_8durationIlSt5ratioILl1ELl1000000000EEEEEEEEUlmmE_EC2ES1A_
FN:150,152,_ZN9__gnu_cxx5__ops15_Iter_comp_iterIZN4givp6detailL17neighborhood_flipIZNS3_3runIZL23CATCH2_INTERNAL_TEST_22vEUlRKSt6vectorIdSaIdEEE_EENS2_14OptimizeResultEOT_RKS6_ISt4pairIddESaISG_EENS2_10GivpConfigEEUlSA_E_NS3_3RngEEESF_IdbERS8_dRKSD_SP_RT0_SA_SA_RSt8optionalINS3_15EvaluationCacheEEmRKSU_INSt6chrono10time_pointINSY_3_V212steady_clockENSY_8durationIlSt5ratioILl1ELl1000000000EEEEEEEEUlmmE_EC2ES1A_
FN:150,152,_ZN9__gnu_cxx5__ops15_Iter_comp_iterIZN4givp6detailL17neighborhood_flipIZNS3_3runIZL23CATCH2_INTERNAL_TEST_24vEUlRKSt6vectorIdSaIdEEE_EENS2_14OptimizeResultEOT_RKS6_ISt4pairIddESaISG_EENS2_10GivpConfigEEUlSA_E_NS3_3RngEEESF_IdbERS8_dRKSD_SP_RT0_SA_SA_RSt8optionalINS3_15EvaluationCacheEEmRKSU_INSt6chrono10time_pointINSY_3_V212steady_clockENSY_8durationIlSt5ratioILl1ELl1000000000EEEEEEEEUlmmE_EC2ES1A_
FN:150,152,_ZN9__gnu_cxx5__ops15_Iter_comp_iterIZN5Catch20defaultListListenersERSoRKSt6vectorINS2_19ListenerDescriptionESaIS5_EEEUlRKS5_SB_E_EC2ESC_
FN:150,152,_ZN9__gnu_cxx5__ops15_Iter_comp_iterIZN5Catch20defaultListReportersERSoRKSt6vectorINS2_19ReporterDescriptionESaIS5_EENS2_9VerbosityEEUlRKS5_SC_E_EC2ESD_
FN:150,152,_ZN9__gnu_cxx5__ops15_Iter_comp_iterIZN5Catch9sortTestsERKNS2_7IConfigERKSt6vectorINS2_14TestCaseHandleESaIS7_EEEUlRKS7_SD_E_EC2ESE_
FN:150,152,_ZN9__gnu_cxx5__ops15_Iter_comp_iterIZN5Catch9sortTestsERKNS2_7IConfigERKSt6vectorINS2_14TestCaseHandleESaIS7_EEEUlRKSt4pairImS7_ESF_E_EC2ESG_
FN:150,152,_ZN9__gnu_cxx5__ops15_Iter_comp_iterIZNK5Catch6Detail19CaseInsensitiveLessclENS2_9StringRefES5_EUlccE_EC2ES6_
FN:157,158,_ZN9__gnu_cxx5__ops15_Iter_comp_iterIZN4givp6detail28bidirectional_path_relinkingIZL23CATCH2_INTERNAL_TEST_38vEUlRKSt6vectorIdSaIdEEE_NS3_3RngEEESt4pairIS7_dERKT_S9_S9_mRSt8optionalINS3_15EvaluationCacheEERT0_RKSH_INSt6chrono10time_pointINSN_3_V212steady_clockENSN_8durationIlSt5ratioILl1ELl1000000000EEEEEEEEUlmmE_EclINS_17__normal_iteratorIPmS5_ImSaImEEEES16_EEbSE_SL_
FN:157,158,_ZN9__gnu_cxx5__ops15_Iter_comp_iterIZN4givp6detail28bidirectional_path_relinkingIZL23CATCH2_INTERNAL_TEST_40vEUlRKSt6vectorIdSaIdEEE_NS3_3RngEEESt4pairIS7_dERKT_S9_S9_mRSt8optionalINS3_15EvaluationCacheEERT0_RKSH_INSt6chrono10time_pointINSN_3_V212steady_clockENSN_8durationIlSt5ratioILl1ELl1000000000EEEEEEEEUlmmE_EclINS_17__normal_iteratorIPmS5_ImSaImEEEES16_EEbSE_SL_
FN:157,158,_ZN9__gnu_cxx5__ops15_Iter_comp_iterIZN4givp6detail28bidirectional_path_relinkingIZNS3_3runIRFdRKSt6vectorIdSaIdEEEEENS2_14OptimizeResultEOT_RKS6_ISt4pairIddESaISH_EENS2_10GivpConfigEEUlSA_E_NS3_3RngEEESG_IS8_dERKSE_SA_SA_mRSt8optionalINS3_15EvaluationCacheEERT0_RKSS_INSt6chrono10time_pointINSY_3_V212steady_clockENSY_8durationIlSt5ratioILl1ELl1000000000EEEEEEEEUlmmE_EclINS_17__normal_iteratorIPmS6_ImSaImEEEES1H_EEbSE_SW_
FN:157,158,_ZN9__gnu_cxx5__ops15_Iter_comp_iterIZN4givp6detail28bidirectional_path_relinkingIZNS3_3runIRZL22CATCH2_INTERNAL_TEST_6vEUlRKSt6vectorIdSaIdEEE_EENS2_14OptimizeResultEOT_RKS6_ISt4pairIddESaISH_EENS2_10GivpConfigEEUlSA_E_NS3_3RngEEESG_IS8_dERKSE_SA_SA_mRSt8optionalINS3_15EvaluationCacheEERT0_RKSS_INSt6chrono10time_pointINSY_3_V212steady_clockENSY_8durationIlSt5ratioILl1ELl1000000000EEEEEEEEUlmmE_EclINS_17__normal_iteratorIPmS6_ImSaImEEEES1H_EEbSE_SW_
FN:157,158,_ZN9__gnu_cxx5__ops15_Iter_comp_iterIZN4givp6detail28bidirectional_path_relinkingIZNS3_3runIRZL22CATCH2_INTERNAL_TEST_8vEUlRKSt6vectorIdSaIdEEE_EENS2_14OptimizeResultEOT_RKS6_ISt4pairIddESaISH_EENS2_10GivpConfigEEUlSA_E_NS3_3RngEEESG_IS8_dERKSE_SA_SA_mRSt8optionalINS3_15EvaluationCacheEERT0_RKSS_INSt6chrono10time_pointINSY_3_V212steady_clockENSY_8durationIlSt5ratioILl1ELl1000000000EEEEEEEEUlmmE_EclINS_17__normal_iteratorIPmS6_ImSaImEEEES1H_EEbSE_SW_
FN:157,158,_ZN9__gnu_cxx5__ops15_Iter_comp_iterIZN4givp6detail28bidirectional_path_relinkingIZNS3_3runIRZL23CATCH2_INTERNAL_TEST_12vEUlRKSt6vectorIdSaIdEEE_EENS2_14OptimizeResultEOT_RKS6_ISt4pairIddESaISH_EENS2_10GivpConfigEEUlSA_E_NS3_3RngEEESG_IS8_dERKSE_SA_SA_mRSt8optionalINS3_15EvaluationCacheEERT0_RKSS_INSt6chrono10time_pointINSY_3_V212steady_clockENSY_8durationIlSt5ratioILl1ELl1000000000EEEEEEEEUlmmE_EclINS_17__normal_iteratorIPmS6_ImSaImEEEES1H_EEbSE_SW_
FN:157,158,_ZN9__gnu_cxx5__ops15_Iter_comp_iterIZN4givp6detail28bidirectional_path_relinkingIZNS3_3runIRZL23CATCH2_INTERNAL_TEST_14vEUlRKSt6vectorIdSaIdEEE_EENS2_14OptimizeResultEOT_RKS6_ISt4pairIddESaISH_EENS2_10GivpConfigEEUlSA_E_NS3_3RngEEESG_IS8_dERKSE_SA_SA_mRSt8optionalINS3_15EvaluationCacheEERT0_RKSS_INSt6chrono10time_pointINSY_3_V212steady_clockENSY_8durationIlSt5ratioILl1ELl1000000000EEEEEEEEUlmmE_EclINS_17__normal_iteratorIPmS6_ImSaImEEEES1H_EEbSE_SW_
FN:157,158,_ZN9__gnu_cxx5__ops15_Iter_comp_iterIZN4givp6detail28bidirectional_path_relinkingIZNS3_3runIRZL23CATCH2_INTERNAL_TEST_16vEUlRKSt6vectorIdSaIdEEE_EENS2_14OptimizeResultEOT_RKS6_ISt4pairIddESaISH_EENS2_10GivpConfigEEUlSA_E_NS3_3RngEEESG_IS8_dERKSE_SA_SA_mRSt8optionalINS3_15EvaluationCacheEERT0_RKSS_INSt6chrono10time_pointINSY_3_V212steady_clockENSY_8durationIlSt5ratioILl1ELl1000000000EEEEEEEEUlmmE_EclINS_17__normal_iteratorIPmS6_ImSaImEEEES1H_EEbSE_SW_
FN:157,158,_ZN9__gnu_cxx5__ops15_Iter_comp_iterIZN4givp6detail28bidirectional_path_relinkingIZNS3_3runIRZL23CATCH2_INTERNAL_TEST_28vEUlRKSt6vectorIdSaIdEEE_EENS2_14OptimizeResultEOT_RKS6_ISt4pairIddESaISH_EENS2_10GivpConfigEEUlSA_E_NS3_3RngEEESG_IS8_dERKSE_SA_SA_mRSt8optionalINS3_15EvaluationCacheEERT0_RKSS_INSt6chrono10time_pointINSY_3_V212steady_clockENSY_8durationIlSt5ratioILl1ELl1000000000EEEEEEEEUlmmE_EclINS_17__normal_iteratorIPmS6_ImSaImEEEES1H_EEbSE_SW_
FN:157,158,_ZN9__gnu_cxx5__ops15_Iter_comp_iterIZN4givp6detail28bidirectional_path_relinkingIZNS3_3runIRZL23CATCH2_INTERNAL_TEST_42vEUlRKSt6vectorIdSaIdEEE_EENS2_14OptimizeResultEOT_RKS6_ISt4pairIddESaISH_EENS2_10GivpConfigEEUlSA_E_NS3_3RngEEESG_IS8_dERKSE_SA_SA_mRSt8optionalINS3_15EvaluationCacheEERT0_RKSS_INSt6chrono10time_pointINSY_3_V212steady_clockENSY_8durationIlSt5ratioILl1ELl1000000000EEEEEEEEUlmmE_EclINS_17__normal_iteratorIPmS6_ImSaImEEEES1H_EEbSE_SW_
FN:157,158,_ZN9__gnu_cxx5__ops15_Iter_comp_iterIZN4givp6detail28bidirectional_path_relinkingIZNS3_3runIRZL23CATCH2_INTERNAL_TEST_44vEUlRKSt6vectorIdSaIdEEE_EENS2_14OptimizeResultEOT_RKS6_ISt4pairIddESaISH_EENS2_10GivpConfigEEUlSA_E_NS3_3RngEEESG_IS8_dERKSE_SA_SA_mRSt8optionalINS3_15EvaluationCacheEERT0_RKSS_INSt6chrono10time_pointINSY_3_V212steady_clockENSY_8durationIlSt5ratioILl1ELl1000000000EEEEEEEEUlmmE_EclINS_17__normal_iteratorIPmS6_ImSaImEEEES1H_EEbSE_SW_
FN:157,158,_ZN9__gnu_cxx5__ops15_Iter_comp_iterIZN4givp6detail28bidirectional_path_relinkingIZNS3_3runIZL23CATCH2_INTERNAL_TEST_16vEUlRKSt6vectorIdSaIdEEE_EENS2_14OptimizeResultEOT_RKS6_ISt4pairIddESaISG_EENS2_10GivpConfigEEUlSA_E_NS3_3RngEEESF_IS8_dERKSD_SA_SA_mRSt8optionalINS3_15EvaluationCacheEERT0_RKSR_INSt6chrono10time_pointINSX_3_V212steady_clockENSX_8durationIlSt5ratioILl1ELl1000000000EEEEEEEEUlmmE_EclINS_17__normal_iteratorIPmS6_ImSaImEEEES1G_EEbSD_SV_
FN:157,158,_ZN9__gnu_cxx5__ops15_Iter_comp_iterIZN4givp6detail28bidirectional_path_relinkingIZNS3_3runIZL23CATCH2_INTERNAL_TEST_18vEUlRKSt6vectorIdSaIdEEE_EENS2_14OptimizeResultEOT_RKS6_ISt4pairIddESaISG_EENS2_10GivpConfigEEUlSA_E_NS3_3RngEEESF_IS8_dERKSD_SA_SA_mRSt8optionalINS3_15EvaluationCacheEERT0_RKSR_INSt6chrono10time_pointINSX_3_V212steady_clockENSX_8durationIlSt5ratioILl1ELl1000000000EEEEEEEEUlmmE_EclINS_17__normal_iteratorIPmS6_ImSaImEEEES1G_EEbSD_SV_
FN:157,158,_ZN9__gnu_cxx5__ops15_Iter_comp_iterIZN4givp6detail28bidirectional_path_relinkingIZNS3_3runIZL23CATCH2_INTERNAL_TEST_20vEUlRKSt6vectorIdSaIdEEE_EENS2_14OptimizeResultEOT_RKS6_ISt4pairIddESaISG_EENS2_10GivpConfigEEUlSA_E_NS3_3RngEEESF_IS8_dERKSD_SA_SA_mRSt8optionalINS3_15EvaluationCacheEERT0_RKSR_INSt6chrono10time_pointINSX_3_V212steady_clockENSX_8durationIlSt5ratioILl1ELl1000000000EEEEEEEEUlmmE_EclINS_17__normal_iteratorIPmS6_ImSaImEEEES1G_EEbSD_SV_
FN:157,158,_ZN9__gnu_cxx5__ops15_Iter_comp_iterIZN4givp6detail28bidirectional_path_relinkingIZNS3_3runIZL23CATCH2_INTERNAL_TEST_22vEUlRKSt6vectorIdSaIdEEE_EENS2_14OptimizeResultEOT_RKS6_ISt4pairIddESaISG_EENS2_10GivpConfigEEUlSA_E_NS3_3RngEEESF_IS8_dERKSD_SA_SA_mRSt8optionalINS3_15EvaluationCacheEERT0_RKSR_INSt6chrono10time_pointINSX_3_V212steady_clockENSX_8durationIlSt5ratioILl1ELl1000000000EEEEEEEEUlmmE_EclINS_17__normal_iteratorIPmS6_ImSaImEEEES1G_EEbSD_SV_
FN:157,158,_ZN9__gnu_cxx5__ops15_Iter_comp_iterIZN4givp6detail28bidirectional_path_relinkingIZNS3_3runIZL23CATCH2_INTERNAL_TEST_24vEUlRKSt6vectorIdSaIdEEE_EENS2_14OptimizeResultEOT_RKS6_ISt4pairIddESaISG_EENS2_10GivpConfigEEUlSA_E_NS3_3RngEEESF_IS8_dERKSD_SA_SA_mRSt8optionalINS3_15EvaluationCacheEERT0_RKSR_INSt6chrono10time_pointINSX_3_V212steady_clockENSX_8durationIlSt5ratioILl1ELl1000000000EEEEEEEEUlmmE_EclINS_17__normal_iteratorIPmS6_ImSaImEEEES1G_EEbSD_SV_
FN:157,158,_ZN9__gnu_cxx5__ops15_Iter_comp_iterIZN4givp6detail9ElitePool3addESt6vectorIdSaIdEEdEUlRKT_RKT0_E0_EclINS_17__normal_iteratorIPSt4pairIS7_dES5_ISJ_SaISJ_EEEESN_EEbS8_SB_
FN:157,158,_ZN9__gnu_cxx5__ops15_Iter_comp_iterIZN4givp6detail9ElitePool3addESt6vectorIdSaIdEEdEUlRKT_RKT0_E_EclINS_17__normal_iteratorIPSt4pairIS7_dES5_ISJ_SaISJ_EEEESN_EEbS8_SB_
FN:157,158,_ZN9__gnu_cxx5__ops15_Iter_comp_iterIZN4givp6detailL17neighborhood_flipIZNS3_3runIRFdRKSt6vectorIdSaIdEEEEENS2_14OptimizeResultEOT_RKS6_ISt4pairIddESaISH_EENS2_10GivpConfigEEUlSA_E_NS3_3RngEEESG_IdbERS8_dRKSE_SQ_RT0_SA_SA_RSt8optionalINS3_15EvaluationCacheEEmRKSV_INSt6chrono10time_pointINSZ_3_V212steady_clockENSZ_8durationIlSt5ratioILl1ELl1000000000EEEEEEEEUlmmE_EclINS_17__normal_iteratorIPmS6_ImSaImEEEES1I_EEbSE_ST_
FN:157,158,_ZN9__gnu_cxx5__ops15_Iter_comp_iterIZN4givp6detailL17neighborhood_flipIZNS3_3runIRZL22CATCH2_INTERNAL_TEST_6vEUlRKSt6vectorIdSaIdEEE_EENS2_14OptimizeResultEOT_RKS6_ISt4pairIddESaISH_EENS2_10GivpConfigEEUlSA_E_NS3_3RngEEESG_IdbERS8_dRKSE_SQ_RT0_SA_SA_RSt8optionalINS3_15EvaluationCacheEEmRKSV_INSt6chrono10time_pointINSZ_3_V212steady_clockENSZ_8durationIlSt5ratioILl1ELl1000000000EEEEEEEEUlmmE_EclINS_17__normal_iteratorIPmS6_ImSaImEEEES1I_EEbSE_ST_
FN:157,158,_ZN9__gnu_cxx5__ops15_Iter_comp_iterIZN4givp6detailL17neighborhood_flipIZNS3_3runIRZL22CATCH2_INTERNAL_TEST_8vEUlRKSt6vectorIdSaIdEEE_EENS2_14OptimizeResultEOT_RKS6_ISt4pairIddESaISH_EENS2_10GivpConfigEEUlSA_E_NS3_3RngEEESG_IdbERS8_dRKSE_SQ_RT0_SA_SA_RSt8optionalINS3_15EvaluationCacheEEmRKSV_INSt6chrono10time_pointINSZ_3_V212steady_clockENSZ_8durationIlSt5ratioILl1ELl1000000000EEEEEEEEUlmmE_EclINS_17__normal_iteratorIPmS6_ImSaImEEEES1I_EEbSE_ST_
FN:157,158,_ZN9__gnu_cxx5__ops15_Iter_comp_iterIZN4givp6detailL17neighborhood_flipIZNS3_3runIRZL23CATCH2_INTERNAL_TEST_12vEUlRKSt6vectorIdSaIdEEE_EENS2_14OptimizeResultEOT_RKS6_ISt4pairIddESaISH_EENS2_10GivpConfigEEUlSA_E_NS3_3RngEEESG_IdbERS8_dRKSE_SQ_RT0_SA_SA_RSt8optionalINS3_15EvaluationCacheEEmRKSV_INSt6chrono10time_pointINSZ_3_V212steady_clockENSZ_8durationIlSt5ratioILl1ELl1000000000EEEEEEEEUlmmE_EclINS_17__normal_iteratorIPmS6_ImSaImEEEES1I_EEbSE_ST_
FN:157,158,_ZN9__gnu_cxx5__ops15_Iter_comp_iterIZN4givp6detailL17neighborhood_flipIZNS3_3runIRZL23CATCH2_INTERNAL_TEST_14vEUlRKSt6vectorIdSaIdEEE_EENS2_14OptimizeResultEOT_RKS6_ISt4pairIddESaISH_EENS2_10GivpConfigEEUlSA_E_NS3_3RngEEESG_IdbERS8_dRKSE_SQ_RT0_SA_SA_RSt8optionalINS3_15EvaluationCacheEEmRKSV_INSt6chrono10time_pointINSZ_3_V212steady_clockENSZ_8durationIlSt5ratioILl1ELl1000000000EEEEEEEEUlmmE_EclINS_17__normal_iteratorIPmS6_ImSaImEEEES1I_EEbSE_ST_
FN:157,158,_ZN9__gnu_cxx5__ops15_Iter_comp_iterIZN4givp6detailL17neighborhood_flipIZNS3_3runIRZL23CATCH2_INTERNAL_TEST_16vEUlRKSt6vectorIdSaIdEEE_EENS2_14OptimizeResultEOT_RKS6_ISt4pairIddESaISH_EENS2_10GivpConfigEEUlSA_E_NS3_3RngEEESG_IdbERS8_dRKSE_SQ_RT0_SA_SA_RSt8optionalINS3_15EvaluationCacheEEmRKSV_INSt6chrono10time_pointINSZ_3_V212steady_clockENSZ_8durationIlSt5ratioILl1ELl1000000000EEEEEEEEUlmmE_EclINS_17__normal_iteratorIPmS6_ImSaImEEEES1I_EEbSE_ST_
FN:157,158,_ZN9__gnu_cxx5__ops15_Iter_comp_iterIZN4givp6detailL17neighborhood_flipIZNS3_3runIRZL23CATCH2_INTERNAL_TEST_28vEUlRKSt6vectorIdSaIdEEE_EENS2_14OptimizeResultEOT_RKS6_ISt4pairIddESaISH_EENS2_10GivpConfigEEUlSA_E_NS3_3RngEEESG_IdbERS8_dRKSE_SQ_RT0_SA_SA_RSt8optionalINS3_15EvaluationCacheEEmRKSV_INSt6chrono10time_pointINSZ_3_V212steady_clockENSZ_8durationIlSt5ratioILl1ELl1000000000EEEEEEEEUlmmE_EclINS_17__normal_iteratorIPmS6_ImSaImEEEES1I_EEbSE_ST_
FN:157,158,_ZN9__gnu_cxx5__ops15_Iter_comp_iterIZN4givp6detailL17neighborhood_flipIZNS3_3runIRZL23CATCH2_INTERNAL_TEST_42vEUlRKSt6vectorIdSaIdEEE_EENS2_14OptimizeResultEOT_RKS6_ISt4pairIddESaISH_EENS2_10GivpConfigEEUlSA_E_NS3_3RngEEESG_IdbERS8_dRKSE_SQ_RT0_SA_SA_RSt8optionalINS3_15EvaluationCacheEEmRKSV_INSt6chrono10time_pointINSZ_3_V212steady_clockENSZ_8durationIlSt5ratioILl1ELl1000000000EEEEEEEEUlmmE_EclINS_17__normal_iteratorIPmS6_ImSaImEEEES1I_EEbSE_ST_
FN:157,158,_ZN9__gnu_cxx5__ops15_Iter_comp_iterIZN4givp6detailL17neighborhood_flipIZNS3_3runIRZL23CATCH2_INTERNAL_TEST_44vEUlRKSt6vectorIdSaIdEEE_EENS2_14OptimizeResultEOT_RKS6_ISt4pairIddESaISH_EENS2_10GivpConfigEEUlSA_E_NS3_3RngEEESG_IdbERS8_dRKSE_SQ_RT0_SA_SA_RSt8optionalINS3_15EvaluationCacheEEmRKSV_INSt6chrono10time_pointINSZ_3_V212steady_clockENSZ_8durationIlSt5ratioILl1ELl1000000000EEEEEEEEUlmmE_EclINS_17__normal_iteratorIPmS6_ImSaImEEEES1I_EEbSE_ST_
FN:157,158,_ZN9__gnu_cxx5__ops15_Iter_comp_iterIZN4givp6detailL17neighborhood_flipIZNS3_3runIZL23CATCH2_INTERNAL_TEST_16vEUlRKSt6vectorIdSaIdEEE_EENS2_14OptimizeResultEOT_RKS6_ISt4pairIddESaISG_EENS2_10GivpConfigEEUlSA_E_NS3_3RngEEESF_IdbERS8_dRKSD_SP_RT0_SA_SA_RSt8optionalINS3_15EvaluationCacheEEmRKSU_INSt6chrono10time_pointINSY_3_V212steady_clockENSY_8durationIlSt5ratioILl1ELl1000000000EEEEEEEEUlmmE_EclINS_17__normal_iteratorIPmS6_ImSaImEEEES1H_EEbSD_SS_
FN:157,158,_ZN9__gnu_cxx5__ops15_Iter_comp_iterIZN4givp6detailL17neighborhood_flipIZNS3_3runIZL23CATCH2_INTERNAL_TEST_18vEUlRKSt6vectorIdSaIdEEE_EENS2_14OptimizeResultEOT_RKS6_ISt4pairIddESaISG_EENS2_10GivpConfigEEUlSA_E_NS3_3RngEEESF_IdbERS8_dRKSD_SP_RT0_SA_SA_RSt8optionalINS3_15EvaluationCacheEEmRKSU_INSt6chrono10time_pointINSY_3_V212steady_clockENSY_8durationIlSt5ratioILl1ELl1000000000EEEEEEEEUlmmE_EclINS_17__normal_iteratorIPmS6_ImSaImEEEES1H_EEbSD_SS_
FN:157,158,_ZN9__gnu_cxx5__ops15_Iter_comp_iterIZN4givp6detailL17neighborhood_flipIZNS3_3runIZL23CATCH2_INTERNAL_TEST_20vEUlRKSt6vectorIdSaIdEEE_EENS2_14OptimizeResultEOT_RKS6_ISt4pairIddESaISG_EENS2_10GivpConfigEEUlSA_E_NS3_3RngEEESF_IdbERS8_dRKSD_SP_RT0_SA_SA_RSt8optionalINS3_15EvaluationCacheEEmRKSU_INSt6chrono10time_pointINSY_3_V212steady_clockENSY_8durationIlSt5ratioILl1ELl1000000000EEEEEEEEUlmmE_EclINS_17__normal_iteratorIPmS6_ImSaImEEEES1H_EEbSD_SS_
FN:157,158,_ZN9__gnu_cxx5__ops15_Iter_comp_iterIZN4givp6detailL17neighborhood_flipIZNS3_3runIZL23CATCH2_INTERNAL_TEST_22vEUlRKSt6vectorIdSaIdEEE_EENS2_14OptimizeResultEOT_RKS6_ISt4pairIddESaISG_EENS2_10GivpConfigEEUlSA_E_NS3_3RngEEESF_IdbERS8_dRKSD_SP_RT0_SA_SA_RSt8optionalINS3_15EvaluationCacheEEmRKSU_INSt6chrono10time_pointINSY_3_V212steady_clockENSY_8durationIlSt5ratioILl1ELl1000000000EEEEEEEEUlmmE_EclINS_17__normal_iteratorIPmS6_ImSaImEEEES1H_EEbSD_SS_
FN:157,158,_ZN9__gnu_cxx5__ops15_Iter_comp_iterIZN4givp6detailL17neighborhood_flipIZNS3_3runIZL23CATCH2_INTERNAL_TEST_24vEUlRKSt6vectorIdSaIdEEE_EENS2_14OptimizeResultEOT_RKS6_ISt4pairIddESaISG_EENS2_10GivpConfigEEUlSA_E_NS3_3RngEEESF_IdbERS8_dRKSD_SP_RT0_SA_SA_RSt8optionalINS3_15EvaluationCacheEEmRKSU_INSt6chrono10time_pointINSY_3_V212steady_clockENSY_8durationIlSt5ratioILl1ELl1000000000EEEEEEEEUlmmE_EclINS_17__normal_iteratorIPmS6_ImSaImEEEES1H_EEbSD_SS_
FN:157,158,_ZN9__gnu_cxx5__ops15_Iter_comp_iterIZN5Catch20defaultListListenersERSoRKSt6vectorINS2_19ListenerDescriptionESaIS5_EEEUlRKS5_SB_E_EclINS_17__normal_iteratorIPSA_S7_EESH_EEbT_T0_
FN:157,158,_ZN9__gnu_cxx5__ops15_Iter_comp_iterIZN5Catch20defaultListReportersERSoRKSt6vectorINS2_19ReporterDescriptionESaIS5_EENS2_9VerbosityEEUlRKS5_SC_E_EclINS_17__normal_iteratorIPSB_S7_EESI_EEbT_T0_
FN:157,158,_ZN9__gnu_cxx5__ops15_Iter_comp_iterIZN5Catch9sortTestsERKNS2_7IConfigERKSt6vectorINS2_14TestCaseHandleESaIS7_EEEUlRKS7_SD_E_EclINS_17__normal_iteratorIPS7_S9_EESJ_EEbT_T0_
FN:157,158,_ZN9__gnu_cxx5__ops15_Iter_comp_iterIZN5Catch9sortTestsERKNS2_7IConfigERKSt6vectorINS2_14TestCaseHandleESaIS7_EEEUlRKSt4pairImS7_ESF_E_EclINS_17__normal_iteratorIPSD_S6_ISD_SaISD_EEEESN_EEbT_T0_
FN:157,158,_ZN9__gnu_cxx5__ops15_Iter_comp_iterIZNK5Catch6Detail19CaseInsensitiveLessclENS2_9StringRefES5_EUlccE_EclIPKcSA_EEbT_T0_
FN:164,165,_ZN9__gnu_cxx5__ops16__iter_comp_iterIZN4givp6detail28bidirectional_path_relinkingIZL23CATCH2_INTERNAL_TEST_38vEUlRKSt6vectorIdSaIdEEE_NS3_3RngEEESt4pairIS7_dERKT_S9_S9_mRSt8optionalINS3_15EvaluationCacheEERT0_RKSH_INSt6chrono10time_pointINSN_3_V212steady_clockENSN_8durationIlSt5ratioILl1ELl1000000000EEEEEEEEUlmmE_EENS0_15_Iter_comp_iterISE_EESE_
FN:164,165,_ZN9__gnu_cxx5__ops16__iter_comp_iterIZN4givp6detail28bidirectional_path_relinkingIZL23CATCH2_INTERNAL_TEST_40vEUlRKSt6vectorIdSaIdEEE_NS3_3RngEEESt4pairIS7_dERKT_S9_S9_mRSt8optionalINS3_15EvaluationCacheEERT0_RKSH_INSt6chrono10time_pointINSN_3_V212steady_clockENSN_8durationIlSt5ratioILl1ELl1000000000EEEEEEEEUlmmE_EENS0_15_Iter_comp_iterISE_EESE_
FN:164,165,_ZN9__gnu_cxx5__ops16__iter_comp_iterIZN4givp6detail28bidirectional_path_relinkingIZNS3_3runIRFdRKSt6vectorIdSaIdEEEEENS2_14OptimizeResultEOT_RKS6_ISt4pairIddESaISH_EENS2_10GivpConfigEEUlSA_E_NS3_3RngEEESG_IS8_dERKSE_SA_SA_mRSt8optionalINS3_15EvaluationCacheEERT0_RKSS_INSt6chrono10time_pointINSY_3_V212steady_clockENSY_8durationIlSt5ratioILl1ELl1000000000EEEEEEEEUlmmE_EENS0_15_Iter_comp_iterISE_EESE_
FN:164,165,_ZN9__gnu_cxx5__ops16__iter_comp_iterIZN4givp6detail28bidirectional_path_relinkingIZNS3_3runIRZL22CATCH2_INTERNAL_TEST_6vEUlRKSt6vectorIdSaIdEEE_EENS2_14OptimizeResultEOT_RKS6_ISt4pairIddESaISH_EENS2_10GivpConfigEEUlSA_E_NS3_3RngEEESG_IS8_dERKSE_SA_SA_mRSt8optionalINS3_15EvaluationCacheEERT0_RKSS_INSt6chrono10time_pointINSY_3_V212steady_clockENSY_8durationIlSt5ratioILl1ELl1000000000EEEEEEEEUlmmE_EENS0_15_Iter_comp_iterISE_EESE_
FN:164,165,_ZN9__gnu_cxx5__ops16__iter_comp_iterIZN4givp6detail28bidirectional_path_relinkingIZNS3_3runIRZL22CATCH2_INTERNAL_TEST_8vEUlRKSt6vectorIdSaIdEEE_EENS2_14OptimizeResultEOT_RKS6_ISt4pairIddESaISH_EENS2_10GivpConfigEEUlSA_E_NS3_3RngEEESG_IS8_dERKSE_SA_SA_mRSt8optionalINS3_15EvaluationCacheEERT0_RKSS_INSt6chrono10time_pointINSY_3_V212steady_clockENSY_8durationIlSt5ratioILl1ELl1000000000EEEEEEEEUlmmE_EENS0_15_Iter_comp_iterISE_EESE_
FN:164,165,_ZN9__gnu_cxx5__ops16__iter_comp_iterIZN4givp6detail28bidirectional_path_relinkingIZNS3_3runIRZL23CATCH2_INTERNAL_TEST_12vEUlRKSt6vectorIdSaIdEEE_EENS2_14OptimizeResultEOT_RKS6_ISt4pairIddESaISH_EENS2_10GivpConfigEEUlSA_E_NS3_3RngEEESG_IS8_dERKSE_SA_SA_mRSt8optionalINS3_15EvaluationCacheEERT0_RKSS_INSt6chrono10time_pointINSY_3_V212steady_clockENSY_8durationIlSt5ratioILl1ELl1000000000EEEEEEEEUlmmE_EENS0_15_Iter_comp_iterISE_EESE_
FN:164,165,_ZN9__gnu_cxx5__ops16__iter_comp_iterIZN4givp6detail28bidirectional_path_relinkingIZNS3_3runIRZL23CATCH2_INTERNAL_TEST_14vEUlRKSt6vectorIdSaIdEEE_EENS2_14OptimizeResultEOT_RKS6_ISt4pairIddESaISH_EENS2_10GivpConfigEEUlSA_E_NS3_3RngEEESG_IS8_dERKSE_SA_SA_mRSt8optionalINS3_15EvaluationCacheEERT0_RKSS_INSt6chrono10time_pointINSY_3_V212steady_clockENSY_8durationIlSt5ratioILl1ELl1000000000EEEEEEEEUlmmE_EENS0_15_Iter_comp_iterISE_EESE_
FN:164,165,_ZN9__gnu_cxx5__ops16__iter_comp_iterIZN4givp6detail28bidirectional_path_relinkingIZNS3_3runIRZL23CATCH2_INTERNAL_TEST_16vEUlRKSt6vectorIdSaIdEEE_EENS2_14OptimizeResultEOT_RKS6_ISt4pairIddESaISH_EENS2_10GivpConfigEEUlSA_E_NS3_3RngEEESG_IS8_dERKSE_SA_SA_mRSt8optionalINS3_15EvaluationCacheEERT0_RKSS_INSt6chrono10time_pointINSY_3_V212steady_clockENSY_8durationIlSt5ratioILl1ELl1000000000EEEEEEEEUlmmE_EENS0_15_Iter_comp_iterISE_EESE_
FN:164,165,_ZN9__gnu_cxx5__ops16__iter_comp_iterIZN4givp6detail28bidirectional_path_relinkingIZNS3_3runIRZL23CATCH2_INTERNAL_TEST_28vEUlRKSt6vectorIdSaIdEEE_EENS2_14OptimizeResultEOT_RKS6_ISt4pairIddESaISH_EENS2_10GivpConfigEEUlSA_E_NS3_3RngEEESG_IS8_dERKSE_SA_SA_mRSt8optionalINS3_15EvaluationCacheEERT0_RKSS_INSt6chrono10time_pointINSY_3_V212steady_clockENSY_8durationIlSt5ratioILl1ELl1000000000EEEEEEEEUlmmE_EENS0_15_Iter_comp_iterISE_EESE_
FN:164,165,_ZN9__gnu_cxx5__ops16__iter_comp_iterIZN4givp6detail28bidirectional_path_relinkingIZNS3_3runIRZL23CATCH2_INTERNAL_TEST_42vEUlRKSt6vectorIdSaIdEEE_EENS2_14OptimizeResultEOT_RKS6_ISt4pairIddESaISH_EENS2_10GivpConfigEEUlSA_E_NS3_3RngEEESG_IS8_dERKSE_SA_SA_mRSt8optionalINS3_15EvaluationCacheEERT0_RKSS_INSt6chrono10time_pointINSY_3_V212steady_clockENSY_8durationIlSt5ratioILl1ELl1000000000EEEEEEEEUlmmE_EENS0_15_Iter_comp_iterISE_EESE_
FN:164,165,_ZN9__gnu_cxx5__ops16__iter_comp_iterIZN4givp6detail28bidirectional_path_relinkingIZNS3_3runIRZL23CATCH2_INTERNAL_TEST_44vEUlRKSt6vectorIdSaIdEEE_EENS2_14OptimizeResultEOT_RKS6_ISt4pairIddESaISH_EENS2_10GivpConfigEEUlSA_E_NS3_3RngEEESG_IS8_dERKSE_SA_SA_mRSt8optionalINS3_15EvaluationCacheEERT0_RKSS_INSt6chrono10time_pointINSY_3_V212steady_clockENSY_8durationIlSt5ratioILl1ELl1000000000EEEEEEEEUlmmE_EENS0_15_Iter_comp_iterISE_EESE_
FN:164,165,_ZN9__gnu_cxx5__ops16__iter_comp_iterIZN4givp6detail28bidirectional_path_relinkingIZNS3_3runIZL23CATCH2_INTERNAL_TEST_16vEUlRKSt6vectorIdSaIdEEE_EENS2_14OptimizeResultEOT_RKS6_ISt4pairIddESaISG_EENS2_10GivpConfigEEUlSA_E_NS3_3RngEEESF_IS8_dERKSD_SA_SA_mRSt8optionalINS3_15EvaluationCacheEERT0_RKSR_INSt6chrono10time_pointINSX_3_V212steady_clockENSX_8durationIlSt5ratioILl1ELl1000000000EEEEEEEEUlmmE_EENS0_15_Iter_comp_iterISD_EESD_
FN:164,165,_ZN9__gnu_cxx5__ops16__iter_comp_iterIZN4givp6detail28bidirectional_path_relinkingIZNS3_3runIZL23CATCH2_INTERNAL_TEST_18vEUlRKSt6vectorIdSaIdEEE_EENS2_14OptimizeResultEOT_RKS6_ISt4pairIddESaISG_EENS2_10GivpConfigEEUlSA_E_NS3_3RngEEESF_IS8_dERKSD_SA_SA_mRSt8optionalINS3_15EvaluationCacheEERT0_RKSR_INSt6chrono10time_pointINSX_3_V212steady_clockENSX_8durationIlSt5ratioILl1ELl1000000000EEEEEEEEUlmmE_EENS0_15_Iter_comp_iterISD_EESD_
FN:164,165,_ZN9__gnu_cxx5__ops16__iter_comp_iterIZN4givp6detail28bidirectional_path_relinkingIZNS3_3runIZL23CATCH2_INTERNAL_TEST_20vEUlRKSt6vectorIdSaIdEEE_EENS2_14OptimizeResultEOT_RKS6_ISt4pairIddESaISG_EENS2_10GivpConfigEEUlSA_E_NS3_3RngEEESF_IS8_dERKSD_SA_SA_mRSt8optionalINS3_15EvaluationCacheEERT0_RKSR_INSt6chrono10time_pointINSX_3_V212steady_clockENSX_8durationIlSt5ratioILl1ELl1000000000EEEEEEEEUlmmE_EENS0_15_Iter_comp_iterISD_EESD_
FN:164,165,_ZN9__gnu_cxx5__ops16__iter_comp_iterIZN4givp6detail28bidirectional_path_relinkingIZNS3_3runIZL23CATCH2_INTERNAL_TEST_22vEUlRKSt6vectorIdSaIdEEE_EENS2_14OptimizeResultEOT_RKS6_ISt4pairIddESaISG_EENS2_10GivpConfigEEUlSA_E_NS3_3RngEEESF_IS8_dERKSD_SA_SA_mRSt8optionalINS3_15EvaluationCacheEERT0_RKSR_INSt6chrono10time_pointINSX_3_V212steady_clockENSX_8durationIlSt5ratioILl1ELl1000000000EEEEEEEEUlmmE_EENS0_15_Iter_comp_iterISD_EESD_
FN:164,165,_ZN9__gnu_cxx5__ops16__iter_comp_iterIZN4givp6detail28bidirectional_path_relinkingIZNS3_3runIZL23CATCH2_INTERNAL_TEST_24vEUlRKSt6vectorIdSaIdEEE_EENS2_14OptimizeResultEOT_RKS6_ISt4pairIddESaISG_EENS2_10GivpConfigEEUlSA_E_NS3_3RngEEESF_IS8_dERKSD_SA_SA_mRSt8optionalINS3_15EvaluationCacheEERT0_RKSR_INSt6chrono10time_pointINSX_3_V212steady_clockENSX_8durationIlSt5ratioILl1ELl1000000000EEEEEEEEUlmmE_EENS0_15_Iter_comp_iterISD_EESD_
FN:164,165,_ZN9__gnu_cxx5__ops16__iter_comp_iterIZN4givp6detail9ElitePool3addESt6vectorIdSaIdEEdEUlRKT_RKT0_E0_EENS0_15_Iter_comp_iterIS8_EES8_
FN:164,165,_ZN9__gnu_cxx5__ops16__iter_comp_iterIZN4givp6detail9ElitePool3addESt6vectorIdSaIdEEdEUlRKT_RKT0_E_EENS0_15_Iter_comp_iterIS8_EES8_
FN:164,165,_ZN9__gnu_cxx5__ops16__iter_comp_iterIZN4givp6detailL17neighborhood_flipIZNS3_3runIRFdRKSt6vectorIdSaIdEEEEENS2_14OptimizeResultEOT_RKS6_ISt4pairIddESaISH_EENS2_10GivpConfigEEUlSA_E_NS3_3RngEEESG_IdbERS8_dRKSE_SQ_RT0_SA_SA_RSt8optionalINS3_15EvaluationCacheEEmRKSV_INSt6chrono10time_pointINSZ_3_V212steady_clockENSZ_8durationIlSt5ratioILl1ELl1000000000EEEEEEEEUlmmE_EENS0_15_Iter_comp_iterISE_EESE_
FN:164,165,_ZN9__gnu_cxx5__ops16__iter_comp_iterIZN4givp6detailL17neighborhood_flipIZNS3_3runIRZL22CATCH2_INTERNAL_TEST_6vEUlRKSt6vectorIdSaIdEEE_EENS2_14OptimizeResultEOT_RKS6_ISt4pairIddESaISH_EENS2_10GivpConfigEEUlSA_E_NS3_3RngEEESG_IdbERS8_dRKSE_SQ_RT0_SA_SA_RSt8optionalINS3_15EvaluationCacheEEmRKSV_INSt6chrono10time_pointINSZ_3_V212steady_clockENSZ_8durationIlSt5ratioILl1ELl1000000000EEEEEEEEUlmmE_EENS0_15_Iter_comp_iterISE_EESE_
FN:164,165,_ZN9__gnu_cxx5__ops16__iter_comp_iterIZN4givp6detailL17neighborhood_flipIZNS3_3runIRZL22CATCH2_INTERNAL_TEST_8vEUlRKSt6vectorIdSaIdEEE_EENS2_14OptimizeResultEOT_RKS6_ISt4pairIddESaISH_EENS2_10GivpConfigEEUlSA_E_NS3_3RngEEESG_IdbERS8_dRKSE_SQ_RT0_SA_SA_RSt8optionalINS3_15EvaluationCacheEEmRKSV_INSt6chrono10time_pointINSZ_3_V212steady_clockENSZ_8durationIlSt5ratioILl1ELl1000000000EEEEEEEEUlmmE_EENS0_15_Iter_comp_iterISE_EESE_
FN:164,165,_ZN9__gnu_cxx5__ops16__iter_comp_iterIZN4givp6detailL17neighborhood_flipIZNS3_3runIRZL23CATCH2_INTERNAL_TEST_12vEUlRKSt6vectorIdSaIdEEE_EENS2_14OptimizeResultEOT_RKS6_ISt4pairIddESaISH_EENS2_10GivpConfigEEUlSA_E_NS3_3RngEEESG_IdbERS8_dRKSE_SQ_RT0_SA_SA_RSt8optionalINS3_15EvaluationCacheEEmRKSV_INSt6chrono10time_pointINSZ_3_V212steady_clockENSZ_8durationIlSt5ratioILl1ELl1000000000EEEEEEEEUlmmE_EENS0_15_Iter_comp_iterISE_EESE_
FN:164,165,_ZN9__gnu_cxx5__ops16__iter_comp_iterIZN4givp6detailL17neighborhood_flipIZNS3_3runIRZL23CATCH2_INTERNAL_TEST_14vEUlRKSt6vectorIdSaIdEEE_EENS2_14OptimizeResultEOT_RKS6_ISt4pairIddESaISH_EENS2_10GivpConfigEEUlSA_E_NS3_3RngEEESG_IdbERS8_dRKSE_SQ_RT0_SA_SA_RSt8optionalINS3_15EvaluationCacheEEmRKSV_INSt6chrono10time_pointINSZ_3_V212steady_clockENSZ_8durationIlSt5ratioILl1ELl1000000000EEEEEEEEUlmmE_EENS0_15_Iter_comp_iterISE_EESE_
FN:164,165,_ZN9__gnu_cxx5__ops16__iter_comp_iterIZN4givp6detailL17neighborhood_flipIZNS3_3runIRZL23CATCH2_INTERNAL_TEST_16vEUlRKSt6vectorIdSaIdEEE_EENS2_14OptimizeResultEOT_RKS6_ISt4pairIddESaISH_EENS2_10GivpConfigEEUlSA_E_NS3_3RngEEESG_IdbERS8_dRKSE_SQ_RT0_SA_SA_RSt8optionalINS3_15EvaluationCacheEEmRKSV_INSt6chrono10time_pointINSZ_3_V212steady_clockENSZ_8durationIlSt5ratioILl1ELl1000000000EEEEEEEEUlmmE_EENS0_15_Iter_comp_iterISE_EESE_
FN:164,165,_ZN9__gnu_cxx5__ops16__iter_comp_iterIZN4givp6detailL17neighborhood_flipIZNS3_3runIRZL23CATCH2_INTERNAL_TEST_28vEUlRKSt6vectorIdSaIdEEE_EENS2_14OptimizeResultEOT_RKS6_ISt4pairIddESaISH_EENS2_10GivpConfigEEUlSA_E_NS3_3RngEEESG_IdbERS8_dRKSE_SQ_RT0_SA_SA_RSt8optionalINS3_15EvaluationCacheEEmRKSV_INSt6chrono10time_pointINSZ_3_V212steady_clockENSZ_8durationIlSt5ratioILl1ELl1000000000EEEEEEEEUlmmE_EENS0_15_Iter_comp_iterISE_EESE_
FN:164,165,_ZN9__gnu_cxx5__ops16__iter_comp_iterIZN4givp6detailL17neighborhood_flipIZNS3_3runIRZL23CATCH2_INTERNAL_TEST_42vEUlRKSt6vectorIdSaIdEEE_EENS2_14OptimizeResultEOT_RKS6_ISt4pairIddESaISH_EENS2_10GivpConfigEEUlSA_E_NS3_3RngEEESG_IdbERS8_dRKSE_SQ_RT0_SA_SA_RSt8optionalINS3_15EvaluationCacheEEmRKSV_INSt6chrono10time_pointINSZ_3_V212steady_clockENSZ_8durationIlSt5ratioILl1ELl1000000000EEEEEEEEUlmmE_EENS0_15_Iter_comp_iterISE_EESE_
FN:164,165,_ZN9__gnu_cxx5__ops16__iter_comp_iterIZN4givp6detailL17neighborhood_flipIZNS3_3runIRZL23CATCH2_INTERNAL_TEST_44vEUlRKSt6vectorIdSaIdEEE_EENS2_14OptimizeResultEOT_RKS6_ISt4pairIddESaISH_EENS2_10GivpConfigEEUlSA_E_NS3_3RngEEESG_IdbERS8_dRKSE_SQ_RT0_SA_SA_RSt8optionalINS3_15EvaluationCacheEEmRKSV_INSt6chrono10time_pointINSZ_3_V212steady_clockENSZ_8durationIlSt5ratioILl1ELl1000000000EEEEEEEEUlmmE_EENS0_15_Iter_comp_iterISE_EESE_
FN:164,165,_ZN9__gnu_cxx5__ops16__iter_comp_iterIZN4givp6detailL17neighborhood_flipIZNS3_3runIZL23CATCH2_INTERNAL_TEST_16vEUlRKSt6vectorIdSaIdEEE_EENS2_14OptimizeResultEOT_RKS6_ISt4pairIddESaISG_EENS2_10GivpConfigEEUlSA_E_NS3_3RngEEESF_IdbERS8_dRKSD_SP_RT0_SA_SA_RSt8optionalINS3_15EvaluationCacheEEmRKSU_INSt6chrono10time_pointINSY_3_V212steady_clockENSY_8durationIlSt5ratioILl1ELl1000000000EEEEEEEEUlmmE_EENS0_15_Iter_comp_iterISD_EESD_
FN:164,165,_ZN9__gnu_cxx5__ops16__iter_comp_iterIZN4givp6detailL17neighborhood_flipIZNS3_3runIZL23CATCH2_INTERNAL_TEST_18vEUlRKSt6vectorIdSaIdEEE_EENS2_14OptimizeResultEOT_RKS6_ISt4pairIddESaISG_EENS2_10GivpConfigEEUlSA_E_NS3_3RngEEESF_IdbERS8_dRKSD_SP_RT0_SA_SA_RSt8optionalINS3_15EvaluationCacheEEmRKSU_INSt6chrono10time_pointINSY_3_V212steady_clockENSY_8durationIlSt5ratioILl1ELl1000000000EEEEEEEEUlmmE_EENS0_15_Iter_comp_iterISD_EESD_
FN:164,165,_ZN9__gnu_cxx5__ops16__iter_comp_iterIZN4givp6detailL17neighborhood_flipIZNS3_3runIZL23CATCH2_INTERNAL_TEST_20vEUlRKSt6vectorIdSaIdEEE_EENS2_14OptimizeResultEOT_RKS6_ISt4pairIddESaISG_EENS2_10GivpConfigEEUlSA_E_NS3_3RngEEESF_IdbERS8_dRKSD_SP_RT0_SA_SA_RSt8optionalINS3_15EvaluationCacheEEmRKSU_INSt6chrono10time_pointINSY_3_V212steady_clockENSY_8durationIlSt5ratioILl1ELl1000000000EEEEEEEEUlmmE_EENS0_15_Iter_comp_iterISD_EESD_
FN:164,165,_ZN9__gnu_cxx5__ops16__iter_comp_iterIZN4givp6detailL17neighborhood_flipIZNS3_3runIZL23CATCH2_INTERNAL_TEST_22vEUlRKSt6vectorIdSaIdEEE_EENS2_14OptimizeResultEOT_RKS6_ISt4pairIddESaISG_EENS2_10GivpConfigEEUlSA_E_NS3_3RngEEESF_IdbERS8_dRKSD_SP_RT0_SA_SA_RSt8optionalINS3_15EvaluationCacheEEmRKSU_INSt6chrono10time_pointINSY_3_V212steady_clockENSY_8durationIlSt5ratioILl1ELl1000000000EEEEEEEEUlmmE_EENS0_15_Iter_comp_iterISD_EESD_
FN:164,165,_ZN9__gnu_cxx5__ops16__iter_comp_iterIZN4givp6detailL17neighborhood_flipIZNS3_3runIZL23CATCH2_INTERNAL_TEST_24vEUlRKSt6vectorIdSaIdEEE_EENS2_14OptimizeResultEOT_RKS6_ISt4pairIddESaISG_EENS2_10GivpConfigEEUlSA_E_NS3_3RngEEESF_IdbERS8_dRKSD_SP_RT0_SA_SA_RSt8optionalINS3_15EvaluationCacheEEmRKSU_INSt6chrono10time_pointINSY_3_V212steady_clockENSY_8durationIlSt5ratioILl1ELl1000000000EEEEEEEEUlmmE_EENS0_15_Iter_comp_iterISD_EESD_
FN:164,165,_ZN9__gnu_cxx5__ops16__iter_comp_iterIZN5Catch20defaultListListenersERSoRKSt6vectorINS2_19ListenerDescriptionESaIS5_EEEUlRKS5_SB_E_EENS0_15_Iter_comp_iterIT_EESE_
FN:164,165,_ZN9__gnu_cxx5__ops16__iter_comp_iterIZN5Catch20defaultListReportersERSoRKSt6vectorINS2_19ReporterDescriptionESaIS5_EENS2_9VerbosityEEUlRKS5_SC_E_EENS0_15_Iter_comp_iterIT_EESF_
FN:164,165,_ZN9__gnu_cxx5__ops16__iter_comp_iterIZN5Catch9sortTestsERKNS2_7IConfigERKSt6vectorINS2_14TestCaseHandleESaIS7_EEEUlRKS7_SD_E_EENS0_15_Iter_comp_iterIT_EESG_
FN:164,165,_ZN9__gnu_cxx5__ops16__iter_comp_iterIZN5Catch9sortTestsERKNS2_7IConfigERKSt6vectorINS2_14TestCaseHandleESaIS7_EEEUlRKSt4pairImS7_ESF_E_EENS0_15_Iter_comp_iterIT_EESI_
FN:164,165,_ZN9__gnu_cxx5__ops16__iter_comp_iterIZNK5Catch6Detail19CaseInsensitiveLessclENS2_9StringRefES5_EUlccE_EENS0_15_Iter_comp_iterIT_EES8_
FN:187,189,_ZN9__gnu_cxx5__ops14_Iter_comp_valIZN4givp6detail28bidirectional_path_relinkingIZL23CATCH2_INTERNAL_TEST_38vEUlRKSt6vectorIdSaIdEEE_NS3_3RngEEESt4pairIS7_dERKT_S9_S9_mRSt8optionalINS3_15EvaluationCacheEERT0_RKSH_INSt6chrono10time_pointINSN_3_V212steady_clockENSN_8durationIlSt5ratioILl1ELl1000000000EEEEEEEEUlmmE_EC2EONS0_15_Iter_comp_iterISZ_EE
FN:187,189,_ZN9__gnu_cxx5__ops14_Iter_comp_valIZN4givp6detail28bidirectional_path_relinkingIZL23CATCH2_INTERNAL_TEST_40vEUlRKSt6vectorIdSaIdEEE_NS3_3RngEEESt4pairIS7_dERKT_S9_S9_mRSt8optionalINS3_15EvaluationCacheEERT0_RKSH_INSt6chrono10time_pointINSN_3_V212steady_clockENSN_8durationIlSt5ratioILl1ELl1000000000EEEEEEEEUlmmE_EC2EONS0_15_Iter_comp_iterISZ_EE
FN:187,189,_ZN9__gnu_cxx5__ops14_Iter_comp_valIZN4givp6detail28bidirectional_path_relinkingIZNS3_3runIRFdRKSt6vectorIdSaIdEEEEENS2_14OptimizeResultEOT_RKS6_ISt4pairIddESaISH_EENS2_10GivpConfigEEUlSA_E_NS3_3RngEEESG_IS8_dERKSE_SA_SA_mRSt8optionalINS3_15EvaluationCacheEERT0_RKSS_INSt6chrono10time_pointINSY_3_V212steady_clockENSY_8durationIlSt5ratioILl1ELl1000000000EEEEEEEEUlmmE_EC2EONS0_15_Iter_comp_iterIS1A_EE
FN:187,189,_ZN9__gnu_cxx5__ops14_Iter_comp_valIZN4givp6detail28bidirectional_path_relinkingIZNS3_3runIRZL22CATCH2_INTERNAL_TEST_6vEUlRKSt6vectorIdSaIdEEE_EENS2_14OptimizeResultEOT_RKS6_ISt4pairIddESaISH_EENS2_10GivpConfigEEUlSA_E_NS3_3RngEEESG_IS8_dERKSE_SA_SA_mRSt8optionalINS3_15EvaluationCacheEERT0_RKSS_INSt6chrono10time_pointINSY_3_V212steady_clockENSY_8durationIlSt5ratioILl1ELl1000000000EEEEEEEEUlmmE_EC2EONS0_15_Iter_comp_iterIS1A_EE
FN:187,189,_ZN9__gnu_cxx5__ops14_Iter_comp_valIZN4givp6detail28bidirectional_path_relinkingIZNS3_3runIRZL22CATCH2_INTERNAL_TEST_8vEUlRKSt6vectorIdSaIdEEE_EENS2_14OptimizeResultEOT_RKS6_ISt4pairIddESaISH_EENS2_10GivpConfigEEUlSA_E_NS3_3RngEEESG_IS8_dERKSE_SA_SA_mRSt8optionalINS3_15EvaluationCacheEERT0_RKSS_INSt6chrono10time_pointINSY_3_V212steady_clockENSY_8durationIlSt5ratioILl1ELl1000000000EEEEEEEEUlmmE_EC2EONS0_15_Iter_comp_iterIS1A_EE
FN:187,189,_ZN9__gnu_cxx5__ops14_Iter_comp_valIZN4givp6detail28bidirectional_path_relinkingIZNS3_3runIRZL23CATCH2_INTERNAL_TEST_12vEUlRKSt6vectorIdSaIdEEE_EENS2_14OptimizeResultEOT_RKS6_ISt4pairIddESaISH_EENS2_10GivpConfigEEUlSA_E_NS3_3RngEEESG_IS8_dERKSE_SA_SA_mRSt8optionalINS3_15EvaluationCacheEERT0_RKSS_INSt6chrono10time_pointINSY_3_V212steady_clockENSY_8durationIlSt5ratioILl1ELl1000000000EEEEEEEEUlmmE_EC2EONS0_15_Iter_comp_iterIS1A_EE
FN:187,189,_ZN9__gnu_cxx5__ops14_Iter_comp_valIZN4givp6detail28bidirectional_path_relinkingIZNS3_3runIRZL23CATCH2_INTERNAL_TEST_14vEUlRKSt6vectorIdSaIdEEE_EENS2_14OptimizeResultEOT_RKS6_ISt4pairIddESaISH_EENS2_10GivpConfigEEUlSA_E_NS3_3RngEEESG_IS8_dERKSE_SA_SA_mRSt8optionalINS3_15EvaluationCacheEERT0_RKSS_INSt6chrono10time_pointINSY_3_V212steady_clockENSY_8durationIlSt5ratioILl1ELl1000000000EEEEEEEEUlmmE_EC2EONS0_15_Iter_comp_iterIS1A_EE
FN:187,189,_ZN9__gnu_cxx5__ops14_Iter_comp_valIZN4givp6detail28bidirectional_path_relinkingIZNS3_3runIRZL23CATCH2_INTERNAL_TEST_16vEUlRKSt6vectorIdSaIdEEE_EENS2_14OptimizeResultEOT_RKS6_ISt4pairIddESaISH_EENS2_10GivpConfigEEUlSA_E_NS3_3RngEEESG_IS8_dERKSE_SA_SA_mRSt8optionalINS3_15EvaluationCacheEERT0_RKSS_INSt6chrono10time_pointINSY_3_V212steady_clockENSY_8durationIlSt5ratioILl1ELl1000000000EEEEEEEEUlmmE_EC2EONS0_15_Iter_comp_iterIS1A_EE
FN:187,189,_ZN9__gnu_cxx5__ops14_Iter_comp_valIZN4givp6detail28bidirectional_path_relinkingIZNS3_3runIRZL23CATCH2_INTERNAL_TEST_28vEUlRKSt6vectorIdSaIdEEE_EENS2_14OptimizeResultEOT_RKS6_ISt4pairIddESaISH_EENS2_10GivpConfigEEUlSA_E_NS3_3RngEEESG_IS8_dERKSE_SA_SA_mRSt8optionalINS3_15EvaluationCacheEERT0_RKSS_INSt6chrono10time_pointINSY_3_V212steady_clockENSY_8durationIlSt5ratioILl1ELl1000000000EEEEEEEEUlmmE_EC2EONS0_15_Iter_comp_iterIS1A_EE
FN:187,189,_ZN9__gnu_cxx5__ops14_Iter_comp_valIZN4givp6detail28bidirectional_path_relinkingIZNS3_3runIRZL23CATCH2_INTERNAL_TEST_42vEUlRKSt6vectorIdSaIdEEE_EENS2_14OptimizeResultEOT_RKS6_ISt4pairIddESaISH_EENS2_10GivpConfigEEUlSA_E_NS3_3RngEEESG_IS8_dERKSE_SA_SA_mRSt8optionalINS3_15EvaluationCacheEERT0_RKSS_INSt6chrono10time_pointINSY_3_V212steady_clockENSY_8durationIlSt5ratioILl1ELl1000000000EEEEEEEEUlmmE_EC2EONS0_15_Iter_comp_iterIS1A_EE
FN:187,189,_ZN9__gnu_cxx5__ops14_Iter_comp_valIZN4givp6detail28bidirectional_path_relinkingIZNS3_3runIRZL23CATCH2_INTERNAL_TEST_44vEUlRKSt6vectorIdSaIdEEE_EENS2_14OptimizeResultEOT_RKS6_ISt4pairIddESaISH_EENS2_10GivpConfigEEUlSA_E_NS3_3RngEEESG_IS8_dERKSE_SA_SA_mRSt8optionalINS3_15EvaluationCacheEERT0_RKSS_INSt6chrono10time_pointINSY_3_V212steady_clockENSY_8durationIlSt5ratioILl1ELl1000000000EEEEEEEEUlmmE_EC2EONS0_15_Iter_comp_iterIS1A_EE
FN:187,189,_ZN9__gnu_cxx5__ops14_Iter_comp_valIZN4givp6detail28bidirectional_path_relinkingIZNS3_3runIZL23CATCH2_INTERNAL_TEST_16vEUlRKSt6vectorIdSaIdEEE_EENS2_14OptimizeResultEOT_RKS6_ISt4pairIddESaISG_EENS2_10GivpConfigEEUlSA_E_NS3_3RngEEESF_IS8_dERKSD_SA_SA_mRSt8optionalINS3_15EvaluationCacheEERT0_RKSR_INSt6chrono10time_pointINSX_3_V212steady_clockENSX_8durationIlSt5ratioILl1ELl1000000000EEEEEEEEUlmmE_EC2EONS0_15_Iter_comp_iterIS19_EE
FN:187,189,_ZN9__gnu_cxx5__ops14_Iter_comp_valIZN4givp6detail28bidirectional_path_relinkingIZNS3_3runIZL23CATCH2_INTERNAL_TEST_18vEUlRKSt6vectorIdSaIdEEE_EENS2_14OptimizeResultEOT_RKS6_ISt4pairIddESaISG_EENS2_10GivpConfigEEUlSA_E_NS3_3RngEEESF_IS8_dERKSD_SA_SA_mRSt8optionalINS3_15EvaluationCacheEERT0_RKSR_INSt6chrono10time_pointINSX_3_V212steady_clockENSX_8durationIlSt5ratioILl1ELl1000000000EEEEEEEEUlmmE_EC2EONS0_15_Iter_comp_iterIS19_EE
FN:187,189,_ZN9__gnu_cxx5__ops14_Iter_comp_valIZN4givp6detail28bidirectional_path_relinkingIZNS3_3runIZL23CATCH2_INTERNAL_TEST_20vEUlRKSt6vectorIdSaIdEEE_EENS2_14OptimizeResultEOT_RKS6_ISt4pairIddESaISG_EENS2_10GivpConfigEEUlSA_E_NS3_3RngEEESF_IS8_dERKSD_SA_SA_mRSt8optionalINS3_15EvaluationCacheEERT0_RKSR_INSt6chrono10time_pointINSX_3_V212steady_clockENSX_8durationIlSt5ratioILl1ELl1000000000EEEEEEEEUlmmE_EC2EONS0_15_Iter_comp_iterIS19_EE
FN:187,189,_ZN9__gnu_cxx5__ops14_Iter_comp_valIZN4givp6detail28bidirectional_path_relinkingIZNS3_3runIZL23CATCH2_INTERNAL_TEST_22vEUlRKSt6vectorIdSaIdEEE_EENS2_14OptimizeResultEOT_RKS6_ISt4pairIddESaISG_EENS2_10GivpConfigEEUlSA_E_NS3_3RngEEESF_IS8_dERKSD_SA_SA_mRSt8optionalINS3_15EvaluationCacheEERT0_RKSR_INSt6chrono10time_pointINSX_3_V212steady_clockENSX_8durationIlSt5ratioILl1ELl1000000000EEEEEEEEUlmmE_EC2EONS0_15_Iter_comp_iterIS19_EE
FN:187,189,_ZN9__gnu_cxx5__ops14_Iter_comp_valIZN4givp6detail28bidirectional_path_relinkingIZNS3_3runIZL23CATCH2_INTERNAL_TEST_24vEUlRKSt6vectorIdSaIdEEE_EENS2_14OptimizeResultEOT_RKS6_ISt4pairIddESaISG_EENS2_10GivpConfigEEUlSA_E_NS3_3RngEEESF_IS8_dERKSD_SA_SA_mRSt8optionalINS3_15EvaluationCacheEERT0_RKSR_INSt6chrono10time_pointINSX_3_V212steady_clockENSX_8durationIlSt5ratioILl1ELl1000000000EEEEEEEEUlmmE_EC2EONS0_15_Iter_comp_iterIS19_EE
FN:187,189,_ZN9__gnu_cxx5__ops14_Iter_comp_valIZN4givp6detail9ElitePool3addESt6vectorIdSaIdEEdEUlRKT_RKT0_E0_EC2EONS0_15_Iter_comp_iterISE_EE
FN:187,189,_ZN9__gnu_cxx5__ops14_Iter_comp_valIZN4givp6detail9ElitePool3addESt6vectorIdSaIdEEdEUlRKT_RKT0_E_EC2EONS0_15_Iter_comp_iterISE_EE
FN:187,189,_ZN9__gnu_cxx5__ops14_Iter_comp_valIZN4givp6detailL17neighborhood_flipIZNS3_3runIRFdRKSt6vectorIdSaIdEEEEENS2_14OptimizeResultEOT_RKS6_ISt4pairIddESaISH_EENS2_10GivpConfigEEUlSA_E_NS3_3RngEEESG_IdbERS8_dRKSE_SQ_RT0_SA_SA_RSt8optionalINS3_15EvaluationCacheEEmRKSV_INSt6chrono10time_pointINSZ_3_V212steady_clockENSZ_8durationIlSt5ratioILl1ELl1000000000EEEEEEEEUlmmE_EC2EONS0_15_Iter_comp_iterIS1B_EE
FN:187,189,_ZN9__gnu_cxx5__ops14_Iter_comp_valIZN4givp6detailL17neighborhood_flipIZNS3_3runIRZL22CATCH2_INTERNAL_TEST_6vEUlRKSt6vectorIdSaIdEEE_EENS2_14OptimizeResultEOT_RKS6_ISt4pairIddESaISH_EENS2_10GivpConfigEEUlSA_E_NS3_3RngEEESG_IdbERS8_dRKSE_SQ_RT0_SA_SA_RSt8optionalINS3_15EvaluationCacheEEmRKSV_INSt6chrono10time_pointINSZ_3_V212steady_clockENSZ_8durationIlSt5ratioILl1ELl1000000000EEEEEEEEUlmmE_EC2EONS0_15_Iter_comp_iterIS1B_EE
FN:187,189,_ZN9__gnu_cxx5__ops14_Iter_comp_valIZN4givp6detailL17neighborhood_flipIZNS3_3runIRZL22CATCH2_INTERNAL_TEST_8vEUlRKSt6vectorIdSaIdEEE_EENS2_14OptimizeResultEOT_RKS6_ISt4pairIddESaISH_EENS2_10GivpConfigEEUlSA_E_NS3_3RngEEESG_IdbERS8_dRKSE_SQ_RT0_SA_SA_RSt8optionalINS3_15EvaluationCacheEEmRKSV_INSt6chrono10time_pointINSZ_3_V212steady_clockENSZ_8durationIlSt5ratioILl1ELl1000000000EEEEEEEEUlmmE_EC2EONS0_15_Iter_comp_iterIS1B_EE
FN:187,189,_ZN9__gnu_cxx5__ops14_Iter_comp_valIZN4givp6detailL17neighborhood_flipIZNS3_3runIRZL23CATCH2_INTERNAL_TEST_12vEUlRKSt6vectorIdSaIdEEE_EENS2_14OptimizeResultEOT_RKS6_ISt4pairIddESaISH_EENS2_10GivpConfigEEUlSA_E_NS3_3RngEEESG_IdbERS8_dRKSE_SQ_RT0_SA_SA_RSt8optionalINS3_15EvaluationCacheEEmRKSV_INSt6chrono10time_pointINSZ_3_V212steady_clockENSZ_8durationIlSt5ratioILl1ELl1000000000EEEEEEEEUlmmE_EC2EONS0_15_Iter_comp_iterIS1B_EE
FN:187,189,_ZN9__gnu_cxx5__ops14_Iter_comp_valIZN4givp6detailL17neighborhood_flipIZNS3_3runIRZL23CATCH2_INTERNAL_TEST_14vEUlRKSt6vectorIdSaIdEEE_EENS2_14OptimizeResultEOT_RKS6_ISt4pairIddESaISH_EENS2_10GivpConfigEEUlSA_E_NS3_3RngEEESG_IdbERS8_dRKSE_SQ_RT0_SA_SA_RSt8optionalINS3_15EvaluationCacheEEmRKSV_INSt6chrono10time_pointINSZ_3_V212steady_clockENSZ_8durationIlSt5ratioILl1ELl1000000000EEEEEEEEUlmmE_EC2EONS0_15_Iter_comp_iterIS1B_EE
FN:187,189,_ZN9__gnu_cxx5__ops14_Iter_comp_valIZN4givp6detailL17neighborhood_flipIZNS3_3runIRZL23CATCH2_INTERNAL_TEST_16vEUlRKSt6vectorIdSaIdEEE_EENS2_14OptimizeResultEOT_RKS6_ISt4pairIddESaISH_EENS2_10GivpConfigEEUlSA_E_NS3_3RngEEESG_IdbERS8_dRKSE_SQ_RT0_SA_SA_RSt8optionalINS3_15EvaluationCacheEEmRKSV_INSt6chrono10time_pointINSZ_3_V212steady_clockENSZ_8durationIlSt5ratioILl1ELl1000000000EEEEEEEEUlmmE_EC2EONS0_15_Iter_comp_iterIS1B_EE
FN:187,189,_ZN9__gnu_cxx5__ops14_Iter_comp_valIZN4givp6detailL17neighborhood_flipIZNS3_3runIRZL23CATCH2_INTERNAL_TEST_28vEUlRKSt6vectorIdSaIdEEE_EENS2_14OptimizeResultEOT_RKS6_ISt4pairIddESaISH_EENS2_10GivpConfigEEUlSA_E_NS3_3RngEEESG_IdbERS8_dRKSE_SQ_RT0_SA_SA_RSt8optionalINS3_15EvaluationCacheEEmRKSV_INSt6chrono10time_pointINSZ_3_V212steady_clockENSZ_8durationIlSt5ratioILl1ELl1000000000EEEEEEEEUlmmE_EC2EONS0_15_Iter_comp_iterIS1B_EE
FN:187,189,_ZN9__gnu_cxx5__ops14_Iter_comp_valIZN4givp6detailL17neighborhood_flipIZNS3_3runIRZL23CATCH2_INTERNAL_TEST_42vEUlRKSt6vectorIdSaIdEEE_EENS2_14OptimizeResultEOT_RKS6_ISt4pairIddESaISH_EENS2_10GivpConfigEEUlSA_E_NS3_3RngEEESG_IdbERS8_dRKSE_SQ_RT0_SA_SA_RSt8optionalINS3_15EvaluationCacheEEmRKSV_INSt6chrono10time_pointINSZ_3_V212steady_clockENSZ_8durationIlSt5ratioILl1ELl1000000000EEEEEEEEUlmmE_EC2EONS0_15_Iter_comp_iterIS1B_EE
FN:187,189,_ZN9__gnu_cxx5__ops14_Iter_comp_valIZN4givp6detailL17neighborhood_flipIZNS3_3runIRZL23CATCH2_INTERNAL_TEST_44vEUlRKSt6vectorIdSaIdEEE_EENS2_14OptimizeResultEOT_RKS6_ISt4pairIddESaISH_EENS2_10GivpConfigEEUlSA_E_NS3_3RngEEESG_IdbERS8_dRKSE_SQ_RT0_SA_SA_RSt8optionalINS3_15EvaluationCacheEEmRKSV_INSt6chrono10time_pointINSZ_3_V212steady_clockENSZ_8durationIlSt5ratioILl1ELl1000000000EEEEEEEEUlmmE_EC2EONS0_15_Iter_comp_iterIS1B_EE
FN:187,189,_ZN9__gnu_cxx5__ops14_Iter_comp_valIZN4givp6detailL17neighborhood_flipIZNS3_3runIZL23CATCH2_INTERNAL_TEST_16vEUlRKSt6vectorIdSaIdEEE_EENS2_14OptimizeResultEOT_RKS6_ISt4pairIddESaISG_EENS2_10GivpConfigEEUlSA_E_NS3_3RngEEESF_IdbERS8_dRKSD_SP_RT0_SA_SA_RSt8optionalINS3_15EvaluationCacheEEmRKSU_INSt6chrono10time_pointINSY_3_V212steady_clockENSY_8durationIlSt5ratioILl1ELl1000000000EEEEEEEEUlmmE_EC2EONS0_15_Iter_comp_iterIS1A_EE
FN:187,189,_ZN9__gnu_cxx5__ops14_Iter_comp_valIZN4givp6detailL17neighborhood_flipIZNS3_3runIZL23CATCH2_INTERNAL_TEST_18vEUlRKSt6vectorIdSaIdEEE_EENS2_14OptimizeResultEOT_RKS6_ISt4pairIddESaISG_EENS2_10GivpConfigEEUlSA_E_NS3_3RngEEESF_IdbERS8_dRKSD_SP_RT0_SA_SA_RSt8optionalINS3_15EvaluationCacheEEmRKSU_INSt6chrono10time_pointINSY_3_V212steady_clockENSY_8durationIlSt5ratioILl1ELl1000000000EEEEEEEEUlmmE_EC2EONS0_15_Iter_comp_iterIS1A_EE
FN:187,189,_ZN9__gnu_cxx5__ops14_Iter_comp_valIZN4givp6detailL17neighborhood_flipIZNS3_3runIZL23CATCH2_INTERNAL_TEST_20vEUlRKSt6vectorIdSaIdEEE_EENS2_14OptimizeResultEOT_RKS6_ISt4pairIddESaISG_EENS2_10GivpConfigEEUlSA_E_NS3_3RngEEESF_IdbERS8_dRKSD_SP_RT0_SA_SA_RSt8optionalINS3_15EvaluationCacheEEmRKSU_INSt6chrono10time_pointINSY_3_V212steady_clockENSY_8durationIlSt5ratioILl1ELl1000000000EEEEEEEEUlmmE_EC2EONS0_15_Iter_comp_iterIS1A_EE
FN:187,189,_ZN9__gnu_cxx5__ops14_Iter_comp_valIZN4givp6detailL17neighborhood_flipIZNS3_3runIZL23CATCH2_INTERNAL_TEST_22vEUlRKSt6vectorIdSaIdEEE_EENS2_14OptimizeResultEOT_RKS6_ISt4pairIddESaISG_EENS2_10GivpConfigEEUlSA_E_NS3_3RngEEESF_IdbERS8_dRKSD_SP_RT0_SA_SA_RSt8optionalINS3_15EvaluationCacheEEmRKSU_INSt6chrono10time_pointINSY_3_V212steady_clockENSY_8durationIlSt5ratioILl1ELl1000000000EEEEEEEEUlmmE_EC2EONS0_15_Iter_comp_iterIS1A_EE
FN:187,189,_ZN9__gnu_cxx5__ops14_Iter_comp_valIZN4givp6detailL17neighborhood_flipIZNS3_3runIZL23CATCH2_INTERNAL_TEST_24vEUlRKSt6vectorIdSaIdEEE_EENS2_14OptimizeResultEOT_RKS6_ISt4pairIddESaISG_EENS2_10GivpConfigEEUlSA_E_NS3_3RngEEESF_IdbERS8_dRKSD_SP_RT0_SA_SA_RSt8optionalINS3_15EvaluationCacheEEmRKSU_INSt6chrono10time_pointINSY_3_V212steady_clockENSY_8durationIlSt5ratioILl1ELl1000000000EEEEEEEEUlmmE_EC2EONS0_15_Iter_comp_iterIS1A_EE
FN:187,189,_ZN9__gnu_cxx5__ops14_Iter_comp_valIZN5Catch9sortTestsERKNS2_7IConfigERKSt6vectorINS2_14TestCaseHandleESaIS7_EEEUlRKS7_SD_E_EC2EONS0_15_Iter_comp_iterISE_EE
FN:187,189,_ZN9__gnu_cxx5__ops14_Iter_comp_valIZN5Catch9sortTestsERKNS2_7IConfigERKSt6vectorINS2_14TestCaseHandleESaIS7_EEEUlRKSt4pairImS7_ESF_E_EC2EONS0_15_Iter_comp_iterISG_EE
FN:195,196,_ZN9__gnu_cxx5__ops14_Iter_comp_valIZN4givp6detail28bidirectional_path_relinkingIZL23CATCH2_INTERNAL_TEST_38vEUlRKSt6vectorIdSaIdEEE_NS3_3RngEEESt4pairIS7_dERKT_S9_S9_mRSt8optionalINS3_15EvaluationCacheEERT0_RKSH_INSt6chrono10time_pointINSN_3_V212steady_clockENSN_8durationIlSt5ratioILl1ELl1000000000EEEEEEEEUlmmE_EclINS_17__normal_iteratorIPmS5_ImSaImEEEEmEEbSE_SM_
FN:195,196,_ZN9__gnu_cxx5__ops14_Iter_comp_valIZN4givp6detail28bidirectional_path_relinkingIZL23CATCH2_INTERNAL_TEST_40vEUlRKSt6vectorIdSaIdEEE_NS3_3RngEEESt4pairIS7_dERKT_S9_S9_mRSt8optionalINS3_15EvaluationCacheEERT0_RKSH_INSt6chrono10time_pointINSN_3_V212steady_clockENSN_8durationIlSt5ratioILl1ELl1000000000EEEEEEEEUlmmE_EclINS_17__normal_iteratorIPmS5_ImSaImEEEEmEEbSE_SM_
FN:195,196,_ZN9__gnu_cxx5__ops14_Iter_comp_valIZN4givp6detail28bidirectional_path_relinkingIZNS3_3runIRFdRKSt6vectorIdSaIdEEEEENS2_14OptimizeResultEOT_RKS6_ISt4pairIddESaISH_EENS2_10GivpConfigEEUlSA_E_NS3_3RngEEESG_IS8_dERKSE_SA_SA_mRSt8optionalINS3_15EvaluationCacheEERT0_RKSS_INSt6chrono10time_pointINSY_3_V212steady_clockENSY_8durationIlSt5ratioILl1ELl1000000000EEEEEEEEUlmmE_EclINS_17__normal_iteratorIPmS6_ImSaImEEEEmEEbSE_SX_
FN:195,196,_ZN9__gnu_cxx5__ops14_Iter_comp_valIZN4givp6detail28bidirectional_path_relinkingIZNS3_3runIRZL22CATCH2_INTERNAL_TEST_6vEUlRKSt6vectorIdSaIdEEE_EENS2_14OptimizeResultEOT_RKS6_ISt4pairIddESaISH_EENS2_10GivpConfigEEUlSA_E_NS3_3RngEEESG_IS8_dERKSE_SA_SA_mRSt8optionalINS3_15EvaluationCacheEERT0_RKSS_INSt6chrono10time_pointINSY_3_V212steady_clockENSY_8durationIlSt5ratioILl1ELl1000000000EEEEEEEEUlmmE_EclINS_17__normal_iteratorIPmS6_ImSaImEEEEmEEbSE_SX_
FN:195,196,_ZN9__gnu_cxx5__ops14_Iter_comp_valIZN4givp6detail28bidirectional_path_relinkingIZNS3_3runIRZL22CATCH2_INTERNAL_TEST_8vEUlRKSt6vectorIdSaIdEEE_EENS2_14OptimizeResultEOT_RKS6_ISt4pairIddESaISH_EENS2_10GivpConfigEEUlSA_E_NS3_3RngEEESG_IS8_dERKSE_SA_SA_mRSt8optionalINS3_15EvaluationCacheEERT0_RKSS_INSt6chrono10time_pointINSY_3_V212steady_clockENSY_8durationIlSt5ratioILl1ELl1000000000EEEEEEEEUlmmE_EclINS_17__normal_iteratorIPmS6_ImSaImEEEEmEEbSE_SX_
FN:195,196,_ZN9__gnu_cxx5__ops14_Iter_comp_valIZN4givp6detail28bidirectional_path_relinkingIZNS3_3runIRZL23CATCH2_INTERNAL_TEST_12vEUlRKSt6vectorIdSaIdEEE_EENS2_14OptimizeResultEOT_RKS6_ISt4pairIddESaISH_EENS2_10GivpConfigEEUlSA_E_NS3_3RngEEESG_IS8_dERKSE_SA_SA_mRSt8optionalINS3_15EvaluationCacheEERT0_RKSS_INSt6chrono10time_pointINSY_3_V212steady_clockENSY_8durationIlSt5ratioILl1ELl1000000000EEEEEEEEUlmmE_EclINS_17__normal_iteratorIPmS6_ImSaImEEEEmEEbSE_SX_
FN:195,196,_ZN9__gnu_cxx5__ops14_Iter_comp_valIZN4givp6detail28bidirectional_path_relinkingIZNS3_3runIRZL23CATCH2_INTERNAL_TEST_14vEUlRKSt6vectorIdSaIdEEE_EENS2_14OptimizeResultEOT_RKS6_ISt4pairIddESaISH_EENS2_10GivpConfigEEUlSA_E_NS3_3RngEEESG_IS8_dERKSE_SA_SA_mRSt8optionalINS3_15EvaluationCacheEERT0_RKSS_INSt6chrono10time_pointINSY_3_V212steady_clockENSY_8durationIlSt5ratioILl1ELl1000000000EEEEEEEEUlmmE_EclINS_17__normal_iteratorIPmS6_ImSaImEEEEmEEbSE_SX_
FN:195,196,_ZN9__gnu_cxx5__ops14_Iter_comp_valIZN4givp6detail28bidirectional_path_relinkingIZNS3_3runIRZL23CATCH2_INTERNAL_TEST_16vEUlRKSt6vectorIdSaIdEEE_EENS2_14OptimizeResultEOT_RKS6_ISt4pairIddESaISH_EENS2_10GivpConfigEEUlSA_E_NS3_3RngEEESG_IS8_dERKSE_SA_SA_mRSt8optionalINS3_15EvaluationCacheEERT0_RKSS_INSt6chrono10time_pointINSY_3_V212steady_clockENSY_8durationIlSt5ratioILl1ELl1000000000EEEEEEEEUlmmE_EclINS_17__normal_iteratorIPmS6_ImSaImEEEEmEEbSE_SX_
FN:195,196,_ZN9__gnu_cxx5__ops14_Iter_comp_valIZN4givp6detail28bidirectional_path_relinkingIZNS3_3runIRZL23CATCH2_INTERNAL_TEST_28vEUlRKSt6vectorIdSaIdEEE_EENS2_14OptimizeResultEOT_RKS6_ISt4pairIddESaISH_EENS2_10GivpConfigEEUlSA_E_NS3_3RngEEESG_IS8_dERKSE_SA_SA_mRSt8optionalINS3_15EvaluationCacheEERT0_RKSS_INSt6chrono10time_pointINSY_3_V212steady_clockENSY_8durationIlSt5ratioILl1ELl1000000000EEEEEEEEUlmmE_EclINS_17__normal_iteratorIPmS6_ImSaImEEEEmEEbSE_SX_
FN:195,196,_ZN9__gnu_cxx5__ops14_Iter_comp_valIZN4givp6detail28bidirectional_path_relinkingIZNS3_3runIRZL23CATCH2_INTERNAL_TEST_42vEUlRKSt6vectorIdSaIdEEE_EENS2_14OptimizeResultEOT_RKS6_ISt4pairIddESaISH_EENS2_10GivpConfigEEUlSA_E_NS3_3RngEEESG_IS8_dERKSE_SA_SA_mRSt8optionalINS3_15EvaluationCacheEERT0_RKSS_INSt6chrono10time_pointINSY_3_V212steady_clockENSY_8durationIlSt5ratioILl1ELl1000000000EEEEEEEEUlmmE_EclINS_17__normal_iteratorIPmS6_ImSaImEEEEmEEbSE_SX_
FN:195,196,_ZN9__gnu_cxx5__ops14_Iter_comp_valIZN4givp6detail28bidirectional_path_relinkingIZNS3_3runIRZL23CATCH2_INTERNAL_TEST_44vEUlRKSt6vectorIdSaIdEEE_EENS2_14OptimizeResultEOT_RKS6_ISt4pairIddESaISH_EENS2_10GivpConfigEEUlSA_E_NS3_3RngEEESG_IS8_dERKSE_SA_SA_mRSt8optionalINS3_15EvaluationCacheEERT0_RKSS_INSt6chrono10time_pointINSY_3_V212steady_clockENSY_8durationIlSt5ratioILl1ELl1000000000EEEEEEEEUlmmE_EclINS_17__normal_iteratorIPmS6_ImSaImEEEEmEEbSE_SX_
FN:195,196,_ZN9__gnu_cxx5__ops14_Iter_comp_valIZN4givp6detail28bidirectional_path_relinkingIZNS3_3runIZL23CATCH2_INTERNAL_TEST_16vEUlRKSt6vectorIdSaIdEEE_EENS2_14OptimizeResultEOT_RKS6_ISt4pairIddESaISG_EENS2_10GivpConfigEEUlSA_E_NS3_3RngEEESF_IS8_dERKSD_SA_SA_mRSt8optionalINS3_15EvaluationCacheEERT0_RKSR_INSt6chrono10time_pointINSX_3_V212steady_clockENSX_8durationIlSt5ratioILl1ELl1000000000EEEEEEEEUlmmE_EclINS_17__normal_iteratorIPmS6_ImSaImEEEEmEEbSD_SW_
FN:195,196,_ZN9__gnu_cxx5__ops14_Iter_comp_valIZN4givp6detail28bidirectional_path_relinkingIZNS3_3runIZL23CATCH2_INTERNAL_TEST_18vEUlRKSt6vectorIdSaIdEEE_EENS2_14OptimizeResultEOT_RKS6_ISt4pairIddESaISG_EENS2_10GivpConfigEEUlSA_E_NS3_3RngEEESF_IS8_dERKSD_SA_SA_mRSt8optionalINS3_15EvaluationCacheEERT0_RKSR_INSt6chrono10time_pointINSX_3_V212steady_clockENSX_8durationIlSt5ratioILl1ELl1000000000EEEEEEEEUlmmE_EclINS_17__normal_iteratorIPmS6_ImSaImEEEEmEEbSD_SW_
FN:195,196,_ZN9__gnu_cxx5__ops14_Iter_comp_valIZN4givp6detail28bidirectional_path_relinkingIZNS3_3runIZL23CATCH2_INTERNAL_TEST_20vEUlRKSt6vectorIdSaIdEEE_EENS2_14OptimizeResultEOT_RKS6_ISt4pairIddESaISG_EENS2_10GivpConfigEEUlSA_E_NS3_3RngEEESF_IS8_dERKSD_SA_SA_mRSt8optionalINS3_15EvaluationCacheEERT0_RKSR_INSt6chrono10time_pointINSX_3_V212steady_clockENSX_8durationIlSt5ratioILl1ELl1000000000EEEEEEEEUlmmE_EclINS_17__normal_iteratorIPmS6_ImSaImEEEEmEEbSD_SW_
FN:195,196,_ZN9__gnu_cxx5__ops14_Iter_comp_valIZN4givp6detail28bidirectional_path_relinkingIZNS3_3runIZL23CATCH2_INTERNAL_TEST_22vEUlRKSt6vectorIdSaIdEEE_EENS2_14OptimizeResultEOT_RKS6_ISt4pairIddESaISG_EENS2_10GivpConfigEEUlSA_E_NS3_3RngEEESF_IS8_dERKSD_SA_SA_mRSt8optionalINS3_15EvaluationCacheEERT0_RKSR_INSt6chrono10time_pointINSX_3_V212steady_clockENSX_8durationIlSt5ratioILl1ELl1000000000EEEEEEEEUlmmE_EclINS_17__normal_iteratorIPmS6_ImSaImEEEEmEEbSD_SW_
FN:195,196,_ZN9__gnu_cxx5__ops14_Iter_comp_valIZN4givp6detail28bidirectional_path_relinkingIZNS3_3runIZL23CATCH2_INTERNAL_TEST_24vEUlRKSt6vectorIdSaIdEEE_EENS2_14OptimizeResultEOT_RKS6_ISt4pairIddESaISG_EENS2_10GivpConfigEEUlSA_E_NS3_3RngEEESF_IS8_dERKSD_SA_SA_mRSt8optionalINS3_15EvaluationCacheEERT0_RKSR_INSt6chrono10time_pointINSX_3_V212steady_clockENSX_8durationIlSt5ratioILl1ELl1000000000EEEEEEEEUlmmE_EclINS_17__normal_iteratorIPmS6_ImSaImEEEEmEEbSD_SW_
FN:195,196,_ZN9__gnu_cxx5__ops14_Iter_comp_valIZN4givp6detail9ElitePool3addESt6vectorIdSaIdEEdEUlRKT_RKT0_E0_EclINS_17__normal_iteratorIPSt4pairIS7_dES5_ISJ_SaISJ_EEEESJ_EEbS8_RSB_
FN:195,196,_ZN9__gnu_cxx5__ops14_Iter_comp_valIZN4givp6detail9ElitePool3addESt6vectorIdSaIdEEdEUlRKT_RKT0_E_EclINS_17__normal_iteratorIPSt4pairIS7_dES5_ISJ_SaISJ_EEEESJ_EEbS8_RSB_
FN:195,196,_ZN9__gnu_cxx5__ops14_Iter_comp_valIZN4givp6detailL17neighborhood_flipIZNS3_3runIRFdRKSt6vectorIdSaIdEEEEENS2_14OptimizeResultEOT_RKS6_ISt4pairIddESaISH_EENS2_10GivpConfigEEUlSA_E_NS3_3RngEEESG_IdbERS8_dRKSE_SQ_RT0_SA_SA_RSt8optionalINS3_15EvaluationCacheEEmRKSV_INSt6chrono10time_pointINSZ_3_V212steady_clockENSZ_8durationIlSt5ratioILl1ELl1000000000EEEEEEEEUlmmE_EclINS_17__normal_iteratorIPmS6_ImSaImEEEEmEEbSE_SU_
FN:195,196,_ZN9__gnu_cxx5__ops14_Iter_comp_valIZN4givp6detailL17neighborhood_flipIZNS3_3runIRZL22CATCH2_INTERNAL_TEST_6vEUlRKSt6vectorIdSaIdEEE_EENS2_14OptimizeResultEOT_RKS6_ISt4pairIddESaISH_EENS2_10GivpConfigEEUlSA_E_NS3_3RngEEESG_IdbERS8_dRKSE_SQ_RT0_SA_SA_RSt8optionalINS3_15EvaluationCacheEEmRKSV_INSt6chrono10time_pointINSZ_3_V212steady_clockENSZ_8durationIlSt5ratioILl1ELl1000000000EEEEEEEEUlmmE_EclINS_17__normal_iteratorIPmS6_ImSaImEEEEmEEbSE_SU_
FN:195,196,_ZN9__gnu_cxx5__ops14_Iter_comp_valIZN4givp6detailL17neighborhood_flipIZNS3_3runIRZL22CATCH2_INTERNAL_TEST_8vEUlRKSt6vectorIdSaIdEEE_EENS2_14OptimizeResultEOT_RKS6_ISt4pairIddESaISH_EENS2_10GivpConfigEEUlSA_E_NS3_3RngEEESG_IdbERS8_dRKSE_SQ_RT0_SA_SA_RSt8optionalINS3_15EvaluationCacheEEmRKSV_INSt6chrono10time_pointINSZ_3_V212steady_clockENSZ_8durationIlSt5ratioILl1ELl1000000000EEEEEEEEUlmmE_EclINS_17__normal_iteratorIPmS6_ImSaImEEEEmEEbSE_SU_
FN:195,196,_ZN9__gnu_cxx5__ops14_Iter_comp_valIZN4givp6detailL17neighborhood_flipIZNS3_3runIRZL23CATCH2_INTERNAL_TEST_12vEUlRKSt6vectorIdSaIdEEE_EENS2_14OptimizeResultEOT_RKS6_ISt4pairIddESaISH_EENS2_10GivpConfigEEUlSA_E_NS3_3RngEEESG_IdbERS8_dRKSE_SQ_RT0_SA_SA_RSt8optionalINS3_15EvaluationCacheEEmRKSV_INSt6chrono10time_pointINSZ_3_V212steady_clockENSZ_8durationIlSt5ratioILl1ELl1000000000EEEEEEEEUlmmE_EclINS_17__normal_iteratorIPmS6_ImSaImEEEEmEEbSE_SU_
FN:195,196,_ZN9__gnu_cxx5__ops14_Iter_comp_valIZN4givp6detailL17neighborhood_flipIZNS3_3runIRZL23CATCH2_INTERNAL_TEST_14vEUlRKSt6vectorIdSaIdEEE_EENS2_14OptimizeResultEOT_RKS6_ISt4pairIddESaISH_EENS2_10GivpConfigEEUlSA_E_NS3_3RngEEESG_IdbERS8_dRKSE_SQ_RT0_SA_SA_RSt8optionalINS3_15EvaluationCacheEEmRKSV_INSt6chrono10time_pointINSZ_3_V212steady_clockENSZ_8durationIlSt5ratioILl1ELl1000000000EEEEEEEEUlmmE_EclINS_17__normal_iteratorIPmS6_ImSaImEEEEmEEbSE_SU_
FN:195,196,_ZN9__gnu_cxx5__ops14_Iter_comp_valIZN4givp6detailL17neighborhood_flipIZNS3_3runIRZL23CATCH2_INTERNAL_TEST_16vEUlRKSt6vectorIdSaIdEEE_EENS2_14OptimizeResultEOT_RKS6_ISt4pairIddESaISH_EENS2_10GivpConfigEEUlSA_E_NS3_3RngEEESG_IdbERS8_dRKSE_SQ_RT0_SA_SA_RSt8optionalINS3_15EvaluationCacheEEmRKSV_INSt6chrono10time_pointINSZ_3_V212steady_clockENSZ_8durationIlSt5ratioILl1ELl1000000000EEEEEEEEUlmmE_EclINS_17__normal_iteratorIPmS6_ImSaImEEEEmEEbSE_SU_
FN:195,196,_ZN9__gnu_cxx5__ops14_Iter_comp_valIZN4givp6detailL17neighborhood_flipIZNS3_3runIRZL23CATCH2_INTERNAL_TEST_28vEUlRKSt6vectorIdSaIdEEE_EENS2_14OptimizeResultEOT_RKS6_ISt4pairIddESaISH_EENS2_10GivpConfigEEUlSA_E_NS3_3RngEEESG_IdbERS8_dRKSE_SQ_RT0_SA_SA_RSt8optionalINS3_15EvaluationCacheEEmRKSV_INSt6chrono10time_pointINSZ_3_V212steady_clockENSZ_8durationIlSt5ratioILl1ELl1000000000EEEEEEEEUlmmE_EclINS_17__normal_iteratorIPmS6_ImSaImEEEEmEEbSE_SU_
FN:195,196,_ZN9__gnu_cxx5__ops14_Iter_comp_valIZN4givp6detailL17neighborhood_flipIZNS3_3runIRZL23CATCH2_INTERNAL_TEST_42vEUlRKSt6vectorIdSaIdEEE_EENS2_14OptimizeResultEOT_RKS6_ISt4pairIddESaISH_EENS2_10GivpConfigEEUlSA_E_NS3_3RngEEESG_IdbERS8_dRKSE_SQ_RT0_SA_SA_RSt8optionalINS3_15EvaluationCacheEEmRKSV_INSt6chrono10time_pointINSZ_3_V212steady_clockENSZ_8durationIlSt5ratioILl1ELl1000000000EEEEEEEEUlmmE_EclINS_17__normal_iteratorIPmS6_ImSaImEEEEmEEbSE_SU_
FN:195,196,_ZN9__gnu_cxx5__ops14_Iter_comp_valIZN4givp6detailL17neighborhood_flipIZNS3_3runIRZL23CATCH2_INTERNAL_TEST_44vEUlRKSt6vectorIdSaIdEEE_EENS2_14OptimizeResultEOT_RKS6_ISt4pairIddESaISH_EENS2_10GivpConfigEEUlSA_E_NS3_3RngEEESG_IdbERS8_dRKSE_SQ_RT0_SA_SA_RSt8optionalINS3_15EvaluationCacheEEmRKSV_INSt6chrono10time_pointINSZ_3_V212steady_clockENSZ_8durationIlSt5ratioILl1ELl1000000000EEEEEEEEUlmmE_EclINS_17__normal_iteratorIPmS6_ImSaImEEEEmEEbSE_SU_
FN:195,196,_ZN9__gnu_cxx5__ops14_Iter_comp_valIZN4givp6detailL17neighborhood_flipIZNS3_3runIZL23CATCH2_INTERNAL_TEST_16vEUlRKSt6vectorIdSaIdEEE_EENS2_14OptimizeResultEOT_RKS6_ISt4pairIddESaISG_EENS2_10GivpConfigEEUlSA_E_NS3_3RngEEESF_IdbERS8_dRKSD_SP_RT0_SA_SA_RSt8optionalINS3_15EvaluationCacheEEmRKSU_INSt6chrono10time_pointINSY_3_V212steady_clockENSY_8durationIlSt5ratioILl1ELl1000000000EEEEEEEEUlmmE_EclINS_17__normal_iteratorIPmS6_ImSaImEEEEmEEbSD_ST_
FN:195,196,_ZN9__gnu_cxx5__ops14_Iter_comp_valIZN4givp6detailL17neighborhood_flipIZNS3_3runIZL23CATCH2_INTERNAL_TEST_18vEUlRKSt6vectorIdSaIdEEE_EENS2_14OptimizeResultEOT_RKS6_ISt4pairIddESaISG_EENS2_10GivpConfigEEUlSA_E_NS3_3RngEEESF_IdbERS8_dRKSD_SP_RT0_SA_SA_RSt8optionalINS3_15EvaluationCacheEEmRKSU_INSt6chrono10time_pointINSY_3_V212steady_clockENSY_8durationIlSt5ratioILl1ELl1000000000EEEEEEEEUlmmE_EclINS_17__normal_iteratorIPmS6_ImSaImEEEEmEEbSD_ST_
FN:195,196,_ZN9__gnu_cxx5__ops14_Iter_comp_valIZN4givp6detailL17neighborhood_flipIZNS3_3runIZL23CATCH2_INTERNAL_TEST_20vEUlRKSt6vectorIdSaIdEEE_EENS2_14OptimizeResultEOT_RKS6_ISt4pairIddESaISG_EENS2_10GivpConfigEEUlSA_E_NS3_3RngEEESF_IdbERS8_dRKSD_SP_RT0_SA_SA_RSt8optionalINS3_15EvaluationCacheEEmRKSU_INSt6chrono10time_pointINSY_3_V212steady_clockENSY_8durationIlSt5ratioILl1ELl1000000000EEEEEEEEUlmmE_EclINS_17__normal_iteratorIPmS6_ImSaImEEEEmEEbSD_ST_
FN:195,196,_ZN9__gnu_cxx5__ops14_Iter_comp_valIZN4givp6detailL17neighborhood_flipIZNS3_3runIZL23CATCH2_INTERNAL_TEST_22vEUlRKSt6vectorIdSaIdEEE_EENS2_14OptimizeResultEOT_RKS6_ISt4pairIddESaISG_EENS2_10GivpConfigEEUlSA_E_NS3_3RngEEESF_IdbERS8_dRKSD_SP_RT0_SA_SA_RSt8optionalINS3_15EvaluationCacheEEmRKSU_INSt6chrono10time_pointINSY_3_V212steady_clockENSY_8durationIlSt5ratioILl1ELl1000000000EEEEEEEEUlmmE_EclINS_17__normal_iteratorIPmS6_ImSaImEEEEmEEbSD_ST_
FN:195,196,_ZN9__gnu_cxx5__ops14_Iter_comp_valIZN4givp6detailL17neighborhood_flipIZNS3_3runIZL23CATCH2_INTERNAL_TEST_24vEUlRKSt6vectorIdSaIdEEE_EENS2_14OptimizeResultEOT_RKS6_ISt4pairIddESaISG_EENS2_10GivpConfigEEUlSA_E_NS3_3RngEEESF_IdbERS8_dRKSD_SP_RT0_SA_SA_RSt8optionalINS3_15EvaluationCacheEEmRKSU_INSt6chrono10time_pointINSY_3_V212steady_clockENSY_8durationIlSt5ratioILl1ELl1000000000EEEEEEEEUlmmE_EclINS_17__normal_iteratorIPmS6_ImSaImEEEEmEEbSD_ST_
FN:195,196,_ZN9__gnu_cxx5__ops14_Iter_comp_valIZN5Catch9sortTestsERKNS2_7IConfigERKSt6vectorINS2_14TestCaseHandleESaIS7_EEEUlRKS7_SD_E_EclINS_17__normal_iteratorIPS7_S9_EES7_EEbT_RT0_
FN:195,196,_ZN9__gnu_cxx5__ops14_Iter_comp_valIZN5Catch9sortTestsERKNS2_7IConfigERKSt6vectorINS2_14TestCaseHandleESaIS7_EEEUlRKSt4pairImS7_ESF_E_EclINS_17__normal_iteratorIPSD_S6_ISD_SaISD_EEEESD_EEbT_RT0_
FN:231,233,_ZN9__gnu_cxx5__ops14_Val_comp_iterIZN4givp6detail28bidirectional_path_relinkingIZL23CATCH2_INTERNAL_TEST_38vEUlRKSt6vectorIdSaIdEEE_NS3_3RngEEESt4pairIS7_dERKT_S9_S9_mRSt8optionalINS3_15EvaluationCacheEERT0_RKSH_INSt6chrono10time_pointINSN_3_V212steady_clockENSN_8durationIlSt5ratioILl1ELl1000000000EEEEEEEEUlmmE_EC2EONS0_15_Iter_comp_iterISZ_EE
FN:231,233,_ZN9__gnu_cxx5__ops14_Val_comp_iterIZN4givp6detail28bidirectional_path_relinkingIZL23CATCH2_INTERNAL_TEST_40vEUlRKSt6vectorIdSaIdEEE_NS3_3RngEEESt4pairIS7_dERKT_S9_S9_mRSt8optionalINS3_15EvaluationCacheEERT0_RKSH_INSt6chrono10time_pointINSN_3_V212steady_clockENSN_8durationIlSt5ratioILl1ELl1000000000EEEEEEEEUlmmE_EC2EONS0_15_Iter_comp_iterISZ_EE
FN:231,233,_ZN9__gnu_cxx5__ops14_Val_comp_iterIZN4givp6detail28bidirectional_path_relinkingIZNS3_3runIRFdRKSt6vectorIdSaIdEEEEENS2_14OptimizeResultEOT_RKS6_ISt4pairIddESaISH_EENS2_10GivpConfigEEUlSA_E_NS3_3RngEEESG_IS8_dERKSE_SA_SA_mRSt8optionalINS3_15EvaluationCacheEERT0_RKSS_INSt6chrono10time_pointINSY_3_V212steady_clockENSY_8durationIlSt5ratioILl1ELl1000000000EEEEEEEEUlmmE_EC2EONS0_15_Iter_comp_iterIS1A_EE
FN:231,233,_ZN9__gnu_cxx5__ops14_Val_comp_iterIZN4givp6detail28bidirectional_path_relinkingIZNS3_3runIRZL22CATCH2_INTERNAL_TEST_6vEUlRKSt6vectorIdSaIdEEE_EENS2_14OptimizeResultEOT_RKS6_ISt4pairIddESaISH_EENS2_10GivpConfigEEUlSA_E_NS3_3RngEEESG_IS8_dERKSE_SA_SA_mRSt8optionalINS3_15EvaluationCacheEERT0_RKSS_INSt6chrono10time_pointINSY_3_V212steady_clockENSY_8durationIlSt5ratioILl1ELl1000000000EEEEEEEEUlmmE_EC2EONS0_15_Iter_comp_iterIS1A_EE
FN:231,233,_ZN9__gnu_cxx5__ops14_Val_comp_iterIZN4givp6detail28bidirectional_path_relinkingIZNS3_3runIRZL22CATCH2_INTERNAL_TEST_8vEUlRKSt6vectorIdSaIdEEE_EENS2_14OptimizeResultEOT_RKS6_ISt4pairIddESaISH_EENS2_10GivpConfigEEUlSA_E_NS3_3RngEEESG_IS8_dERKSE_SA_SA_mRSt8optionalINS3_15EvaluationCacheEERT0_RKSS_INSt6chrono10time_pointINSY_3_V212steady_clockENSY_8durationIlSt5ratioILl1ELl1000000000EEEEEEEEUlmmE_EC2EONS0_15_Iter_comp_iterIS1A_EE
FN:231,233,_ZN9__gnu_cxx5__ops14_Val_comp_iterIZN4givp6detail28bidirectional_path_relinkingIZNS3_3runIRZL23CATCH2_INTERNAL_TEST_12vEUlRKSt6vectorIdSaIdEEE_EENS2_14OptimizeResultEOT_RKS6_ISt4pairIddESaISH_EENS2_10GivpConfigEEUlSA_E_NS3_3RngEEESG_IS8_dERKSE_SA_SA_mRSt8optionalINS3_15EvaluationCacheEERT0_RKSS_INSt6chrono10time_pointINSY_3_V212steady_clockENSY_8durationIlSt5ratioILl1ELl1000000000EEEEEEEEUlmmE_EC2EONS0_15_Iter_comp_iterIS1A_EE
FN:231,233,_ZN9__gnu_cxx5__ops14_Val_comp_iterIZN4givp6detail28bidirectional_path_relinkingIZNS3_3runIRZL23CATCH2_INTERNAL_TEST_14vEUlRKSt6vectorIdSaIdEEE_EENS2_14OptimizeResultEOT_RKS6_ISt4pairIddESaISH_EENS2_10GivpConfigEEUlSA_E_NS3_3RngEEESG_IS8_dERKSE_SA_SA_mRSt8optionalINS3_15EvaluationCacheEERT0_RKSS_INSt6chrono10time_pointINSY_3_V212steady_clockENSY_8durationIlSt5ratioILl1ELl1000000000EEEEEEEEUlmmE_EC2EONS0_15_Iter_comp_iterIS1A_EE
FN:231,233,_ZN9__gnu_cxx5__ops14_Val_comp_iterIZN4givp6detail28bidirectional_path_relinkingIZNS3_3runIRZL23CATCH2_INTERNAL_TEST_16vEUlRKSt6vectorIdSaIdEEE_EENS2_14OptimizeResultEOT_RKS6_ISt4pairIddESaISH_EENS2_10GivpConfigEEUlSA_E_NS3_3RngEEESG_IS8_dERKSE_SA_SA_mRSt8optionalINS3_15EvaluationCacheEERT0_RKSS_INSt6chrono10time_pointINSY_3_V212steady_clockENSY_8durationIlSt5ratioILl1ELl1000000000EEEEEEEEUlmmE_EC2EONS0_15_Iter_comp_iterIS1A_EE
FN:231,233,_ZN9__gnu_cxx5__ops14_Val_comp_iterIZN4givp6detail28bidirectional_path_relinkingIZNS3_3runIRZL23CATCH2_INTERNAL_TEST_28vEUlRKSt6vectorIdSaIdEEE_EENS2_14OptimizeResultEOT_RKS6_ISt4pairIddESaISH_EENS2_10GivpConfigEEUlSA_E_NS3_3RngEEESG_IS8_dERKSE_SA_SA_mRSt8optionalINS3_15EvaluationCacheEERT0_RKSS_INSt6chrono10time_pointINSY_3_V212steady_clockENSY_8durationIlSt5ratioILl1ELl1000000000EEEEEEEEUlmmE_EC2EONS0_15_Iter_comp_iterIS1A_EE
FN:231,233,_ZN9__gnu_cxx5__ops14_Val_comp_iterIZN4givp6detail28bidirectional_path_relinkingIZNS3_3runIRZL23CATCH2_INTERNAL_TEST_42vEUlRKSt6vectorIdSaIdEEE_EENS2_14OptimizeResultEOT_RKS6_ISt4pairIddESaISH_EENS2_10GivpConfigEEUlSA_E_NS3_3RngEEESG_IS8_dERKSE_SA_SA_mRSt8optionalINS3_15EvaluationCacheEERT0_RKSS_INSt6chrono10time_pointINSY_3_V212steady_clockENSY_8durationIlSt5ratioILl1ELl1000000000EEEEEEEEUlmmE_EC2EONS0_15_Iter_comp_iterIS1A_EE
FN:231,233,_ZN9__gnu_cxx5__ops14_Val_comp_iterIZN4givp6detail28bidirectional_path_relinkingIZNS3_3runIRZL23CATCH2_INTERNAL_TEST_44vEUlRKSt6vectorIdSaIdEEE_EENS2_14OptimizeResultEOT_RKS6_ISt4pairIddESaISH_EENS2_10GivpConfigEEUlSA_E_NS3_3RngEEESG_IS8_dERKSE_SA_SA_mRSt8optionalINS3_15EvaluationCacheEERT0_RKSS_INSt6chrono10time_pointINSY_3_V212steady_clockENSY_8durationIlSt5ratioILl1ELl1000000000EEEEEEEEUlmmE_EC2EONS0_15_Iter_comp_iterIS1A_EE
FN:231,233,_ZN9__gnu_cxx5__ops14_Val_comp_iterIZN4givp6detail28bidirectional_path_relinkingIZNS3_3runIZL23CATCH2_INTERNAL_TEST_16vEUlRKSt6vectorIdSaIdEEE_EENS2_14OptimizeResultEOT_RKS6_ISt4pairIddESaISG_EENS2_10GivpConfigEEUlSA_E_NS3_3RngEEESF_IS8_dERKSD_SA_SA_mRSt8optionalINS3_15EvaluationCacheEERT0_RKSR_INSt6chrono10time_pointINSX_3_V212steady_clockENSX_8durationIlSt5ratioILl1ELl1000000000EEEEEEEEUlmmE_EC2EONS0_15_Iter_comp_iterIS19_EE
FN:231,233,_ZN9__gnu_cxx5__ops14_Val_comp_iterIZN4givp6detail28bidirectional_path_relinkingIZNS3_3runIZL23CATCH2_INTERNAL_TEST_18vEUlRKSt6vectorIdSaIdEEE_EENS2_14OptimizeResultEOT_RKS6_ISt4pairIddESaISG_EENS2_10GivpConfigEEUlSA_E_NS3_3RngEEESF_IS8_dERKSD_SA_SA_mRSt8optionalINS3_15EvaluationCacheEERT0_RKSR_INSt6chrono10time_pointINSX_3_V212steady_clockENSX_8durationIlSt5ratioILl1ELl1000000000EEEEEEEEUlmmE_EC2EONS0_15_Iter_comp_iterIS19_EE
FN:231,233,_ZN9__gnu_cxx5__ops14_Val_comp_iterIZN4givp6detail28bidirectional_path_relinkingIZNS3_3runIZL23CATCH2_INTERNAL_TEST_20vEUlRKSt6vectorIdSaIdEEE_EENS2_14OptimizeResultEOT_RKS6_ISt4pairIddESaISG_EENS2_10GivpConfigEEUlSA_E_NS3_3RngEEESF_IS8_dERKSD_SA_SA_mRSt8optionalINS3_15EvaluationCacheEERT0_RKSR_INSt6chrono10time_pointINSX_3_V212steady_clockENSX_8durationIlSt5ratioILl1ELl1000000000EEEEEEEEUlmmE_EC2EONS0_15_Iter_comp_iterIS19_EE
FN:231,233,_ZN9__gnu_cxx5__ops14_Val_comp_iterIZN4givp6detail28bidirectional_path_relinkingIZNS3_3runIZL23CATCH2_INTERNAL_TEST_22vEUlRKSt6vectorIdSaIdEEE_EENS2_14OptimizeResultEOT_RKS6_ISt4pairIddESaISG_EENS2_10GivpConfigEEUlSA_E_NS3_3RngEEESF_IS8_dERKSD_SA_SA_mRSt8optionalINS3_15EvaluationCacheEERT0_RKSR_INSt6chrono10time_pointINSX_3_V212steady_clockENSX_8durationIlSt5ratioILl1ELl1000000000EEEEEEEEUlmmE_EC2EONS0_15_Iter_comp_iterIS19_EE
FN:231,233,_ZN9__gnu_cxx5__ops14_Val_comp_iterIZN4givp6detail28bidirectional_path_relinkingIZNS3_3runIZL23CATCH2_INTERNAL_TEST_24vEUlRKSt6vectorIdSaIdEEE_EENS2_14OptimizeResultEOT_RKS6_ISt4pairIddESaISG_EENS2_10GivpConfigEEUlSA_E_NS3_3RngEEESF_IS8_dERKSD_SA_SA_mRSt8optionalINS3_15EvaluationCacheEERT0_RKSR_INSt6chrono10time_pointINSX_3_V212steady_clockENSX_8durationIlSt5ratioILl1ELl1000000000EEEEEEEEUlmmE_EC2EONS0_15_Iter_comp_iterIS19_EE
FN:231,233,_ZN9__gnu_cxx5__ops14_Val_comp_iterIZN4givp6detail9ElitePool3addESt6vectorIdSaIdEEdEUlRKT_RKT0_E0_EC2EONS0_15_Iter_comp_iterISE_EE
FN:231,233,_ZN9__gnu_cxx5__ops14_Val_comp_iterIZN4givp6detail9ElitePool3addESt6vectorIdSaIdEEdEUlRKT_RKT0_E_EC2EONS0_15_Iter_comp_iterISE_EE
FN:231,233,_ZN9__gnu_cxx5__ops14_Val_comp_iterIZN4givp6detailL17neighborhood_flipIZNS3_3runIRFdRKSt6vectorIdSaIdEEEEENS2_14OptimizeResultEOT_RKS6_ISt4pairIddESaISH_EENS2_10GivpConfigEEUlSA_E_NS3_3RngEEESG_IdbERS8_dRKSE_SQ_RT0_SA_SA_RSt8optionalINS3_15EvaluationCacheEEmRKSV_INSt6chrono10time_pointINSZ_3_V212steady_clockENSZ_8durationIlSt5ratioILl1ELl1000000000EEEEEEEEUlmmE_EC2EONS0_15_Iter_comp_iterIS1B_EE
FN:231,233,_ZN9__gnu_cxx5__ops14_Val_comp_iterIZN4givp6detailL17neighborhood_flipIZNS3_3runIRZL22CATCH2_INTERNAL_TEST_6vEUlRKSt6vectorIdSaIdEEE_EENS2_14OptimizeResultEOT_RKS6_ISt4pairIddESaISH_EENS2_10GivpConfigEEUlSA_E_NS3_3RngEEESG_IdbERS8_dRKSE_SQ_RT0_SA_SA_RSt8optionalINS3_15EvaluationCacheEEmRKSV_INSt6chrono10time_pointINSZ_3_V212steady_clockENSZ_8durationIlSt5ratioILl1ELl1000000000EEEEEEEEUlmmE_EC2EONS0_15_Iter_comp_iterIS1B_EE
FN:231,233,_ZN9__gnu_cxx5__ops14_Val_comp_iterIZN4givp6detailL17neighborhood_flipIZNS3_3runIRZL22CATCH2_INTERNAL_TEST_8vEUlRKSt6vectorIdSaIdEEE_EENS2_14OptimizeResultEOT_RKS6_ISt4pairIddESaISH_EENS2_10GivpConfigEEUlSA_E_NS3_3RngEEESG_IdbERS8_dRKSE_SQ_RT0_SA_SA_RSt8optionalINS3_15EvaluationCacheEEmRKSV_INSt6chrono10time_pointINSZ_3_V212steady_clockENSZ_8durationIlSt5ratioILl1ELl1000000000EEEEEEEEUlmmE_EC2EONS0_15_Iter_comp_iterIS1B_EE
FN:231,233,_ZN9__gnu_cxx5__ops14_Val_comp_iterIZN4givp6detailL17neighborhood_flipIZNS3_3runIRZL23CATCH2_INTERNAL_TEST_12vEUlRKSt6vectorIdSaIdEEE_EENS2_14OptimizeResultEOT_RKS6_ISt4pairIddESaISH_EENS2_10GivpConfigEEUlSA_E_NS3_3RngEEESG_IdbERS8_dRKSE_SQ_RT0_SA_SA_RSt8optionalINS3_15EvaluationCacheEEmRKSV_INSt6chrono10time_pointINSZ_3_V212steady_clockENSZ_8durationIlSt5ratioILl1ELl1000000000EEEEEEEEUlmmE_EC2EONS0_15_Iter_comp_iterIS1B_EE
FN:231,233,_ZN9__gnu_cxx5__ops14_Val_comp_iterIZN4givp6detailL17neighborhood_flipIZNS3_3runIRZL23CATCH2_INTERNAL_TEST_14vEUlRKSt6vectorIdSaIdEEE_EENS2_14OptimizeResultEOT_RKS6_ISt4pairIddESaISH_EENS2_10GivpConfigEEUlSA_E_NS3_3RngEEESG_IdbERS8_dRKSE_SQ_RT0_SA_SA_RSt8optionalINS3_15EvaluationCacheEEmRKSV_INSt6chrono10time_pointINSZ_3_V212steady_clockENSZ_8durationIlSt5ratioILl1ELl1000000000EEEEEEEEUlmmE_EC2EONS0_15_Iter_comp_iterIS1B_EE
FN:231,233,_ZN9__gnu_cxx5__ops14_Val_comp_iterIZN4givp6detailL17neighborhood_flipIZNS3_3runIRZL23CATCH2_INTERNAL_TEST_16vEUlRKSt6vectorIdSaIdEEE_EENS2_14OptimizeResultEOT_RKS6_ISt4pairIddESaISH_EENS2_10GivpConfigEEUlSA_E_NS3_3RngEEESG_IdbERS8_dRKSE_SQ_RT0_SA_SA_RSt8optionalINS3_15EvaluationCacheEEmRKSV_INSt6chrono10time_pointINSZ_3_V212steady_clockENSZ_8durationIlSt5ratioILl1ELl1000000000EEEEEEEEUlmmE_EC2EONS0_15_Iter_comp_iterIS1B_EE
FN:231,233,_ZN9__gnu_cxx5__ops14_Val_comp_iterIZN4givp6detailL17neighborhood_flipIZNS3_3runIRZL23CATCH2_INTERNAL_TEST_28vEUlRKSt6vectorIdSaIdEEE_EENS2_14OptimizeResultEOT_RKS6_ISt4pairIddESaISH_EENS2_10GivpConfigEEUlSA_E_NS3_3RngEEESG_IdbERS8_dRKSE_SQ_RT0_SA_SA_RSt8optionalINS3_15EvaluationCacheEEmRKSV_INSt6chrono10time_pointINSZ_3_V212steady_clockENSZ_8durationIlSt5ratioILl1ELl1000000000EEEEEEEEUlmmE_EC2EONS0_15_Iter_comp_iterIS1B_EE
FN:231,233,_ZN9__gnu_cxx5__ops14_Val_comp_iterIZN4givp6detailL17neighborhood_flipIZNS3_3runIRZL23CATCH2_INTERNAL_TEST_42vEUlRKSt6vectorIdSaIdEEE_EENS2_14OptimizeResultEOT_RKS6_ISt4pairIddESaISH_EENS2_10GivpConfigEEUlSA_E_NS3_3RngEEESG_IdbERS8_dRKSE_SQ_RT0_SA_SA_RSt8optionalINS3_15EvaluationCacheEEmRKSV_INSt6chrono10time_pointINSZ_3_V212steady_clockENSZ_8durationIlSt5ratioILl1ELl1000000000EEEEEEEEUlmmE_EC2EONS0_15_Iter_comp_iterIS1B_EE
FN:231,233,_ZN9__gnu_cxx5__ops14_Val_comp_iterIZN4givp6detailL17neighborhood_flipIZNS3_3runIRZL23CATCH2_INTERNAL_TEST_44vEUlRKSt6vectorIdSaIdEEE_EENS2_14OptimizeResultEOT_RKS6_ISt4pairIddESaISH_EENS2_10GivpConfigEEUlSA_E_NS3_3RngEEESG_IdbERS8_dRKSE_SQ_RT0_SA_SA_RSt8optionalINS3_15EvaluationCacheEEmRKSV_INSt6chrono10time_pointINSZ_3_V212steady_clockENSZ_8durationIlSt5ratioILl1ELl1000000000EEEEEEEEUlmmE_EC2EONS0_15_Iter_comp_iterIS1B_EE
FN:231,233,_ZN9__gnu_cxx5__ops14_Val_comp_iterIZN4givp6detailL17neighborhood_flipIZNS3_3runIZL23CATCH2_INTERNAL_TEST_16vEUlRKSt6vectorIdSaIdEEE_EENS2_14OptimizeResultEOT_RKS6_ISt4pairIddESaISG_EENS2_10GivpConfigEEUlSA_E_NS3_3RngEEESF_IdbERS8_dRKSD_SP_RT0_SA_SA_RSt8optionalINS3_15EvaluationCacheEEmRKSU_INSt6chrono10time_pointINSY_3_V212steady_clockENSY_8durationIlSt5ratioILl1ELl1000000000EEEEEEEEUlmmE_EC2EONS0_15_Iter_comp_iterIS1A_EE
FN:231,233,_ZN9__gnu_cxx5__ops14_Val_comp_iterIZN4givp6detailL17neighborhood_flipIZNS3_3runIZL23CATCH2_INTERNAL_TEST_18vEUlRKSt6vectorIdSaIdEEE_EENS2_14OptimizeResultEOT_RKS6_ISt4pairIddESaISG_EENS2_10GivpConfigEEUlSA_E_NS3_3RngEEESF_IdbERS8_dRKSD_SP_RT0_SA_SA_RSt8optionalINS3_15EvaluationCacheEEmRKSU_INSt6chrono10time_pointINSY_3_V212steady_clockENSY_8durationIlSt5ratioILl1ELl1000000000EEEEEEEEUlmmE_EC2EONS0_15_Iter_comp_iterIS1A_EE
FN:231,233,_ZN9__gnu_cxx5__ops14_Val_comp_iterIZN4givp6detailL17neighborhood_flipIZNS3_3runIZL23CATCH2_INTERNAL_TEST_20vEUlRKSt6vectorIdSaIdEEE_EENS2_14OptimizeResultEOT_RKS6_ISt4pairIddESaISG_EENS2_10GivpConfigEEUlSA_E_NS3_3RngEEESF_IdbERS8_dRKSD_SP_RT0_SA_SA_RSt8optionalINS3_15EvaluationCacheEEmRKSU_INSt6chrono10time_pointINSY_3_V212steady_clockENSY_8durationIlSt5ratioILl1ELl1000000000EEEEEEEEUlmmE_EC2EONS0_15_Iter_comp_iterIS1A_EE
FN:231,233,_ZN9__gnu_cxx5__ops14_Val_comp_iterIZN4givp6detailL17neighborhood_flipIZNS3_3runIZL23CATCH2_INTERNAL_TEST_22vEUlRKSt6vectorIdSaIdEEE_EENS2_14OptimizeResultEOT_RKS6_ISt4pairIddESaISG_EENS2_10GivpConfigEEUlSA_E_NS3_3RngEEESF_IdbERS8_dRKSD_SP_RT0_SA_SA_RSt8optionalINS3_15EvaluationCacheEEmRKSU_INSt6chrono10time_pointINSY_3_V212steady_clockENSY_8durationIlSt5ratioILl1ELl1000000000EEEEEEEEUlmmE_EC2EONS0_15_Iter_comp_iterIS1A_EE
FN:231,233,_ZN9__gnu_cxx5__ops14_Val_comp_iterIZN4givp6detailL17neighborhood_flipIZNS3_3runIZL23CATCH2_INTERNAL_TEST_24vEUlRKSt6vectorIdSaIdEEE_EENS2_14OptimizeResultEOT_RKS6_ISt4pairIddESaISG_EENS2_10GivpConfigEEUlSA_E_NS3_3RngEEESF_IdbERS8_dRKSD_SP_RT0_SA_SA_RSt8optionalINS3_15EvaluationCacheEEmRKSU_INSt6chrono10time_pointINSY_3_V212steady_clockENSY_8durationIlSt5ratioILl1ELl1000000000EEEEEEEEUlmmE_EC2EONS0_15_Iter_comp_iterIS1A_EE
FN:231,233,_ZN9__gnu_cxx5__ops14_Val_comp_iterIZN5Catch9sortTestsERKNS2_7IConfigERKSt6vectorINS2_14TestCaseHandleESaIS7_EEEUlRKS7_SD_E_EC2EONS0_15_Iter_comp_iterISE_EE
FN:231,233,_ZN9__gnu_cxx5__ops14_Val_comp_iterIZN5Catch9sortTestsERKNS2_7IConfigERKSt6vectorINS2_14TestCaseHandleESaIS7_EEEUlRKSt4pairImS7_ESF_E_EC2EONS0_15_Iter_comp_iterISG_EE
FN:239,240,_ZN9__gnu_cxx5__ops14_Val_comp_iterIZN4givp6detail28bidirectional_path_relinkingIZL23CATCH2_INTERNAL_TEST_38vEUlRKSt6vectorIdSaIdEEE_NS3_3RngEEESt4pairIS7_dERKT_S9_S9_mRSt8optionalINS3_15EvaluationCacheEERT0_RKSH_INSt6chrono10time_pointINSN_3_V212steady_clockENSN_8durationIlSt5ratioILl1ELl1000000000EEEEEEEEUlmmE_EclImNS_17__normal_iteratorIPmS5_ImSaImEEEEEEbRSE_SL_
FN:239,240,_ZN9__gnu_cxx5__ops14_Val_comp_iterIZN4givp6detail28bidirectional_path_relinkingIZL23CATCH2_INTERNAL_TEST_40vEUlRKSt6vectorIdSaIdEEE_NS3_3RngEEESt4pairIS7_dERKT_S9_S9_mRSt8optionalINS3_15EvaluationCacheEERT0_RKSH_INSt6chrono10time_pointINSN_3_V212steady_clockENSN_8durationIlSt5ratioILl1ELl1000000000EEEEEEEEUlmmE_EclImNS_17__normal_iteratorIPmS5_ImSaImEEEEEEbRSE_SL_
FN:239,240,_ZN9__gnu_cxx5__ops14_Val_comp_iterIZN4givp6detail28bidirectional_path_relinkingIZNS3_3runIRFdRKSt6vectorIdSaIdEEEEENS2_14OptimizeResultEOT_RKS6_ISt4pairIddESaISH_EENS2_10GivpConfigEEUlSA_E_NS3_3RngEEESG_IS8_dERKSE_SA_SA_mRSt8optionalINS3_15EvaluationCacheEERT0_RKSS_INSt6chrono10time_pointINSY_3_V212steady_clockENSY_8durationIlSt5ratioILl1ELl1000000000EEEEEEEEUlmmE_EclImNS_17__normal_iteratorIPmS6_ImSaImEEEEEEbRSE_SW_
FN:239,240,_ZN9__gnu_cxx5__ops14_Val_comp_iterIZN4givp6detail28bidirectional_path_relinkingIZNS3_3runIRZL22CATCH2_INTERNAL_TEST_6vEUlRKSt6vectorIdSaIdEEE_EENS2_14OptimizeResultEOT_RKS6_ISt4pairIddESaISH_EENS2_10GivpConfigEEUlSA_E_NS3_3RngEEESG_IS8_dERKSE_SA_SA_mRSt8optionalINS3_15EvaluationCacheEERT0_RKSS_INSt6chrono10time_pointINSY_3_V212steady_clockENSY_8durationIlSt5ratioILl1ELl1000000000EEEEEEEEUlmmE_EclImNS_17__normal_iteratorIPmS6_ImSaImEEEEEEbRSE_SW_
FN:239,240,_ZN9__gnu_cxx5__ops14_Val_comp_iterIZN4givp6detail28bidirectional_path_relinkingIZNS3_3runIRZL22CATCH2_INTERNAL_TEST_8vEUlRKSt6vectorIdSaIdEEE_EENS2_14OptimizeResultEOT_RKS6_ISt4pairIddESaISH_EENS2_10GivpConfigEEUlSA_E_NS3_3RngEEESG_IS8_dERKSE_SA_SA_mRSt8optionalINS3_15EvaluationCacheEERT0_RKSS_INSt6chrono10time_pointINSY_3_V212steady_clockENSY_8durationIlSt5ratioILl1ELl1000000000EEEEEEEEUlmmE_EclImNS_17__normal_iteratorIPmS6_ImSaImEEEEEEbRSE_SW_
FN:239,240,_ZN9__gnu_cxx5__ops14_Val_comp_iterIZN4givp6detail28bidirectional_path_relinkingIZNS3_3runIRZL23CATCH2_INTERNAL_TEST_12vEUlRKSt6vectorIdSaIdEEE_EENS2_14OptimizeResultEOT_RKS6_ISt4pairIddESaISH_EENS2_10GivpConfigEEUlSA_E_NS3_3RngEEESG_IS8_dERKSE_SA_SA_mRSt8optionalINS3_15EvaluationCacheEERT0_RKSS_INSt6chrono10time_pointINSY_3_V212steady_clockENSY_8durationIlSt5ratioILl1ELl1000000000EEEEEEEEUlmmE_EclImNS_17__normal_iteratorIPmS6_ImSaImEEEEEEbRSE_SW_
FN:239,240,_ZN9__gnu_cxx5__ops14_Val_comp_iterIZN4givp6detail28bidirectional_path_relinkingIZNS3_3runIRZL23CATCH2_INTERNAL_TEST_14vEUlRKSt6vectorIdSaIdEEE_EENS2_14OptimizeResultEOT_RKS6_ISt4pairIddESaISH_EENS2_10GivpConfigEEUlSA_E_NS3_3RngEEESG_IS8_dERKSE_SA_SA_mRSt8optionalINS3_15EvaluationCacheEERT0_RKSS_INSt6chrono10time_pointINSY_3_V212steady_clockENSY_8durationIlSt5ratioILl1ELl1000000000EEEEEEEEUlmmE_EclImNS_17__normal_iteratorIPmS6_ImSaImEEEEEEbRSE_SW_
FN:239,240,_ZN9__gnu_cxx5__ops14_Val_comp_iterIZN4givp6detail28bidirectional_path_relinkingIZNS3_3runIRZL23CATCH2_INTERNAL_TEST_16vEUlRKSt6vectorIdSaIdEEE_EENS2_14OptimizeResultEOT_RKS6_ISt4pairIddESaISH_EENS2_10GivpConfigEEUlSA_E_NS3_3RngEEESG_IS8_dERKSE_SA_SA_mRSt8optionalINS3_15EvaluationCacheEERT0_RKSS_INSt6chrono10time_pointINSY_3_V212steady_clockENSY_8durationIlSt5ratioILl1ELl1000000000EEEEEEEEUlmmE_EclImNS_17__normal_iteratorIPmS6_ImSaImEEEEEEbRSE_SW_
FN:239,240,_ZN9__gnu_cxx5__ops14_Val_comp_iterIZN4givp6detail28bidirectional_path_relinkingIZNS3_3runIRZL23CATCH2_INTERNAL_TEST_28vEUlRKSt6vectorIdSaIdEEE_EENS2_14OptimizeResultEOT_RKS6_ISt4pairIddESaISH_EENS2_10GivpConfigEEUlSA_E_NS3_3RngEEESG_IS8_dERKSE_SA_SA_mRSt8optionalINS3_15EvaluationCacheEERT0_RKSS_INSt6chrono10time_pointINSY_3_V212steady_clockENSY_8durationIlSt5ratioILl1ELl1000000000EEEEEEEEUlmmE_EclImNS_17__normal_iteratorIPmS6_ImSaImEEEEEEbRSE_SW_
FN:239,240,_ZN9__gnu_cxx5__ops14_Val_comp_iterIZN4givp6detail28bidirectional_path_relinkingIZNS3_3runIRZL23CATCH2_INTERNAL_TEST_42vEUlRKSt6vectorIdSaIdEEE_EENS2_14OptimizeResultEOT_RKS6_ISt4pairIddESaISH_EENS2_10GivpConfigEEUlSA_E_NS3_3RngEEESG_IS8_dERKSE_SA_SA_mRSt8optionalINS3_15EvaluationCacheEERT0_RKSS_INSt6chrono10time_pointINSY_3_V212steady_clockENSY_8durationIlSt5ratioILl1ELl1000000000EEEEEEEEUlmmE_EclImNS_17__normal_iteratorIPmS6_ImSaImEEEEEEbRSE_SW_
FN:239,240,_ZN9__gnu_cxx5__ops14_Val_comp_iterIZN4givp6detail28bidirectional_path_relinkingIZNS3_3runIRZL23CATCH2_INTERNAL_TEST_44vEUlRKSt6vectorIdSaIdEEE_EENS2_14OptimizeResultEOT_RKS6_ISt4pairIddESaISH_EENS2_10GivpConfigEEUlSA_E_NS3_3RngEEESG_IS8_dERKSE_SA_SA_mRSt8optionalINS3_15EvaluationCacheEERT0_RKSS_INSt6chrono10time_pointINSY_3_V212steady_clockENSY_8durationIlSt5ratioILl1ELl1000000000EEEEEEEEUlmmE_EclImNS_17__normal_iteratorIPmS6_ImSaImEEEEEEbRSE_SW_
FN:239,240,_ZN9__gnu_cxx5__ops14_Val_comp_iterIZN4givp6detail28bidirectional_path_relinkingIZNS3_3runIZL23CATCH2_INTERNAL_TEST_16vEUlRKSt6vectorIdSaIdEEE_EENS2_14OptimizeResultEOT_RKS6_ISt4pairIddESaISG_EENS2_10GivpConfigEEUlSA_E_NS3_3RngEEESF_IS8_dERKSD_SA_SA_mRSt8optionalINS3_15EvaluationCacheEERT0_RKSR_INSt6chrono10time_pointINSX_3_V212steady_clockENSX_8durationIlSt5ratioILl1ELl1000000000EEEEEEEEUlmmE_EclImNS_17__normal_iteratorIPmS6_ImSaImEEEEEEbRSD_SV_
FN:239,240,_ZN9__gnu_cxx5__ops14_Val_comp_iterIZN4givp6detail28bidirectional_path_relinkingIZNS3_3runIZL23CATCH2_INTERNAL_TEST_18vEUlRKSt6vectorIdSaIdEEE_EENS2_14OptimizeResultEOT_RKS6_ISt4pairIddESaISG_EENS2_10GivpConfigEEUlSA_E_NS3_3RngEEESF_IS8_dERKSD_SA_SA_mRSt8optionalINS3_15EvaluationCacheEERT0_RKSR_INSt6chrono10time_pointINSX_3_V212steady_clockENSX_8durationIlSt5ratioILl1ELl1000000000EEEEEEEEUlmmE_EclImNS_17__normal_iteratorIPmS6_ImSaImEEEEEEbRSD_SV_
FN:239,240,_ZN9__gnu_cxx5__ops14_Val_comp_iterIZN4givp6detail28bidirectional_path_relinkingIZNS3_3runIZL23CATCH2_INTERNAL_TEST_20vEUlRKSt6vectorIdSaIdEEE_EENS2_14OptimizeResultEOT_RKS6_ISt4pairIddESaISG_EENS2_10GivpConfigEEUlSA_E_NS3_3RngEEESF_IS8_dERKSD_SA_SA_mRSt8optionalINS3_15EvaluationCacheEERT0_RKSR_INSt6chrono10time_pointINSX_3_V212steady_clockENSX_8durationIlSt5ratioILl1ELl1000000000EEEEEEEEUlmmE_EclImNS_17__normal_iteratorIPmS6_ImSaImEEEEEEbRSD_SV_
FN:239,240,_ZN9__gnu_cxx5__ops14_Val_comp_iterIZN4givp6detail28bidirectional_path_relinkingIZNS3_3runIZL23CATCH2_INTERNAL_TEST_22vEUlRKSt6vectorIdSaIdEEE_EENS2_14OptimizeResultEOT_RKS6_ISt4pairIddESaISG_EENS2_10GivpConfigEEUlSA_E_NS3_3RngEEESF_IS8_dERKSD_SA_SA_mRSt8optionalINS3_15EvaluationCacheEERT0_RKSR_INSt6chrono10time_pointINSX_3_V212steady_clockENSX_8durationIlSt5ratioILl1ELl1000000000EEEEEEEEUlmmE_EclImNS_17__normal_iteratorIPmS6_ImSaImEEEEEEbRSD_SV_
FN:239,240,_ZN9__gnu_cxx5__ops14_Val_comp_iterIZN4givp6detail28bidirectional_path_relinkingIZNS3_3runIZL23CATCH2_INTERNAL_TEST_24vEUlRKSt6vectorIdSaIdEEE_EENS2_14OptimizeResultEOT_RKS6_ISt4pairIddESaISG_EENS2_10GivpConfigEEUlSA_E_NS3_3RngEEESF_IS8_dERKSD_SA_SA_mRSt8optionalINS3_15EvaluationCacheEERT0_RKSR_INSt6chrono10time_pointINSX_3_V212steady_clockENSX_8durationIlSt5ratioILl1ELl1000000000EEEEEEEEUlmmE_EclImNS_17__normal_iteratorIPmS6_ImSaImEEEEEEbRSD_SV_
FN:239,240,_ZN9__gnu_cxx5__ops14_Val_comp_iterIZN4givp6detail9ElitePool3addESt6vectorIdSaIdEEdEUlRKT_RKT0_E0_EclISt4pairIS7_dENS_17__normal_iteratorIPSI_S5_ISI_SaISI_EEEEEEbRS8_SB_
FN:239,240,_ZN9__gnu_cxx5__ops14_Val_comp_iterIZN4givp6detail9ElitePool3addESt6vectorIdSaIdEEdEUlRKT_RKT0_E_EclISt4pairIS7_dENS_17__normal_iteratorIPSI_S5_ISI_SaISI_EEEEEEbRS8_SB_
FN:239,240,_ZN9__gnu_cxx5__ops14_Val_comp_iterIZN4givp6detailL17neighborhood_flipIZNS3_3runIRFdRKSt6vectorIdSaIdEEEEENS2_14OptimizeResultEOT_RKS6_ISt4pairIddESaISH_EENS2_10GivpConfigEEUlSA_E_NS3_3RngEEESG_IdbERS8_dRKSE_SQ_RT0_SA_SA_RSt8optionalINS3_15EvaluationCacheEEmRKSV_INSt6chrono10time_pointINSZ_3_V212steady_clockENSZ_8durationIlSt5ratioILl1ELl1000000000EEEEEEEEUlmmE_EclImNS_17__normal_iteratorIPmS6_ImSaImEEEEEEbRSE_ST_
FN:239,240,_ZN9__gnu_cxx5__ops14_Val_comp_iterIZN4givp6detailL17neighborhood_flipIZNS3_3runIRZL22CATCH2_INTERNAL_TEST_6vEUlRKSt6vectorIdSaIdEEE_EENS2_14OptimizeResultEOT_RKS6_ISt4pairIddESaISH_EENS2_10GivpConfigEEUlSA_E_NS3_3RngEEESG_IdbERS8_dRKSE_SQ_RT0_SA_SA_RSt8optionalINS3_15EvaluationCacheEEmRKSV_INSt6chrono10time_pointINSZ_3_V212steady_clockENSZ_8durationIlSt5ratioILl1ELl1000000000EEEEEEEEUlmmE_EclImNS_17__normal_iteratorIPmS6_ImSaImEEEEEEbRSE_ST_
FN:239,240,_ZN9__gnu_cxx5__ops14_Val_comp_iterIZN4givp6detailL17neighborhood_flipIZNS3_3runIRZL22CATCH2_INTERNAL_TEST_8vEUlRKSt6vectorIdSaIdEEE_EENS2_14OptimizeResultEOT_RKS6_ISt4pairIddESaISH_EENS2_10GivpConfigEEUlSA_E_NS3_3RngEEESG_IdbERS8_dRKSE_SQ_RT0_SA_SA_RSt8optionalINS3_15EvaluationCacheEEmRKSV_INSt6chrono10time_pointINSZ_3_V212steady_clockENSZ_8durationIlSt5ratioILl1ELl1000000000EEEEEEEEUlmmE_EclImNS_17__normal_iteratorIPmS6_ImSaImEEEEEEbRSE_ST_
FN:239,240,_ZN9__gnu_cxx5__ops14_Val_comp_iterIZN4givp6detailL17neighborhood_flipIZNS3_3runIRZL23CATCH2_INTERNAL_TEST_12vEUlRKSt6vectorIdSaIdEEE_EENS2_14OptimizeResultEOT_RKS6_ISt4pairIddESaISH_EENS2_10GivpConfigEEUlSA_E_NS3_3RngEEESG_IdbERS8_dRKSE_SQ_RT0_SA_SA_RSt8optionalINS3_15EvaluationCacheEEmRKSV_INSt6chrono10time_pointINSZ_3_V212steady_clockENSZ_8durationIlSt5ratioILl1ELl1000000000EEEEEEEEUlmmE_EclImNS_17__normal_iteratorIPmS6_ImSaImEEEEEEbRSE_ST_
FN:239,240,_ZN9__gnu_cxx5__ops14_Val_comp_iterIZN4givp6detailL17neighborhood_flipIZNS3_3runIRZL23CATCH2_INTERNAL_TEST_14vEUlRKSt6vectorIdSaIdEEE_EENS2_14OptimizeResultEOT_RKS6_ISt4pairIddESaISH_EENS2_10GivpConfigEEUlSA_E_NS3_3RngEEESG_IdbERS8_dRKSE_SQ_RT0_SA_SA_RSt8optionalINS3_15EvaluationCacheEEmRKSV_INSt6chrono10time_pointINSZ_3_V212steady_clockENSZ_8durationIlSt5ratioILl1ELl1000000000EEEEEEEEUlmmE_EclImNS_17__normal_iteratorIPmS6_ImSaImEEEEEEbRSE_ST_
FN:239,240,_ZN9__gnu_cxx5__ops14_Val_comp_iterIZN4givp6detailL17neighborhood_flipIZNS3_3runIRZL23CATCH2_INTERNAL_TEST_16vEUlRKSt6vectorIdSaIdEEE_EENS2_14OptimizeResultEOT_RKS6_ISt4pairIddESaISH_EENS2_10GivpConfigEEUlSA_E_NS3_3RngEEESG_IdbERS8_dRKSE_SQ_RT0_SA_SA_RSt8optionalINS3_15EvaluationCacheEEmRKSV_INSt6chrono10time_pointINSZ_3_V212steady_clockENSZ_8durationIlSt5ratioILl1ELl1000000000EEEEEEEEUlmmE_EclImNS_17__normal_iteratorIPmS6_ImSaImEEEEEEbRSE_ST_
FN:239,240,_ZN9__gnu_cxx5__ops14_Val_comp_iterIZN4givp6detailL17neighborhood_flipIZNS3_3runIRZL23CATCH2_INTERNAL_TEST_28vEUlRKSt6vectorIdSaIdEEE_EENS2_14OptimizeResultEOT_RKS6_ISt4pairIddESaISH_EENS2_10GivpConfigEEUlSA_E_NS3_3RngEEESG_IdbERS8_dRKSE_SQ_RT0_SA_SA_RSt8optionalINS3_15EvaluationCacheEEmRKSV_INSt6chrono10time_pointINSZ_3_V212steady_clockENSZ_8durationIlSt5ratioILl1ELl1000000000EEEEEEEEUlmmE_EclImNS_17__normal_iteratorIPmS6_ImSaImEEEEEEbRSE_ST_
FN:239,240,_ZN9__gnu_cxx5__ops14_Val_comp_iterIZN4givp6detailL17neighborhood_flipIZNS3_3runIRZL23CATCH2_INTERNAL_TEST_42vEUlRKSt6vectorIdSaIdEEE_EENS2_14OptimizeResultEOT_RKS6_ISt4pairIddESaISH_EENS2_10GivpConfigEEUlSA_E_NS3_3RngEEESG_IdbERS8_dRKSE_SQ_RT0_SA_SA_RSt8optionalINS3_15EvaluationCacheEEmRKSV_INSt6chrono10time_pointINSZ_3_V212steady_clockENSZ_8durationIlSt5ratioILl1ELl1000000000EEEEEEEEUlmmE_EclImNS_17__normal_iteratorIPmS6_ImSaImEEEEEEbRSE_ST_
FN:239,240,_ZN9__gnu_cxx5__ops14_Val_comp_iterIZN4givp6detailL17neighborhood_flipIZNS3_3runIRZL23CATCH2_INTERNAL_TEST_44vEUlRKSt6vectorIdSaIdEEE_EENS2_14OptimizeResultEOT_RKS6_ISt4pairIddESaISH_EENS2_10GivpConfigEEUlSA_E_NS3_3RngEEESG_IdbERS8_dRKSE_SQ_RT0_SA_SA_RSt8optionalINS3_15EvaluationCacheEEmRKSV_INSt6chrono10time_pointINSZ_3_V212steady_clockENSZ_8durationIlSt5ratioILl1ELl1000000000EEEEEEEEUlmmE_EclImNS_17__normal_iteratorIPmS6_ImSaImEEEEEEbRSE_ST_
FN:239,240,_ZN9__gnu_cxx5__ops14_Val_comp_iterIZN4givp6detailL17neighborhood_flipIZNS3_3runIZL23CATCH2_INTERNAL_TEST_16vEUlRKSt6vectorIdSaIdEEE_EENS2_14OptimizeResultEOT_RKS6_ISt4pairIddESaISG_EENS2_10GivpConfigEEUlSA_E_NS3_3RngEEESF_IdbERS8_dRKSD_SP_RT0_SA_SA_RSt8optionalINS3_15EvaluationCacheEEmRKSU_INSt6chrono10time_pointINSY_3_V212steady_clockENSY_8durationIlSt5ratioILl1ELl1000000000EEEEEEEEUlmmE_EclImNS_17__normal_iteratorIPmS6_ImSaImEEEEEEbRSD_SS_
FN:239,240,_ZN9__gnu_cxx5__ops14_Val_comp_iterIZN4givp6detailL17neighborhood_flipIZNS3_3runIZL23CATCH2_INTERNAL_TEST_18vEUlRKSt6vectorIdSaIdEEE_EENS2_14OptimizeResultEOT_RKS6_ISt4pairIddESaISG_EENS2_10GivpConfigEEUlSA_E_NS3_3RngEEESF_IdbERS8_dRKSD_SP_RT0_SA_SA_RSt8optionalINS3_15EvaluationCacheEEmRKSU_INSt6chrono10time_pointINSY_3_V212steady_clockENSY_8durationIlSt5ratioILl1ELl1000000000EEEEEEEEUlmmE_EclImNS_17__normal_iteratorIPmS6_ImSaImEEEEEEbRSD_SS_
FN:239,240,_ZN9__gnu_cxx5__ops14_Val_comp_iterIZN4givp6detailL17neighborhood_flipIZNS3_3runIZL23CATCH2_INTERNAL_TEST_20vEUlRKSt6vectorIdSaIdEEE_EENS2_14OptimizeResultEOT_RKS6_ISt4pairIddESaISG_EENS2_10GivpConfigEEUlSA_E_NS3_3RngEEESF_IdbERS8_dRKSD_SP_RT0_SA_SA_RSt8optionalINS3_15EvaluationCacheEEmRKSU_INSt6chrono10time_pointINSY_3_V212steady_clockENSY_8durationIlSt5ratioILl1ELl1000000000EEEEEEEEUlmmE_EclImNS_17__normal_iteratorIPmS6_ImSaImEEEEEEbRSD_SS_
FN:239,240,_ZN9__gnu_cxx5__ops14_Val_comp_iterIZN4givp6detailL17neighborhood_flipIZNS3_3runIZL23CATCH2_INTERNAL_TEST_22vEUlRKSt6vectorIdSaIdEEE_EENS2_14OptimizeResultEOT_RKS6_ISt4pairIddESaISG_EENS2_10GivpConfigEEUlSA_E_NS3_3RngEEESF_IdbERS8_dRKSD_SP_RT0_SA_SA_RSt8optionalINS3_15EvaluationCacheEEmRKSU_INSt6chrono10time_pointINSY_3_V212steady_clockENSY_8durationIlSt5ratioILl1ELl1000000000EEEEEEEEUlmmE_EclImNS_17__normal_iteratorIPmS6_ImSaImEEEEEEbRSD_SS_
FN:239,240,_ZN9__gnu_cxx5__ops14_Val_comp_iterIZN4givp6detailL17neighborhood_flipIZNS3_3runIZL23CATCH2_INTERNAL_TEST_24vEUlRKSt6vectorIdSaIdEEE_EENS2_14OptimizeResultEOT_RKS6_ISt4pairIddESaISG_EENS2_10GivpConfigEEUlSA_E_NS3_3RngEEESF_IdbERS8_dRKSD_SP_RT0_SA_SA_RSt8optionalINS3_15EvaluationCacheEEmRKSU_INSt6chrono10time_pointINSY_3_V212steady_clockENSY_8durationIlSt5ratioILl1ELl1000000000EEEEEEEEUlmmE_EclImNS_17__normal_iteratorIPmS6_ImSaImEEEEEEbRSD_SS_
FN:239,240,_ZN9__gnu_cxx5__ops14_Val_comp_iterIZN5Catch9sortTestsERKNS2_7IConfigERKSt6vectorINS2_14TestCaseHandleESaIS7_EEEUlRKS7_SD_E_EclIS7_NS_17__normal_iteratorIPS7_S9_EEEEbRT_T0_
FN:239,240,_ZN9__gnu_cxx5__ops14_Val_comp_iterIZN5Catch9sortTestsERKNS2_7IConfigERKSt6vectorINS2_14TestCaseHandleESaIS7_EEEUlRKSt4pairImS7_ESF_E_EclISD_NS_17__normal_iteratorIPSD_S6_ISD_SaISD_EEEEEEbRT_T0_
FN:252,253,_ZN9__gnu_cxx5__ops15__val_comp_iterIZN4givp6detail28bidirectional_path_relinkingIZL23CATCH2_INTERNAL_TEST_38vEUlRKSt6vectorIdSaIdEEE_NS3_3RngEEESt4pairIS7_dERKT_S9_S9_mRSt8optionalINS3_15EvaluationCacheEERT0_RKSH_INSt6chrono10time_pointINSN_3_V212steady_clockENSN_8durationIlSt5ratioILl1ELl1000000000EEEEEEEEUlmmE_EENS0_14_Val_comp_iterISE_EENS0_15_Iter_comp_iterISE_EE
FN:252,253,_ZN9__gnu_cxx5__ops15__val_comp_iterIZN4givp6detail28bidirectional_path_relinkingIZL23CATCH2_INTERNAL_TEST_40vEUlRKSt6vectorIdSaIdEEE_NS3_3RngEEESt4pairIS7_dERKT_S9_S9_mRSt8optionalINS3_15EvaluationCacheEERT0_RKSH_INSt6chrono10time_pointINSN_3_V212steady_clockENSN_8durationIlSt5ratioILl1ELl1000000000EEEEEEEEUlmmE_EENS0_14_Val_comp_iterISE_EENS0_15_Iter_comp_iterISE_EE
FN:252,253,_ZN9__gnu_cxx5__ops15__val_comp_iterIZN4givp6detail28bidirectional_path_relinkingIZNS3_3runIRFdRKSt6vectorIdSaIdEEEEENS2_14OptimizeResultEOT_RKS6_ISt4pairIddESaISH_EENS2_10GivpConfigEEUlSA_E_NS3_3RngEEESG_IS8_dERKSE_SA_SA_mRSt8optionalINS3_15EvaluationCacheEERT0_RKSS_INSt6chrono10time_pointINSY_3_V212steady_clockENSY_8durationIlSt5ratioILl1ELl1000000000EEEEEEEEUlmmE_EENS0_14_Val_comp_iterISE_EENS0_15_Iter_comp_iterISE_EE
FN:252,253,_ZN9__gnu_cxx5__ops15__val_comp_iterIZN4givp6detail28bidirectional_path_relinkingIZNS3_3runIRZL22CATCH2_INTERNAL_TEST_6vEUlRKSt6vectorIdSaIdEEE_EENS2_14OptimizeResultEOT_RKS6_ISt4pairIddESaISH_EENS2_10GivpConfigEEUlSA_E_NS3_3RngEEESG_IS8_dERKSE_SA_SA_mRSt8optionalINS3_15EvaluationCacheEERT0_RKSS_INSt6chrono10time_pointINSY_3_V212steady_clockENSY_8durationIlSt5ratioILl1ELl1000000000EEEEEEEEUlmmE_EENS0_14_Val_comp_iterISE_EENS0_15_Iter_comp_iterISE_EE
FN:252,253,_ZN9__gnu_cxx5__ops15__val_comp_iterIZN4givp6detail28bidirectional_path_relinkingIZNS3_3runIRZL22CATCH2_INTERNAL_TEST_8vEUlRKSt6vectorIdSaIdEEE_EENS2_14OptimizeResultEOT_RKS6_ISt4pairIddESaISH_EENS2_10GivpConfigEEUlSA_E_NS3_3RngEEESG_IS8_dERKSE_SA_SA_mRSt8optionalINS3_15EvaluationCacheEERT0_RKSS_INSt6chrono10time_pointINSY_3_V212steady_clockENSY_8durationIlSt5ratioILl1ELl1000000000EEEEEEEEUlmmE_EENS0_14_Val_comp_iterISE_EENS0_15_Iter_comp_iterISE_EE
FN:252,253,_ZN9__gnu_cxx5__ops15__val_comp_iterIZN4givp6detail28bidirectional_path_relinkingIZNS3_3runIRZL23CATCH2_INTERNAL_TEST_12vEUlRKSt6vectorIdSaIdEEE_EENS2_14OptimizeResultEOT_RKS6_ISt4pairIddESaISH_EENS2_10GivpConfigEEUlSA_E_NS3_3RngEEESG_IS8_dERKSE_SA_SA_mRSt8optionalINS3_15EvaluationCacheEERT0_RKSS_INSt6chrono10time_pointINSY_3_V212steady_clockENSY_8durationIlSt5ratioILl1ELl1000000000EEEEEEEEUlmmE_EENS0_14_Val_comp_iterISE_EENS0_15_Iter_comp_iterISE_EE
FN:252,253,_ZN9__gnu_cxx5__ops15__val_comp_iterIZN4givp6detail28bidirectional_path_relinkingIZNS3_3runIRZL23CATCH2_INTERNAL_TEST_14vEUlRKSt6vectorIdSaIdEEE_EENS2_14OptimizeResultEOT_RKS6_ISt4pairIddESaISH_EENS2_10GivpConfigEEUlSA_E_NS3_3RngEEESG_IS8_dERKSE_SA_SA_mRSt8optionalINS3_15EvaluationCacheEERT0_RKSS_INSt6chrono10time_pointINSY_3_V212steady_clockENSY_8durationIlSt5ratioILl1ELl1000000000EEEEEEEEUlmmE_EENS0_14_Val_comp_iterISE_EENS0_15_Iter_comp_iterISE_EE
FN:252,253,_ZN9__gnu_cxx5__ops15__val_comp_iterIZN4givp6detail28bidirectional_path_relinkingIZNS3_3runIRZL23CATCH2_INTERNAL_TEST_16vEUlRKSt6vectorIdSaIdEEE_EENS2_14OptimizeResultEOT_RKS6_ISt4pairIddESaISH_EENS2_10GivpConfigEEUlSA_E_NS3_3RngEEESG_IS8_dERKSE_SA_SA_mRSt8optionalINS3_15EvaluationCacheEERT0_RKSS_INSt6chrono10time_pointINSY_3_V212steady_clockENSY_8durationIlSt5ratioILl1ELl1000000000EEEEEEEEUlmmE_EENS0_14_Val_comp_iterISE_EENS0_15_Iter_comp_iterISE_EE
FN:252,253,_ZN9__gnu_cxx5__ops15__val_comp_iterIZN4givp6detail28bidirectional_path_relinkingIZNS3_3runIRZL23CATCH2_INTERNAL_TEST_28vEUlRKSt6vectorIdSaIdEEE_EENS2_14OptimizeResultEOT_RKS6_ISt4pairIddESaISH_EENS2_10GivpConfigEEUlSA_E_NS3_3RngEEESG_IS8_dERKSE_SA_SA_mRSt8optionalINS3_15EvaluationCacheEERT0_RKSS_INSt6chrono10time_pointINSY_3_V212steady_clockENSY_8durationIlSt5ratioILl1ELl1000000000EEEEEEEEUlmmE_EENS0_14_Val_comp_iterISE_EENS0_15_Iter_comp_iterISE_EE
FN:252,253,_ZN9__gnu_cxx5__ops15__val_comp_iterIZN4givp6detail28bidirectional_path_relinkingIZNS3_3runIRZL23CATCH2_INTERNAL_TEST_42vEUlRKSt6vectorIdSaIdEEE_EENS2_14OptimizeResultEOT_RKS6_ISt4pairIddESaISH_EENS2_10GivpConfigEEUlSA_E_NS3_3RngEEESG_IS8_dERKSE_SA_SA_mRSt8optionalINS3_15EvaluationCacheEERT0_RKSS_INSt6chrono10time_pointINSY_3_V212steady_clockENSY_8durationIlSt5ratioILl1ELl1000000000EEEEEEEEUlmmE_EENS0_14_Val_comp_iterISE_EENS0_15_Iter_comp_iterISE_EE
FN:252,253,_ZN9__gnu_cxx5__ops15__val_comp_iterIZN4givp6detail28bidirectional_path_relinkingIZNS3_3runIRZL23CATCH2_INTERNAL_TEST_44vEUlRKSt6vectorIdSaIdEEE_EENS2_14OptimizeResultEOT_RKS6_ISt4pairIddESaISH_EENS2_10GivpConfigEEUlSA_E_NS3_3RngEEESG_IS8_dERKSE_SA_SA_mRSt8optionalINS3_15EvaluationCacheEERT0_RKSS_INSt6chrono10time_pointINSY_3_V212steady_clockENSY_8durationIlSt5ratioILl1ELl1000000000EEEEEEEEUlmmE_EENS0_14_Val_comp_iterISE_EENS0_15_Iter_comp_iterISE_EE
FN:252,253,_ZN9__gnu_cxx5__ops15__val_comp_iterIZN4givp6detail28bidirectional_path_relinkingIZNS3_3runIZL23CATCH2_INTERNAL_TEST_16vEUlRKSt6vectorIdSaIdEEE_EENS2_14OptimizeResultEOT_RKS6_ISt4pairIddESaISG_EENS2_10GivpConfigEEUlSA_E_NS3_3RngEEESF_IS8_dERKSD_SA_SA_mRSt8optionalINS3_15EvaluationCacheEERT0_RKSR_INSt6chrono10time_pointINSX_3_V212steady_clockENSX_8durationIlSt5ratioILl1ELl1000000000EEEEEEEEUlmmE_EENS0_14_Val_comp_iterISD_EENS0_15_Iter_comp_iterISD_EE
FN:252,253,_ZN9__gnu_cxx5__ops15__val_comp_iterIZN4givp6detail28bidirectional_path_relinkingIZNS3_3runIZL23CATCH2_INTERNAL_TEST_18vEUlRKSt6vectorIdSaIdEEE_EENS2_14OptimizeResultEOT_RKS6_ISt4pairIddESaISG_EENS2_10GivpConfigEEUlSA_E_NS3_3RngEEESF_IS8_dERKSD_SA_SA_mRSt8optionalINS3_15EvaluationCacheEERT0_RKSR_INSt6chrono10time_pointINSX_3_V212steady_clockENSX_8durationIlSt5ratioILl1ELl1000000000EEEEEEEEUlmmE_EENS0_14_Val_comp_iterISD_EENS0_15_Iter_comp_iterISD_EE
FN:252,253,_ZN9__gnu_cxx5__ops15__val_comp_iterIZN4givp6detail28bidirectional_path_relinkingIZNS3_3runIZL23CATCH2_INTERNAL_TEST_20vEUlRKSt6vectorIdSaIdEEE_EENS2_14OptimizeResultEOT_RKS6_ISt4pairIddESaISG_EENS2_10GivpConfigEEUlSA_E_NS3_3RngEEESF_IS8_dERKSD_SA_SA_mRSt8optionalINS3_15EvaluationCacheEERT0_RKSR_INSt6chrono10time_pointINSX_3_V212steady_clockENSX_8durationIlSt5ratioILl1ELl1000000000EEEEEEEEUlmmE_EENS0_14_Val_comp_iterISD_EENS0_15_Iter_comp_iterISD_EE
FN:252,253,_ZN9__gnu_cxx5__ops15__val_comp_iterIZN4givp6detail28bidirectional_path_relinkingIZNS3_3runIZL23CATCH2_INTERNAL_TEST_22vEUlRKSt6vectorIdSaIdEEE_EENS2_14OptimizeResultEOT_RKS6_ISt4pairIddESaISG_EENS2_10GivpConfigEEUlSA_E_NS3_3RngEEESF_IS8_dERKSD_SA_SA_mRSt8optionalINS3_15EvaluationCacheEERT0_RKSR_INSt6chrono10time_pointINSX_3_V212steady_clockENSX_8durationIlSt5ratioILl1ELl1000000000EEEEEEEEUlmmE_EENS0_14_Val_comp_iterISD_EENS0_15_Iter_comp_iterISD_EE
FN:252,253,_ZN9__gnu_cxx5__ops15__val_comp_iterIZN4givp6detail28bidirectional_path_relinkingIZNS3_3runIZL23CATCH2_INTERNAL_TEST_24vEUlRKSt6vectorIdSaIdEEE_EENS2_14OptimizeResultEOT_RKS6_ISt4pairIddESaISG_EENS2_10GivpConfigEEUlSA_E_NS3_3RngEEESF_IS8_dERKSD_SA_SA_mRSt8optionalINS3_15EvaluationCacheEERT0_RKSR_INSt6chrono10time_pointINSX_3_V212steady_clockENSX_8durationIlSt5ratioILl1ELl1000000000EEEEEEEEUlmmE_EENS0_14_Val_comp_iterISD_EENS0_15_Iter_comp_iterISD_EE
FN:252,253,_ZN9__gnu_cxx5__ops15__val_comp_iterIZN4givp6detail9ElitePool3addESt6vectorIdSaIdEEdEUlRKT_RKT0_E0_EENS0_14_Val_comp_iterIS8_EENS0_15_Iter_comp_iterIS8_EE
FN:252,253,_ZN9__gnu_cxx5__ops15__val_comp_iterIZN4givp6detail9ElitePool3addESt6vectorIdSaIdEEdEUlRKT_RKT0_E_EENS0_14_Val_comp_iterIS8_EENS0_15_Iter_comp_iterIS8_EE
FN:252,253,_ZN9__gnu_cxx5__ops15__val_comp_iterIZN4givp6detailL17neighborhood_flipIZNS3_3runIRFdRKSt6vectorIdSaIdEEEEENS2_14OptimizeResultEOT_RKS6_ISt4pairIddESaISH_EENS2_10GivpConfigEEUlSA_E_NS3_3RngEEESG_IdbERS8_dRKSE_SQ_RT0_SA_SA_RSt8optionalINS3_15EvaluationCacheEEmRKSV_INSt6chrono10time_pointINSZ_3_V212steady_clockENSZ_8durationIlSt5ratioILl1ELl1000000000EEEEEEEEUlmmE_EENS0_14_Val_comp_iterISE_EENS0_15_Iter_comp_iterISE_EE
FN:252,253,_ZN9__gnu_cxx5__ops15__val_comp_iterIZN4givp6detailL17neighborhood_flipIZNS3_3runIRZL22CATCH2_INTERNAL_TEST_6vEUlRKSt6vectorIdSaIdEEE_EENS2_14OptimizeResultEOT_RKS6_ISt4pairIddESaISH_EENS2_10GivpConfigEEUlSA_E_NS3_3RngEEESG_IdbERS8_dRKSE_SQ_RT0_SA_SA_RSt8optionalINS3_15EvaluationCacheEEmRKSV_INSt6chrono10time_pointINSZ_3_V212steady_clockENSZ_8durationIlSt5ratioILl1ELl1000000000EEEEEEEEUlmmE_EENS0_14_Val_comp_iterISE_EENS0_15_Iter_comp_iterISE_EE
FN:252,253,_ZN9__gnu_cxx5__ops15__val_comp_iterIZN4givp6detailL17neighborhood_flipIZNS3_3runIRZL22CATCH2_INTERNAL_TEST_8vEUlRKSt6vectorIdSaIdEEE_EENS2_14OptimizeResultEOT_RKS6_ISt4pairIddESaISH_EENS2_10GivpConfigEEUlSA_E_NS3_3RngEEESG_IdbERS8_dRKSE_SQ_RT0_SA_SA_RSt8optionalINS3_15EvaluationCacheEEmRKSV_INSt6chrono10time_pointINSZ_3_V212steady_clockENSZ_8durationIlSt5ratioILl1ELl1000000000EEEEEEEEUlmmE_EENS0_14_Val_comp_iterISE_EENS0_15_Iter_comp_iterISE_EE
FN:252,253,_ZN9__gnu_cxx5__ops15__val_comp_iterIZN4givp6detailL17neighborhood_flipIZNS3_3runIRZL23CATCH2_INTERNAL_TEST_12vEUlRKSt6vectorIdSaIdEEE_EENS2_14OptimizeResultEOT_RKS6_ISt4pairIddESaISH_EENS2_10GivpConfigEEUlSA_E_NS3_3RngEEESG_IdbERS8_dRKSE_SQ_RT0_SA_SA_RSt8optionalINS3_15EvaluationCacheEEmRKSV_INSt6chrono10time_pointINSZ_3_V212steady_clockENSZ_8durationIlSt5ratioILl1ELl1000000000EEEEEEEEUlmmE_EENS0_14_Val_comp_iterISE_EENS0_15_Iter_comp_iterISE_EE
FN:252,253,_ZN9__gnu_cxx5__ops15__val_comp_iterIZN4givp6detailL17neighborhood_flipIZNS3_3runIRZL23CATCH2_INTERNAL_TEST_14vEUlRKSt6vectorIdSaIdEEE_EENS2_14OptimizeResultEOT_RKS6_ISt4pairIddESaISH_EENS2_10GivpConfigEEUlSA_E_NS3_3RngEEESG_IdbERS8_dRKSE_SQ_RT0_SA_SA_RSt8optionalINS3_15EvaluationCacheEEmRKSV_INSt6chrono10time_pointINSZ_3_V212steady_clockENSZ_8durationIlSt5ratioILl1ELl1000000000EEEEEEEEUlmmE_EENS0_14_Val_comp_iterISE_EENS0_15_Iter_comp_iterISE_EE
FN:252,253,_ZN9__gnu_cxx5__ops15__val_comp_iterIZN4givp6detailL17neighborhood_flipIZNS3_3runIRZL23CATCH2_INTERNAL_TEST_16vEUlRKSt6vectorIdSaIdEEE_EENS2_14OptimizeResultEOT_RKS6_ISt4pairIddESaISH_EENS2_10GivpConfigEEUlSA_E_NS3_3RngEEESG_IdbERS8_dRKSE_SQ_RT0_SA_SA_RSt8optionalINS3_15EvaluationCacheEEmRKSV_INSt6chrono10time_pointINSZ_3_V212steady_clockENSZ_8durationIlSt5ratioILl1ELl1000000000EEEEEEEEUlmmE_EENS0_14_Val_comp_iterISE_EENS0_15_Iter_comp_iterISE_EE
FN:252,253,_ZN9__gnu_cxx5__ops15__val_comp_iterIZN4givp6detailL17neighborhood_flipIZNS3_3runIRZL23CATCH2_INTERNAL_TEST_28vEUlRKSt6vectorIdSaIdEEE_EENS2_14OptimizeResultEOT_RKS6_ISt4pairIddESaISH_EENS2_10GivpConfigEEUlSA_E_NS3_3RngEEESG_IdbERS8_dRKSE_SQ_RT0_SA_SA_RSt8optionalINS3_15EvaluationCacheEEmRKSV_INSt6chrono10time_pointINSZ_3_V212steady_clockENSZ_8durationIlSt5ratioILl1ELl1000000000EEEEEEEEUlmmE_EENS0_14_Val_comp_iterISE_EENS0_15_Iter_comp_iterISE_EE
FN:252,253,_ZN9__gnu_cxx5__ops15__val_comp_iterIZN4givp6detailL17neighborhood_flipIZNS3_3runIRZL23CATCH2_INTERNAL_TEST_42vEUlRKSt6vectorIdSaIdEEE_EENS2_14OptimizeResultEOT_RKS6_ISt4pairIddESaISH_EENS2_10GivpConfigEEUlSA_E_NS3_3RngEEESG_IdbERS8_dRKSE_SQ_RT0_SA_SA_RSt8optionalINS3_15EvaluationCacheEEmRKSV_INSt6chrono10time_pointINSZ_3_V212steady_clockENSZ_8durationIlSt5ratioILl1ELl1000000000EEEEEEEEUlmmE_EENS0_14_Val_comp_iterISE_EENS0_15_Iter_comp_iterISE_EE
FN:252,253,_ZN9__gnu_cxx5__ops15__val_comp_iterIZN4givp6detailL17neighborhood_flipIZNS3_3runIRZL23CATCH2_INTERNAL_TEST_44vEUlRKSt6vectorIdSaIdEEE_EENS2_14OptimizeResultEOT_RKS6_ISt4pairIddESaISH_EENS2_10GivpConfigEEUlSA_E_NS3_3RngEEESG_IdbERS8_dRKSE_SQ_RT0_SA_SA_RSt8optionalINS3_15EvaluationCacheEEmRKSV_INSt6chrono10time_pointINSZ_3_V212steady_clockENSZ_8durationIlSt5ratioILl1ELl1000000000EEEEEEEEUlmmE_EENS0_14_Val_comp_iterISE_EENS0_15_Iter_comp_iterISE_EE
FN:252,253,_ZN9__gnu_cxx5__ops15__val_comp_iterIZN4givp6detailL17neighborhood_flipIZNS3_3runIZL23CATCH2_INTERNAL_TEST_16vEUlRKSt6vectorIdSaIdEEE_EENS2_14OptimizeResultEOT_RKS6_ISt4pairIddESaISG_EENS2_10GivpConfigEEUlSA_E_NS3_3RngEEESF_IdbERS8_dRKSD_SP_RT0_SA_SA_RSt8optionalINS3_15EvaluationCacheEEmRKSU_INSt6chrono10time_pointINSY_3_V212steady_clockENSY_8durationIlSt5ratioILl1ELl1000000000EEEEEEEEUlmmE_EENS0_14_Val_comp_iterISD_EENS0_15_Iter_comp_iterISD_EE
FN:252,253,_ZN9__gnu_cxx5__ops15__val_comp_iterIZN4givp6detailL17neighborhood_flipIZNS3_3runIZL23CATCH2_INTERNAL_TEST_18vEUlRKSt6vectorIdSaIdEEE_EENS2_14OptimizeResultEOT_RKS6_ISt4pairIddESaISG_EENS2_10GivpConfigEEUlSA_E_NS3_3RngEEESF_IdbERS8_dRKSD_SP_RT0_SA_SA_RSt8optionalINS3_15EvaluationCacheEEmRKSU_INSt6chrono10time_pointINSY_3_V212steady_clockENSY_8durationIlSt5ratioILl1ELl1000000000EEEEEEEEUlmmE_EENS0_14_Val_comp_iterISD_EENS0_15_Iter_comp_iterISD_EE
FN:252,253,_ZN9__gnu_cxx5__ops15__val_comp_iterIZN4givp6detailL17neighborhood_flipIZNS3_3runIZL23CATCH2_INTERNAL_TEST_20vEUlRKSt6vectorIdSaIdEEE_EENS2_14OptimizeResultEOT_RKS6_ISt4pairIddESaISG_EENS2_10GivpConfigEEUlSA_E_NS3_3RngEEESF_IdbERS8_dRKSD_SP_RT0_SA_SA_RSt8optionalINS3_15EvaluationCacheEEmRKSU_INSt6chrono10time_pointINSY_3_V212steady_clockENSY_8durationIlSt5ratioILl1ELl1000000000EEEEEEEEUlmmE_EENS0_14_Val_comp_iterISD_EENS0_15_Iter_comp_iterISD_EE
FN:252,253,_ZN9__gnu_cxx5__ops15__val_comp_iterIZN4givp6detailL17neighborhood_flipIZNS3_3runIZL23CATCH2_INTERNAL_TEST_22vEUlRKSt6vectorIdSaIdEEE_EENS2_14OptimizeResultEOT_RKS6_ISt4pairIddESaISG_EENS2_10GivpConfigEEUlSA_E_NS3_3RngEEESF_IdbERS8_dRKSD_SP_RT0_SA_SA_RSt8optionalINS3_15EvaluationCacheEEmRKSU_INSt6chrono10time_pointINSY_3_V212steady_clockENSY_8durationIlSt5ratioILl1ELl1000000000EEEEEEEEUlmmE_EENS0_14_Val_comp_iterISD_EENS0_15_Iter_comp_iterISD_EE
FN:252,253,_ZN9__gnu_cxx5__ops15__val_comp_iterIZN4givp6detailL17neighborhood_flipIZNS3_3runIZL23CATCH2_INTERNAL_TEST_24vEUlRKSt6vectorIdSaIdEEE_EENS2_14OptimizeResultEOT_RKS6_ISt4pairIddESaISG_EENS2_10GivpConfigEEUlSA_E_NS3_3RngEEESF_IdbERS8_dRKSD_SP_RT0_SA_SA_RSt8optionalINS3_15EvaluationCacheEEmRKSU_INSt6chrono10time_pointINSY_3_V212steady_clockENSY_8durationIlSt5ratioILl1ELl1000000000EEEEEEEEUlmmE_EENS0_14_Val_comp_iterISD_EENS0_15_Iter_comp_iterISD_EE
FN:252,253,_ZN9__gnu_cxx5__ops15__val_comp_iterIZN5Catch9sortTestsERKNS2_7IConfigERKSt6vectorINS2_14TestCaseHandleESaIS7_EEEUlRKS7_SD_E_EENS0_14_Val_comp_iterIT_EENS0_15_Iter_comp_iterISG_EE
FN:252,253,_ZN9__gnu_cxx5__ops15__val_comp_iterIZN5Catch9sortTestsERKNS2_7IConfigERKSt6vectorINS2_14TestCaseHandleESaIS7_EEEUlRKSt4pairImS7_ESF_E_EENS0_14_Val_comp_iterIT_EENS0_15_Iter_comp_iterISI_EE
FN:262,264,_ZN9__gnu_cxx5__ops16_Iter_equals_valIKN5Catch11MessageInfoEEC2ERS4_
FN:262,264,_ZN9__gnu_cxx5__ops16_Iter_equals_valIKN5Catch3TagEEC2ERS4_
FN:262,264,_ZN9__gnu_cxx5__ops16_Iter_equals_valIKN5Catch9StringRefEEC2ERS4_
FN:262,264,_ZN9__gnu_cxx5__ops16_Iter_equals_valIKNSt7__cxx1112basic_stringIcSt11char_traitsIcESaIcEEEEC2ERS8_
FN:262,264,_ZN9__gnu_cxx5__ops16_Iter_equals_valIKcEC2ERS2_
FN:269,270,_ZN9__gnu_cxx5__ops16_Iter_equals_valIKN5Catch11MessageInfoEEclINS_17__normal_iteratorIPS3_St6vectorIS3_SaIS3_EEEEEEbT_
FN:269,270,_ZN9__gnu_cxx5__ops16_Iter_equals_valIKN5Catch3TagEEclINS_17__normal_iteratorIPS4_St6vectorIS3_SaIS3_EEEEEEbT_
FN:269,270,_ZN9__gnu_cxx5__ops16_Iter_equals_valIKN5Catch9StringRefEEclINS_17__normal_iteratorIPS4_St6vectorIS3_SaIS3_EEEEEEbT_
FN:269,270,_ZN9__gnu_cxx5__ops16_Iter_equals_valIKNSt7__cxx1112basic_stringIcSt11char_traitsIcESaIcEEEEclINS_17__normal_iteratorIPS8_St6vectorIS7_SaIS7_EEEEEEbT_
FN:269,270,_ZN9__gnu_cxx5__ops16_Iter_equals_valIKcEclIPS2_EEbT_
FN:269,270,_ZN9__gnu_cxx5__ops16_Iter_equals_valIKcEclISt16reverse_iteratorIPS2_EEEbT_
FN:276,277,_ZN9__gnu_cxx5__ops17__iter_equals_valIKN5Catch11MessageInfoEEENS0_16_Iter_equals_valIT_EERS6_
FN:276,277,_ZN9__gnu_cxx5__ops17__iter_equals_valIKN5Catch3TagEEENS0_16_Iter_equals_valIT_EERS6_
FN:276,277,_ZN9__gnu_cxx5__ops17__iter_equals_valIKN5Catch9StringRefEEENS0_16_Iter_equals_valIT_EERS6_
FN:276,277,_ZN9__gnu_cxx5__ops17__iter_equals_valIKNSt7__cxx1112basic_stringIcSt11char_traitsIcESaIcEEEEENS0_16_Iter_equals_valIT_EERSA_
FN:276,277,_ZN9__gnu_cxx5__ops17__iter_equals_valIKcEENS0_16_Iter_equals_valIT_EERS4_
FN:310,312,_ZN9__gnu_cxx5__ops10_Iter_predIN5Catch12_GLOBAL__N_113BySectionInfoEEC2ES4_
FN:310,312,_ZN9__gnu_cxx5__ops10_Iter_predIZN5Catch12_GLOBAL__N_111fileNameTagERKSt6vectorINS2_3TagESaIS5_EEEUlRKS5_E_EC2ESC_
FN:310,312,_ZN9__gnu_cxx5__ops10_Iter_predIZN5Catch16TestCaseTracking11TrackerBase5closeEvEUlRKNS2_6Detail10unique_ptrINS3_8ITrackerEEEE_EC2ESB_
FN:310,312,_ZN9__gnu_cxx5__ops10_Iter_predIZN5Catch16TestCaseTracking8ITracker9findChildERKNS3_18NameAndLocationRefEEUlRKNS2_6Detail10unique_ptrIS4_EEE_EC2ESD_
FN:310,312,_ZN9__gnu_cxx5__ops10_Iter_predIZNK5Catch22CumulativeReporterBase11SectionNode16hasAnyAssertionsEvEUlRKNS2_6Detail26AssertionOrBenchmarkResultEE_EC2ES9_
FN:310,312,_ZN9__gnu_cxx5__ops10_Iter_predIZNK5Catch8TestSpec7matchesERKNS2_12TestCaseInfoEEUlRKNS3_6FilterEE_EC2ESA_
FN:310,312,_ZN9__gnu_cxx5__ops10_Iter_predIZZN5Catch10Generators12_GLOBAL__N_116GeneratorTracker5closeEvENKUlvE_clEvEUlRKNS2_6Detail10unique_ptrINS2_16TestCaseTracking8ITrackerEEEE_EC2ESE_
FN:317,318,_ZN9__gnu_cxx5__ops10_Iter_predIN5Catch12_GLOBAL__N_113BySectionInfoEEclINS_17__normal_iteratorIPNS2_6Detail10unique_ptrINS2_22CumulativeReporterBase11SectionNodeEEESt6vectorISC_SaISC_EEEEEEbT_
FN:317,318,_ZN9__gnu_cxx5__ops10_Iter_predIZN5Catch12_GLOBAL__N_111fileNameTagERKSt6vectorINS2_3TagESaIS5_EEEUlRKS5_E_EclINS_17__normal_iteratorIPSA_S7_EEEEbT_
FN:317,318,_ZN9__gnu_cxx5__ops10_Iter_predIZN5Catch16TestCaseTracking8ITracker9findChildERKNS3_18NameAndLocationRefEEUlRKNS2_6Detail10unique_ptrIS4_EEE_EclINS_17__normal_iteratorIPSA_St6vectorISA_SaISA_EEEEEEbT_
FN:317,318,_ZN9__gnu_cxx5__ops10_Iter_predIZNK5Catch22CumulativeReporterBase11SectionNode16hasAnyAssertionsEvEUlRKNS2_6Detail26AssertionOrBenchmarkResultEE_EclINS_17__normal_iteratorIPS7_St6vectorIS6_SaIS6_EEEEEEbT_
FN:317,318,_ZN9__gnu_cxx5__ops10_Iter_predIZNK5Catch8TestSpec7matchesERKNS2_12TestCaseInfoEEUlRKNS3_6FilterEE_EclINS_17__normal_iteratorIPS8_St6vectorIS7_SaIS7_EEEEEEbT_
FN:317,318,_ZN9__gnu_cxx5__ops10_Iter_predIZZN5Catch10Generators12_GLOBAL__N_116GeneratorTracker5closeEvENKUlvE_clEvEUlRKNS2_6Detail10unique_ptrINS2_16TestCaseTracking8ITrackerEEEE_EclINS_17__normal_iteratorIPSB_St6vectorISB_SaISB_EEEEEEbT_
FN:324,325,_ZN9__gnu_cxx5__ops11__pred_iterIN5Catch12_GLOBAL__N_113BySectionInfoEEENS0_10_Iter_predIT_EES6_
FN:324,325,_ZN9__gnu_cxx5__ops11__pred_iterIZN5Catch12_GLOBAL__N_111fileNameTagERKSt6vectorINS2_3TagESaIS5_EEEUlRKS5_E_EENS0_10_Iter_predIT_EESE_
FN:324,325,_ZN9__gnu_cxx5__ops11__pred_iterIZN5Catch16TestCaseTracking11TrackerBase5closeEvEUlRKNS2_6Detail10unique_ptrINS3_8ITrackerEEEE_EENS0_10_Iter_predIT_EESD_
FN:324,325,_ZN9__gnu_cxx5__ops11__pred_iterIZN5Catch16TestCaseTracking8ITracker9findChildERKNS3_18NameAndLocationRefEEUlRKNS2_6Detail10unique_ptrIS4_EEE_EENS0_10_Iter_predIT_EESF_
FN:324,325,_ZN9__gnu_cxx5__ops11__pred_iterIZNK5Catch22CumulativeReporterBase11SectionNode16hasAnyAssertionsEvEUlRKNS2_6Detail26AssertionOrBenchmarkResultEE_EENS0_10_Iter_predIT_EESB_
FN:324,325,_ZN9__gnu_cxx5__ops11__pred_iterIZNK5Catch8TestSpec7matchesERKNS2_12TestCaseInfoEEUlRKNS3_6FilterEE_EENS0_10_Iter_predIT_EESC_
FN:324,325,_ZN9__gnu_cxx5__ops11__pred_iterIZZN5Catch10Generators12_GLOBAL__N_116GeneratorTracker5closeEvENKUlvE_clEvEUlRKNS2_6Detail10unique_ptrINS2_16TestCaseTracking8ITrackerEEEE_EENS0_10_Iter_predIT_EESG_
FN:387,389,_ZN9__gnu_cxx5__ops12_Iter_negateIZN5Catch16TestCaseTracking11TrackerBase5closeEvEUlRKNS2_6Detail10unique_ptrINS3_8ITrackerEEEE_EC2ESB_
FN:394,395,_ZN9__gnu_cxx5__ops12_Iter_negateIZN5Catch16TestCaseTracking11TrackerBase5closeEvEUlRKNS2_6Detail10unique_ptrINS3_8ITrackerEEEE_EclINS_17__normal_iteratorIPS8_St6vectorIS8_SaIS8_EEEEEEbT_
FN:401,402,_ZN9__gnu_cxx5__ops8__negateIZN5Catch16TestCaseTracking11TrackerBase5closeEvEUlRKNS2_6Detail10unique_ptrINS3_8ITrackerEEEE_EENS0_12_Iter_negateIT_EENS0_10_Iter_predISD_EE
FN:44,45,_ZNK9__gnu_cxx5__ops15_Iter_less_iterclINS_17__normal_iteratorIPKdSt6vectorIdSaIdEEEES9_EEbT_T0_
FN:44,45,_ZNK9__gnu_cxx5__ops15_Iter_less_iterclINS_17__normal_iteratorIPN5Catch3TagESt6vectorIS5_SaIS5_EEEESA_EEbT_T0_
FN:44,45,_ZNK9__gnu_cxx5__ops15_Iter_less_iterclINS_17__normal_iteratorIPcSt6vectorIcSaIcEEEES8_EEbT_T0_
FN:44,45,_ZNK9__gnu_cxx5__ops15_Iter_less_iterclIPKN5Catch3TagES6_EEbT_T0_
FN:50,51,_ZN9__gnu_cxx5__ops16__iter_less_iterEv
FN:63,63,_ZN9__gnu_cxx5__ops14_Iter_less_valC2ENS0_15_Iter_less_iterE
FN:68,69,_ZNK9__gnu_cxx5__ops14_Iter_less_valclINS_17__normal_iteratorIPKcSt6vectorIcSaIcEEEES4_EEbT_RT0_
FN:68,69,_ZNK9__gnu_cxx5__ops14_Iter_less_valclINS_17__normal_iteratorIPN5Catch3TagESt6vectorIS5_SaIS5_EEEES5_EEbT_RT0_
FN:68,69,_ZNK9__gnu_cxx5__ops14_Iter_less_valclINS_17__normal_iteratorIPcSt6vectorIcSaIcEEEEcEEbT_RT0_
FN:74,75,_ZN9__gnu_cxx5__ops15__iter_less_valEv
FN:97,98,_ZNK9__gnu_cxx5__ops14_Val_less_iterclIN5Catch3TagENS_17__normal_iteratorIPS4_St6vectorIS4_SaIS4_EEEEEEbRT_T0_
FN:97,98,_ZNK9__gnu_cxx5__ops14_Val_less_iterclIcNS_17__normal_iteratorIPcSt6vectorIcSaIcEEEEEEbRT_T0_
FNDA:0,_ZN9__gnu_cxx5__ops15__val_comp_iterENS0_15_Iter_less_iterE
FNDA:0,_ZNK9__gnu_cxx5__ops19_Iter_equal_to_iterclINS_17__normal_iteratorIPN5Catch3TagESt6vectorIS5_SaIS5_EEEESA_EEbT_T0_
FNDA:0,_ZNK9__gnu_cxx5__ops19_Iter_equal_to_iterclINS_17__normal_iteratorIPcSt6vectorIcSaIcEEEES8_EEbT_T0_
FNDA:18666,_ZN9__gnu_cxx5__ops20__iter_equal_to_iterEv
FNDA:0,_ZN9__gnu_cxx5__ops15_Iter_comp_iterIZN4givp6detail28bidirectional_path_relinkingIZL23CATCH2_INTERNAL_TEST_38vEUlRKSt6vectorIdSaIdEEE_NS3_3RngEEESt4pairIS7_dERKT_S9_S9_mRSt8optionalINS3_15EvaluationCacheEERT0_RKSH_INSt6chrono10time_pointINSN_3_V212steady_clockENSN_8durationIlSt5ratioILl1ELl1000000000EEEEEEEEUlmmE_EC2ESZ_
FNDA:0,_ZN9__gnu_cxx5__ops15_Iter_comp_iterIZN4givp6detail28bidirectional_path_relinkingIZL23CATCH2_INTERNAL_TEST_40vEUlRKSt6vectorIdSaIdEEE_NS3_3RngEEESt4pairIS7_dERKT_S9_S9_mRSt8optionalINS3_15EvaluationCacheEERT0_RKSH_INSt6chrono10time_pointINSN_3_V212steady_clockENSN_8durationIlSt5ratioILl1ELl1000000000EEEEEEEEUlmmE_EC2ESZ_
FNDA:35,_ZN9__gnu_cxx5__ops15_Iter_comp_iterIZN4givp6detail28bidirectional_path_relinkingIZNS3_3runIRFdRKSt6vectorIdSaIdEEEEENS2_14OptimizeResultEOT_RKS6_ISt4pairIddESaISH_EENS2_10GivpConfigEEUlSA_E_NS3_3RngEEESG_IS8_dERKSE_SA_SA_mRSt8optionalINS3_15EvaluationCacheEERT0_RKSS_INSt6chrono10time_pointINSY_3_V212steady_clockENSY_8durationIlSt5ratioILl1ELl1000000000EEEEEEEEUlmmE_EC2ES1A_
FNDA:0,_ZN9__gnu_cxx5__ops15_Iter_comp_iterIZN4givp6detail28bidirectional_path_relinkingIZNS3_3runIRZL22CATCH2_INTERNAL_TEST_6vEUlRKSt6vectorIdSaIdEEE_EENS2_14OptimizeResultEOT_RKS6_ISt4pairIddESaISH_EENS2_10GivpConfigEEUlSA_E_NS3_3RngEEESG_IS8_dERKSE_SA_SA_mRSt8optionalINS3_15EvaluationCacheEERT0_RKSS_INSt6chrono10time_pointINSY_3_V212steady_clockENSY_8durationIlSt5ratioILl1ELl1000000000EEEEEEEEUlmmE_EC2ES1A_
FNDA:0,_ZN9__gnu_cxx5__ops15_Iter_comp_iterIZN4givp6detail28bidirectional_path_relinkingIZNS3_3runIRZL22CATCH2_INTERNAL_TEST_8vEUlRKSt6vectorIdSaIdEEE_EENS2_14OptimizeResultEOT_RKS6_ISt4pairIddESaISH_EENS2_10GivpConfigEEUlSA_E_NS3_3RngEEESG_IS8_dERKSE_SA_SA_mRSt8optionalINS3_15EvaluationCacheEERT0_RKSS_INSt6chrono10time_pointINSY_3_V212steady_clockENSY_8durationIlSt5ratioILl1ELl1000000000EEEEEEEEUlmmE_EC2ES1A_
FNDA:0,_ZN9__gnu_cxx5__ops15_Iter_comp_iterIZN4givp6detail28bidirectional_path_relinkingIZNS3_3runIRZL23CATCH2_INTERNAL_TEST_12vEUlRKSt6vectorIdSaIdEEE_EENS2_14OptimizeResultEOT_RKS6_ISt4pairIddESaISH_EENS2_10GivpConfigEEUlSA_E_NS3_3RngEEESG_IS8_dERKSE_SA_SA_mRSt8optionalINS3_15EvaluationCacheEERT0_RKSS_INSt6chrono10time_pointINSY_3_V212steady_clockENSY_8durationIlSt5ratioILl1ELl1000000000EEEEEEEEUlmmE_EC2ES1A_
FNDA:0,_ZN9__gnu_cxx5__ops15_Iter_comp_iterIZN4givp6detail28bidirectional_path_relinkingIZNS3_3runIRZL23CATCH2_INTERNAL_TEST_14vEUlRKSt6vectorIdSaIdEEE_EENS2_14OptimizeResultEOT_RKS6_ISt4pairIddESaISH_EENS2_10GivpConfigEEUlSA_E_NS3_3RngEEESG_IS8_dERKSE_SA_SA_mRSt8optionalINS3_15EvaluationCacheEERT0_RKSS_INSt6chrono10time_pointINSY_3_V212steady_clockENSY_8durationIlSt5ratioILl1ELl1000000000EEEEEEEEUlmmE_EC2ES1A_
FNDA:0,_ZN9__gnu_cxx5__ops15_Iter_comp_iterIZN4givp6detail28bidirectional_path_relinkingIZNS3_3runIRZL23CATCH2_INTERNAL_TEST_16vEUlRKSt6vectorIdSaIdEEE_EENS2_14OptimizeResultEOT_RKS6_ISt4pairIddESaISH_EENS2_10GivpConfigEEUlSA_E_NS3_3RngEEESG_IS8_dERKSE_SA_SA_mRSt8optionalINS3_15EvaluationCacheEERT0_RKSS_INSt6chrono10time_pointINSY_3_V212steady_clockENSY_8durationIlSt5ratioILl1ELl1000000000EEEEEEEEUlmmE_EC2ES1A_
FNDA:0,_ZN9__gnu_cxx5__ops15_Iter_comp_iterIZN4givp6detail28bidirectional_path_relinkingIZNS3_3runIRZL23CATCH2_INTERNAL_TEST_28vEUlRKSt6vectorIdSaIdEEE_EENS2_14OptimizeResultEOT_RKS6_ISt4pairIddESaISH_EENS2_10GivpConfigEEUlSA_E_NS3_3RngEEESG_IS8_dERKSE_SA_SA_mRSt8optionalINS3_15EvaluationCacheEERT0_RKSS_INSt6chrono10time_pointINSY_3_V212steady_clockENSY_8durationIlSt5ratioILl1ELl1000000000EEEEEEEEUlmmE_EC2ES1A_
FNDA:0,_ZN9__gnu_cxx5__ops15_Iter_comp_iterIZN4givp6detail28bidirectional_path_relinkingIZNS3_3runIRZL23CATCH2_INTERNAL_TEST_42vEUlRKSt6vectorIdSaIdEEE_EENS2_14OptimizeResultEOT_RKS6_ISt4pairIddESaISH_EENS2_10GivpConfigEEUlSA_E_NS3_3RngEEESG_IS8_dERKSE_SA_SA_mRSt8optionalINS3_15EvaluationCacheEERT0_RKSS_INSt6chrono10time_pointINSY_3_V212steady_clockENSY_8durationIlSt5ratioILl1ELl1000000000EEEEEEEEUlmmE_EC2ES1A_
FNDA:0,_ZN9__gnu_cxx5__ops15_Iter_comp_iterIZN4givp6detail28bidirectional_path_relinkingIZNS3_3runIRZL23CATCH2_INTERNAL_TEST_44vEUlRKSt6vectorIdSaIdEEE_EENS2_14OptimizeResultEOT_RKS6_ISt4pairIddESaISH_EENS2_10GivpConfigEEUlSA_E_NS3_3RngEEESG_IS8_dERKSE_SA_SA_mRSt8optionalINS3_15EvaluationCacheEERT0_RKSS_INSt6chrono10time_pointINSY_3_V212steady_clockENSY_8durationIlSt5ratioILl1ELl1000000000EEEEEEEEUlmmE_EC2ES1A_
FNDA:0,_ZN9__gnu_cxx5__ops15_Iter_comp_iterIZN4givp6detail28bidirectional_path_relinkingIZNS3_3runIZL23CATCH2_INTERNAL_TEST_16vEUlRKSt6vectorIdSaIdEEE_EENS2_14OptimizeResultEOT_RKS6_ISt4pairIddESaISG_EENS2_10GivpConfigEEUlSA_E_NS3_3RngEEESF_IS8_dERKSD_SA_SA_mRSt8optionalINS3_15EvaluationCacheEERT0_RKSR_INSt6chrono10time_pointINSX_3_V212steady_clockENSX_8durationIlSt5ratioILl1ELl1000000000EEEEEEEEUlmmE_EC2ES19_
FNDA:0,_ZN9__gnu_cxx5__ops15_Iter_comp_iterIZN4givp6detail28bidirectional_path_relinkingIZNS3_3runIZL23CATCH2_INTERNAL_TEST_18vEUlRKSt6vectorIdSaIdEEE_EENS2_14OptimizeResultEOT_RKS6_ISt4pairIddESaISG_EENS2_10GivpConfigEEUlSA_E_NS3_3RngEEESF_IS8_dERKSD_SA_SA_mRSt8optionalINS3_15EvaluationCacheEERT0_RKSR_INSt6chrono10time_pointINSX_3_V212steady_clockENSX_8durationIlSt5ratioILl1ELl1000000000EEEEEEEEUlmmE_EC2ES19_
FNDA:0,_ZN9__gnu_cxx5__ops15_Iter_comp_iterIZN4givp6detail28bidirectional_path_relinkingIZNS3_3runIZL23CATCH2_INTERNAL_TEST_20vEUlRKSt6vectorIdSaIdEEE_EENS2_14OptimizeResultEOT_RKS6_ISt4pairIddESaISG_EENS2_10GivpConfigEEUlSA_E_NS3_3RngEEESF_IS8_dERKSD_SA_SA_mRSt8optionalINS3_15EvaluationCacheEERT0_RKSR_INSt6chrono10time_pointINSX_3_V212steady_clockENSX_8durationIlSt5ratioILl1ELl1000000000EEEEEEEEUlmmE_EC2ES19_
FNDA:0,_ZN9__gnu_cxx5__ops15_Iter_comp_iterIZN4givp6detail28bidirectional_path_relinkingIZNS3_3runIZL23CATCH2_INTERNAL_TEST_22vEUlRKSt6vectorIdSaIdEEE_EENS2_14OptimizeResultEOT_RKS6_ISt4pairIddESaISG_EENS2_10GivpConfigEEUlSA_E_NS3_3RngEEESF_IS8_dERKSD_SA_SA_mRSt8optionalINS3_15EvaluationCacheEERT0_RKSR_INSt6chrono10time_pointINSX_3_V212steady_clockENSX_8durationIlSt5ratioILl1ELl1000000000EEEEEEEEUlmmE_EC2ES19_
