SF:/workspace/rust/src/bin/givp.rs
FN:15,_RNCNvCskYZbkf9ThA5_4givp10rosenbrock0B3_
FN:10,_RNCNvCskYZbkf9ThA5_4givp6sphere0B3_
FN:19,_RNvCskYZbkf9ThA5_4givp10parse_args
FN:13,_RNvCskYZbkf9ThA5_4givp10rosenbrock
FN:83,_RNvCskYZbkf9ThA5_4givp4main
FN:9,_RNvCskYZbkf9ThA5_4givp6sphere
FN:69,_RNvCskYZbkf9ThA5_4givp7to_json
FN:15,_RNCNvCslWinww16Alb_4givp10rosenbrock0B3_
FN:10,_RNCNvCslWinww16Alb_4givp6sphere0B3_
FN:19,_RNvCslWinww16Alb_4givp10parse_args
FN:13,_RNvCslWinww16Alb_4givp10rosenbrock
FN:83,_RNvCslWinww16Alb_4givp4main
FN:9,_RNvCslWinww16Alb_4givp6sphere
FN:69,_RNvCslWinww16Alb_4givp7to_json
FNDA:0,_RNCNvCskYZbkf9ThA5_4givp10rosenbrock0B3_
FNDA:0,_RNCNvCskYZbkf9ThA5_4givp6sphere0B3_
FNDA:0,_RNvCskYZbkf9ThA5_4givp10parse_args
FNDA:0,_RNvCskYZbkf9ThA5_4givp10rosenbrock
FNDA:0,_RNvCskYZbkf9ThA5_4givp4main
FNDA:0,_RNvCskYZbkf9ThA5_4givp6sphere
FNDA:0,_RNvCskYZbkf9ThA5_4givp7to_json
FNDA:0,_RNCNvCslWinww16Alb_4givp10rosenbrock0B3_
FNDA:0,_RNCNvCslWinww16Alb_4givp6sphere0B3_
FNDA:0,_RNvCslWinww16Alb_4givp10parse_args
FNDA:0,_RNvCslWinww16Alb_4givp10rosenbrock
FNDA:0,_RNvCslWinww16Alb_4givp4main
FNDA:0,_RNvCslWinww16Alb_4givp6sphere
FNDA:0,_RNvCslWinww16Alb_4givp7to_json
FNF:7
FNH:0
DA:9,0
DA:10,0
DA:11,0
DA:13,0
DA:14,0
DA:15,0
DA:16,0
DA:17,0
DA:19,0
DA:20,0
DA:21,0
DA:22,0
DA:23,0
DA:24,0
DA:25,0
DA:26,0
DA:27,0
DA:28,0
DA:29,0
DA:30,0
DA:31,0
DA:32,0
DA:33,0
DA:34,0
DA:35,0
DA:36,0
DA:37,0
DA:38,0
DA:39,0
DA:40,0
DA:41,0
DA:42,0
DA:43,0
DA:45,0
DA:47,0
DA:49,0
DA:50,0
DA:51,0
DA:55,0
DA:56,0
DA:69,0
DA:70,0
DA:71,0
DA:72,0
DA:73,0
DA:74,0
DA:75,0
DA:76,0
DA:77,0
DA:78,0
DA:79,0
DA:80,0
DA:81,0
DA:83,0
DA:84,0
DA:85,0
DA:86,0
DA:87,0
DA:90,0
DA:91,0
DA:92,0
DA:95,0
DA:96,0
DA:97,0
DA:98,0
DA:99,0
DA:100,0
DA:101,0
DA:102,0
DA:103,0
DA:104,0
DA:105,0
DA:106,0
DA:107,0
DA:108,0
DA:109,0
DA:110,0
DA:111,0
DA:112,0
DA:113,0
DA:114,0
DA:115,0
DA:116,0
DA:117,0
DA:118,0
DA:119,0
DA:120,0
DA:121,0
DA:122,0
DA:123,0
DA:124,0
DA:125,0
DA:126,0
DA:127,0
DA:128,0
DA:129,0
DA:132,0
BRF:0
BRH:0
LF:99
LH:0
end_of_record
SF:/workspace/rust/src/cache.rs
FN:26,_RNvMNtCsjFw2tM2VfHa_4givp5cacheNtB2_15EvaluationCache13hash_solution
FN:40,_RNvMNtCsjFw2tM2VfHa_4givp5cacheNtB2_15EvaluationCache3get
FN:16,_RNvMNtCsjFw2tM2VfHa_4givp5cacheNtB2_15EvaluationCache3new
FN:54,_RNvMNtCsjFw2tM2VfHa_4givp5cacheNtB2_15EvaluationCache3put
FN:69,_RNvMNtCsjFw2tM2VfHa_4givp5cacheNtB2_15EvaluationCache5clear
FN:75,_RNvMNtCsjFw2tM2VfHa_4givp5cacheNtB2_15EvaluationCache5stats
FN:91,_RNvNtNtCscmc0KBnNg4q_4givp5cache5testss_22test_cache_stats_empty
FN:124,_RNvNtNtCscmc0KBnNg4q_4givp5cache5testss_23test_cache_lru_eviction
FN:101,_RNvNtNtCscmc0KBnNg4q_4givp5cache5testss_26test_cache_stats_after_use
FN:114,_RNvNtNtCscmc0KBnNg4q_4givp5cache5testss_28test_cache_put_duplicate_key
FN:26,_RNvMNtCscmc0KBnNg4q_4givp5cacheNtB2_15EvaluationCache13hash_solution
FN:40,_RNvMNtCscmc0KBnNg4q_4givp5cacheNtB2_15EvaluationCache3get
FN:16,_RNvMNtCscmc0KBnNg4q_4givp5cacheNtB2_15EvaluationCache3new
FN:54,_RNvMNtCscmc0KBnNg4q_4givp5cacheNtB2_15EvaluationCache3put
FN:69,_RNvMNtCscmc0KBnNg4q_4givp5cacheNtB2_15EvaluationCache5clear
FN:75,_RNvMNtCscmc0KBnNg4q_4givp5cacheNtB2_15EvaluationCache5stats
FNDA:5806161,_RNvMNtCsjFw2tM2VfHa_4givp5cacheNtB2_15EvaluationCache13hash_solution
FNDA:3023221,_RNvMNtCsjFw2tM2VfHa_4givp5cacheNtB2_15EvaluationCache3get
FNDA:342,_RNvMNtCsjFw2tM2VfHa_4givp5cacheNtB2_15EvaluationCache3new
FNDA:2782940,_RNvMNtCsjFw2tM2VfHa_4givp5cacheNtB2_15EvaluationCache3put
FNDA:0,_RNvMNtCsjFw2tM2VfHa_4givp5cacheNtB2_15EvaluationCache5clear
FNDA:0,_RNvMNtCsjFw2tM2VfHa_4givp5cacheNtB2_15EvaluationCache5stats
FNDA:1,_RNvNtNtCscmc0KBnNg4q_4givp5cache5testss_22test_cache_stats_empty
FNDA:1,_RNvNtNtCscmc0KBnNg4q_4givp5cache5testss_23test_cache_lru_eviction
FNDA:1,_RNvNtNtCscmc0KBnNg4q_4givp5cache5testss_26test_cache_stats_after_use
FNDA:1,_RNvNtNtCscmc0KBnNg4q_4givp5cache5testss_28test_cache_put_duplicate_key
FNDA:12,_RNvMNtCscmc0KBnNg4q_4givp5cacheNtB2_15EvaluationCache13hash_solution
FNDA:6,_RNvMNtCscmc0KBnNg4q_4givp5cacheNtB2_15EvaluationCache3get
FNDA:4,_RNvMNtCscmc0KBnNg4q_4givp5cacheNtB2_15EvaluationCache3new
FNDA:6,_RNvMNtCscmc0KBnNg4q_4givp5cacheNtB2_15EvaluationCache3put
FNDA:0,_RNvMNtCscmc0KBnNg4q_4givp5cacheNtB2_15EvaluationCache5clear
FNDA:3,_RNvMNtCscmc0KBnNg4q_4givp5cacheNtB2_15EvaluationCache5stats
FNF:10
FNH:9
DA:16,346
DA:17,346
DA:18,346
DA:19,346
DA:20,346
DA:21,346
DA:22,346
DA:23,346
DA:24,346
DA:26,5806173
DA:28,5806173
DA:29,47221243
DA:30,47221243
DA:31,46936045
DA:33,285198
DA:35,47221243
DA:37,5806173
DA:38,5806173
DA:40,3023227
DA:41,3023227
DA:42,3023227
DA:43,240285
DA:44,240285
DA:45,240285
DA:48,2782942
DA:49,2782942
DA:52,3023227
DA:54,2782946
DA:55,2782946
DA:56,2782946
DA:57,1
DA:58,2782945
DA:59,2782945
DA:60,820835
DA:61,820835
DA:62,820835
DA:63,820835
DA:64,1962110
DA:65,2782945
DA:66,2782945
DA:67,2782946
DA:69,0
DA:70,0
DA:71,0
DA:72,0
DA:75,3
DA:76,3
DA:77,3
DA:78,2
DA:80,1
DA:82,3
DA:83,3
DA:91,1
DA:92,1
DA:93,1
DA:94,1
DA:95,1
DA:96,1
DA:97,1
DA:98,1
DA:101,1
DA:102,1
DA:103,1
DA:104,1
DA:105,1
DA:106,1
DA:107,1
DA:108,1
DA:109,1
DA:110,1
DA:111,1
DA:114,1
DA:115,1
DA:116,1
DA:117,1
DA:118,1
DA:119,1
DA:120,1
DA:121,1
DA:124,1
DA:125,1
DA:126,1
DA:127,1
DA:128,1
DA:129,1
DA:130,1
DA:131,1
DA:132,1
BRF:0
BRH:0
LF:88
LH:84
end_of_record
SF:/workspace/rust/src/config.rs
FN:78,_RNvMs_NtCsjFw2tM2VfHa_4givp6configNtB4_10GivpConfig8validate
FN:46,_RNvXNtCsjFw2tM2VfHa_4givp6configNtB2_10GivpConfigNtNtCs2va5m0jqTTM_4core7default7Default7default
FN:78,_RNvMs_NtCscmc0KBnNg4q_4givp6configNtB4_10GivpConfig8validate
FN:46,_RNvXNtCscmc0KBnNg4q_4givp6configNtB2_10GivpConfigNtNtCs2va5m0jqTTM_4core7default7Default7default
FNDA:365,_RNvMs_NtCsjFw2tM2VfHa_4givp6configNtB4_10GivpConfig8validate
FNDA:365,_RNvXNtCsjFw2tM2VfHa_4givp6configNtB2_10GivpConfigNtNtCs2va5m0jqTTM_4core7default7Default7default
FNDA:1,_RNvMs_NtCscmc0KBnNg4q_4givp6configNtB4_10GivpConfig8validate
FNDA:1,_RNvXNtCscmc0KBnNg4q_4givp6configNtB2_10GivpConfigNtNtCs2va5m0jqTTM_4core7default7Default7default
FNF:2
FNH:2
DA:46,366
DA:47,366
DA:48,366
DA:49,366
DA:50,366
DA:51,366
DA:52,366
DA:53,366
DA:54,366
DA:55,366
DA:56,366
DA:57,366
DA:58,366
DA:59,366
DA:60,366
DA:61,366
DA:62,366
DA:63,366
DA:64,366
DA:65,366
DA:66,366
DA:67,366
DA:68,366
DA:69,366
DA:70,366
DA:71,366
DA:72,366
DA:73,366
DA:78,366
DA:79,366
DA:80,2
DA:81,2
DA:82,2
DA:83,364
DA:84,364
DA:85,1
DA:86,1
DA:87,1
DA:88,363
DA:89,363
DA:90,1
DA:91,1
DA:92,1
DA:93,362
DA:94,362
DA:95,1
DA:96,361
DA:97,361
DA:98,1
DA:99,1
DA:100,1
DA:101,360
DA:102,360
DA:103,1
DA:104,1
DA:105,1
DA:106,359
DA:107,359
DA:108,1
DA:109,1
DA:110,1
DA:111,358
DA:112,358
DA:113,1
DA:114,1
DA:115,1
DA:116,357
DA:117,357
DA:118,1
DA:119,1
DA:120,1
DA:121,356
DA:122,356
DA:123,1
DA:124,1
DA:125,1
DA:126,355
DA:127,355
DA:128,1
DA:129,354
DA:130,354
DA:131,1
DA:132,1
DA:133,1
DA:134,353
DA:135,353
DA:136,1
DA:137,1
DA:138,1
DA:139,352
DA:140,352
DA:141,1
DA:142,351
DA:143,351
DA:144,366
BRF:0
BRH:0
LF:95
LH:95
end_of_record
SF:/workspace/rust/src/convergence.rs
FN:96,_RNvMNtCsjFw2tM2VfHa_4givp11convergenceNtB2_18ConvergenceMonitor16reset_no_improve
FN:73,_RNvMNtCsjFw2tM2VfHa_4givp11convergenceNtB2_18ConvergenceMonitor17compute_diversity
FN:25,_RNvMNtCsjFw2tM2VfHa_4givp11convergenceNtB2_18ConvergenceMonitor3new
FN:36,_RNvMNtCsjFw2tM2VfHa_4givp11convergenceNtB2_18ConvergenceMonitor6update
FN:86,_RNCNvMNtCsjFw2tM2VfHa_4givp11convergenceNtB4_18ConvergenceMonitor17compute_diversity0B6_
FN:107,_RNvNtNtCscmc0KBnNg4q_4givp11convergence5testss_30test_update_with_no_elite_pool
FN:120,_RNvNtNtCscmc0KBnNg4q_4givp11convergence5testss_38test_compute_diversity_single_solution
FN:96,_RNvMNtCscmc0KBnNg4q_4givp11convergenceNtB2_18ConvergenceMonitor16reset_no_improve
FN:73,_RNvMNtCscmc0KBnNg4q_4givp11convergenceNtB2_18ConvergenceMonitor17compute_diversity
FN:25,_RNvMNtCscmc0KBnNg4q_4givp11convergenceNtB2_18ConvergenceMonitor3new
FN:36,_RNvMNtCscmc0KBnNg4q_4givp11convergenceNtB2_18ConvergenceMonitor6update
FN:86,_RNCNvMNtCscmc0KBnNg4q_4givp11convergenceNtB4_18ConvergenceMonitor17compute_diversity0B6_
FNDA:0,_RNvMNtCsjFw2tM2VfHa_4givp11convergenceNtB2_18ConvergenceMonitor16reset_no_improve
FNDA:1970,_RNvMNtCsjFw2tM2VfHa_4givp11convergenceNtB2_18ConvergenceMonitor17compute_diversity
FNDA:344,_RNvMNtCsjFw2tM2VfHa_4givp11convergenceNtB2_18ConvergenceMonitor3new
FNDA:1970,_RNvMNtCsjFw2tM2VfHa_4givp11convergenceNtB2_18ConvergenceMonitor6update
FNDA:7105,_RNCNvMNtCsjFw2tM2VfHa_4givp11convergenceNtB4_18ConvergenceMonitor17compute_diversity0B6_
FNDA:1,_RNvNtNtCscmc0KBnNg4q_4givp11convergence5testss_30test_update_with_no_elite_pool
FNDA:1,_RNvNtNtCscmc0KBnNg4q_4givp11convergence5testss_38test_compute_diversity_single_solution
FNDA:0,_RNvMNtCscmc0KBnNg4q_4givp11convergenceNtB2_18ConvergenceMonitor16reset_no_improve
FNDA:1,_RNvMNtCscmc0KBnNg4q_4givp11convergenceNtB2_18ConvergenceMonitor17compute_diversity
FNDA:2,_RNvMNtCscmc0KBnNg4q_4givp11convergenceNtB2_18ConvergenceMonitor3new
FNDA:3,_RNvMNtCscmc0KBnNg4q_4givp11convergenceNtB2_18ConvergenceMonitor6update
FNDA:0,_RNCNvMNtCscmc0KBnNg4q_4givp11convergenceNtB4_18ConvergenceMonitor17compute_diversity0B6_
FNF:7
FNH:6
DA:25,346
DA:26,346
DA:27,346
DA:28,346
DA:29,346
DA:30,346
DA:31,346
DA:32,346
DA:33,346
DA:34,346
DA:36,1973
DA:37,1973
DA:38,1973
DA:39,1973
DA:40,1973
DA:41,1973
DA:42,771
DA:43,771
DA:44,1202
DA:45,1202
DA:46,1202
DA:48,1973
DA:49,1973
DA:50,40
DA:51,1933
DA:53,1973
DA:54,1971
DA:56,2
DA:59,1973
DA:60,1973
DA:61,1973
DA:62,1973
DA:63,1973
DA:65,1973
DA:66,1973
DA:67,1973
DA:68,1973
DA:69,1973
DA:70,1973
DA:71,1973
DA:73,1971
DA:74,1971
DA:75,1971
DA:76,234
DA:77,1737
DA:78,1737
DA:79,1737
DA:80,3673
DA:81,3673
DA:82,2492
DA:83,2492
DA:84,2492
DA:85,2492
DA:86,7105
DA:87,2492
DA:88,2492
DA:89,2492
DA:90,2492
DA:91,2492
DA:93,1737
DA:94,1971
DA:96,0
DA:97,0
DA:98,0
DA:107,1
DA:108,1
DA:109,1
DA:110,1
DA:111,1
DA:112,1
DA:114,1
DA:115,1
DA:116,1
DA:117,1
DA:120,1
DA:121,1
DA:122,1
DA:123,1
DA:124,1
DA:125,1
DA:126,1
DA:127,1
BRF:0
BRH:0
LF:83
LH:79
end_of_record
SF:/workspace/rust/src/elite.rs
FN:29,_RNvMNtCsjFw2tM2VfHa_4givp5eliteNtB2_9ElitePool17relative_distance
FN:40,_RNvMNtCsjFw2tM2VfHa_4givp5eliteNtB2_9ElitePool3add
FN:77,_RNvMNtCsjFw2tM2VfHa_4givp5eliteNtB2_9ElitePool3len
FN:15,_RNvMNtCsjFw2tM2VfHa_4givp5eliteNtB2_9ElitePool3new
FN:73,_RNvMNtCsjFw2tM2VfHa_4givp5eliteNtB2_9ElitePool7get_all
FN:87,_RNvMNtCsjFw2tM2VfHa_4givp5eliteNtB2_9ElitePool8keep_top
FN:69,_RNCNvMNtCsjFw2tM2VfHa_4givp5eliteNtB4_9ElitePool8get_best0B6_
FN:70,_RNCNvMNtCsjFw2tM2VfHa_4givp5eliteNtB4_9ElitePool8get_bests_0B6_
FN:82,_RNvMNtCsjFw2tM2VfHa_4givp5eliteNtB2_9ElitePool5clear
FN:66,_RNvMNtCsjFw2tM2VfHa_4givp5eliteNtB2_9ElitePool8get_best
FN:35,_RNCNvMNtCsjFw2tM2VfHa_4givp5eliteNtB4_9ElitePool17relative_distance0B6_
FN:50,_RNCNvMNtCsjFw2tM2VfHa_4givp5eliteNtB4_9ElitePool3add0B6_
FN:59,_RNCNvMNtCsjFw2tM2VfHa_4givp5eliteNtB4_9ElitePool3adds_0B6_
FN:19,_RNCNvMNtCsjFw2tM2VfHa_4givp5eliteNtB4_9ElitePool3new0B6_
FN:29,_RNvMNtCscmc0KBnNg4q_4givp5eliteNtB2_9ElitePool17relative_distance
FN:40,_RNvMNtCscmc0KBnNg4q_4givp5eliteNtB2_9ElitePool3add
FN:77,_RNvMNtCscmc0KBnNg4q_4givp5eliteNtB2_9ElitePool3len
FN:15,_RNvMNtCscmc0KBnNg4q_4givp5eliteNtB2_9ElitePool3new
FN:82,_RNvMNtCscmc0KBnNg4q_4givp5eliteNtB2_9ElitePool5clear
FN:73,_RNvMNtCscmc0KBnNg4q_4givp5eliteNtB2_9ElitePool7get_all
FN:66,_RNvMNtCscmc0KBnNg4q_4givp5eliteNtB2_9ElitePool8get_best
FN:87,_RNvMNtCscmc0KBnNg4q_4givp5eliteNtB2_9ElitePool8keep_top
FN:96,_RNvNtNtCscmc0KBnNg4q_4givp5elite5tests9make_pool
FN:116,_RNvNtNtCscmc0KBnNg4q_4givp5elite5testss_23test_clear_empties_pool
FN:101,_RNvNtNtCscmc0KBnNg4q_4givp5elite5testss_33test_get_best_empty_returns_error
FN:107,_RNvNtNtCscmc0KBnNg4q_4givp5elite5testss_33test_get_best_returns_lowest_cost
FN:136,_RNvNtNtCscmc0KBnNg4q_4givp5elite5testss_35test_add_replaces_worst_when_better
FN:125,_RNvNtNtCscmc0KBnNg4q_4givp5elite5testss_41test_add_rejects_when_full_and_not_better
FN:35,_RNCNvMNtCscmc0KBnNg4q_4givp5eliteNtB4_9ElitePool17relative_distance0B6_
FN:50,_RNCNvMNtCscmc0KBnNg4q_4givp5eliteNtB4_9ElitePool3add0B6_
FN:59,_RNCNvMNtCscmc0KBnNg4q_4givp5eliteNtB4_9ElitePool3adds_0B6_
FN:19,_RNCNvMNtCscmc0KBnNg4q_4givp5eliteNtB4_9ElitePool3new0B6_
FN:69,_RNCNvMNtCscmc0KBnNg4q_4givp5eliteNtB4_9ElitePool8get_best0B6_
FN:70,_RNCNvMNtCscmc0KBnNg4q_4givp5eliteNtB4_9ElitePool8get_bests_0B6_
FNDA:2055,_RNvMNtCsjFw2tM2VfHa_4givp5eliteNtB2_9ElitePool17relative_distance
FNDA:2314,_RNvMNtCsjFw2tM2VfHa_4givp5eliteNtB2_9ElitePool3add
FNDA:68,_RNvMNtCsjFw2tM2VfHa_4givp5eliteNtB2_9ElitePool3len
FNDA:345,_RNvMNtCsjFw2tM2VfHa_4givp5eliteNtB2_9ElitePool3new
FNDA:2031,_RNvMNtCsjFw2tM2VfHa_4givp5eliteNtB2_9ElitePool7get_all
FNDA:0,_RNvMNtCsjFw2tM2VfHa_4givp5eliteNtB2_9ElitePool8keep_top
FNDA:0,_RNCNvMNtCsjFw2tM2VfHa_4givp5eliteNtB4_9ElitePool8get_best0B6_
FNDA:0,_RNCNvMNtCsjFw2tM2VfHa_4givp5eliteNtB4_9ElitePool8get_bests_0B6_
FNDA:0,_RNvMNtCsjFw2tM2VfHa_4givp5eliteNtB2_9ElitePool5clear
FNDA:0,_RNvMNtCsjFw2tM2VfHa_4givp5eliteNtB2_9ElitePool8get_best
FNDA:5552,_RNCNvMNtCsjFw2tM2VfHa_4givp5eliteNtB4_9ElitePool17relative_distance0B6_
FNDA:334,_RNCNvMNtCsjFw2tM2VfHa_4givp5eliteNtB4_9ElitePool3add0B6_
FNDA:14,_RNCNvMNtCsjFw2tM2VfHa_4givp5eliteNtB4_9ElitePool3adds_0B6_
FNDA:835,_RNCNvMNtCsjFw2tM2VfHa_4givp5eliteNtB4_9ElitePool3new0B6_
FNDA:8,_RNvMNtCscmc0KBnNg4q_4givp5eliteNtB2_9ElitePool17relative_distance
FNDA:12,_RNvMNtCscmc0KBnNg4q_4givp5eliteNtB2_9ElitePool3add
FNDA:3,_RNvMNtCscmc0KBnNg4q_4givp5eliteNtB2_9ElitePool3len
FNDA:7,_RNvMNtCscmc0KBnNg4q_4givp5eliteNtB2_9ElitePool3new
FNDA:1,_RNvMNtCscmc0KBnNg4q_4givp5eliteNtB2_9ElitePool5clear
FNDA:2,_RNvMNtCscmc0KBnNg4q_4givp5eliteNtB2_9ElitePool7get_all
FNDA:3,_RNvMNtCscmc0KBnNg4q_4givp5eliteNtB2_9ElitePool8get_best
FNDA:0,_RNvMNtCscmc0KBnNg4q_4givp5eliteNtB2_9ElitePool8keep_top
FNDA:5,_RNvNtNtCscmc0KBnNg4q_4givp5elite5tests9make_pool
FNDA:1,_RNvNtNtCscmc0KBnNg4q_4givp5elite5testss_23test_clear_empties_pool
FNDA:1,_RNvNtNtCscmc0KBnNg4q_4givp5elite5testss_33test_get_best_empty_returns_error
FNDA:1,_RNvNtNtCscmc0KBnNg4q_4givp5elite5testss_33test_get_best_returns_lowest_cost
FNDA:1,_RNvNtNtCscmc0KBnNg4q_4givp5elite5testss_35test_add_replaces_worst_when_better
FNDA:1,_RNvNtNtCscmc0KBnNg4q_4givp5elite5testss_41test_add_rejects_when_full_and_not_better
FNDA:16,_RNCNvMNtCscmc0KBnNg4q_4givp5eliteNtB4_9ElitePool17relative_distance0B6_
FNDA:4,_RNCNvMNtCscmc0KBnNg4q_4givp5eliteNtB4_9ElitePool3add0B6_
FNDA:1,_RNCNvMNtCscmc0KBnNg4q_4givp5eliteNtB4_9ElitePool3adds_0B6_
FNDA:13,_RNCNvMNtCscmc0KBnNg4q_4givp5eliteNtB4_9ElitePool3new0B6_
FNDA:2,_RNCNvMNtCscmc0KBnNg4q_4givp5eliteNtB4_9ElitePool8get_best0B6_
FNDA:1,_RNCNvMNtCscmc0KBnNg4q_4givp5eliteNtB4_9ElitePool8get_bests_0B6_
FNF:20
FNH:19
DA:15,352
DA:16,352
DA:17,352
DA:18,352
DA:19,848
DA:20,352
DA:21,352
DA:22,352
DA:23,352
DA:24,352
DA:25,352
DA:26,352
DA:27,352
DA:29,2063
DA:30,2063
DA:31,2063
DA:32,2063
DA:33,2063
DA:34,2063
DA:35,5568
DA:36,2063
DA:37,2063
DA:38,2063
DA:40,2326
DA:42,2733
DA:43,2063
DA:44,1656
DA:45,407
DA:48,670
DA:49,663
DA:50,663
DA:51,663
DA:52,7
DA:53,7
DA:54,7
DA:55,7
DA:56,7
DA:57,3
DA:58,3
DA:59,15
DA:60,3
DA:61,4
DA:62,4
DA:63,2326
DA:66,3
DA:67,3
DA:68,3
DA:69,3
DA:70,3
DA:71,3
DA:73,2033
DA:74,2033
DA:75,2033
DA:77,71
DA:78,71
DA:79,71
DA:82,1
DA:83,1
DA:84,1
DA:87,0
DA:88,0
DA:89,0
DA:96,5
DA:97,5
DA:98,5
DA:101,1
DA:102,1
DA:103,1
DA:104,1
DA:107,1
DA:108,1
DA:109,1
DA:110,1
DA:111,1
DA:112,1
DA:113,1
DA:116,1
DA:117,1
DA:118,1
DA:119,1
DA:120,1
DA:121,1
DA:122,1
DA:125,1
DA:126,1
DA:127,1
DA:128,1
DA:129,1
DA:130,1
DA:131,1
DA:132,1
DA:133,1
DA:136,1
DA:137,1
DA:138,1
DA:139,1
DA:140,1
DA:141,1
DA:142,1
DA:143,1
DA:144,1
DA:145,1
BRF:0
BRH:0
LF:108
LH:105
end_of_record
SF:/workspace/rust/src/grasp.rs
FN:128,_RINvNtCsjFw2tM2VfHa_4givp5grasp15construct_graspNCINvNtB4_9impl_core3runFG_RL0_SdEdE0ECskYZbkf9ThA5_4givp
FN:27,_RINvNtCsjFw2tM2VfHa_4givp5grasp19evaluate_with_cacheNCINvNtB4_9impl_core3runFG_RL0_SdEdE0ECskYZbkf9ThA5_4givp
FN:176,_RNCINvNtCsjFw2tM2VfHa_4givp5grasp15construct_graspNCINvNtB6_9impl_core3runFG_RL0_SdEdE0E0CskYZbkf9ThA5_4givp
FN:187,_RNCINvNtCsjFw2tM2VfHa_4givp5grasp15construct_graspNCINvNtB6_9impl_core3runFG_RL0_SdEdE0Es0_0CskYZbkf9ThA5_4givp
FN:182,_RNCINvNtCsjFw2tM2VfHa_4givp5grasp15construct_graspNCINvNtB6_9impl_core3runFG_RL0_SdEdE0Es_0CskYZbkf9ThA5_4givp
FN:179,_RNCNCINvNtCsjFw2tM2VfHa_4givp5grasp15construct_graspNCINvNtB8_9impl_core3runFG_RL0_SdEdE0E00CskYZbkf9ThA5_4givp
FN:49,_RNvNtCsjFw2tM2VfHa_4givp5grasp15select_from_rcl
FN:11,_RNvNtCsjFw2tM2VfHa_4givp5grasp17get_current_alpha
FN:82,_RNvNtCsjFw2tM2VfHa_4givp5grasp22build_random_candidate
FN:100,_RNvNtCsjFw2tM2VfHa_4givp5grasp25build_heuristic_candidate
FN:72,_RNvNtCsjFw2tM2VfHa_4givp5grasp26sample_integer_from_bounds
FN:128,_RINvNtCsjFw2tM2VfHa_4givp5grasp15construct_grasppEB4_
FN:27,_RINvNtCsjFw2tM2VfHa_4givp5grasp19evaluate_with_cachepEB4_
FN:176,_RNCINvNtCsjFw2tM2VfHa_4givp5grasp15construct_grasppE0B6_
FN:187,_RNCINvNtCsjFw2tM2VfHa_4givp5grasp15construct_grasppEs0_0B6_
FN:182,_RNCINvNtCsjFw2tM2VfHa_4givp5grasp15construct_grasppEs_0B6_
FN:179,_RNCNCINvNtCsjFw2tM2VfHa_4givp5grasp15construct_grasppE00B8_
FN:60,_RNCNvNtCsjFw2tM2VfHa_4givp5grasp15select_from_rcl0B5_
FN:61,_RNCNvNtCsjFw2tM2VfHa_4givp5grasp15select_from_rcls_0B5_
FN:49,_RNvNtCscmc0KBnNg4q_4givp5grasp15select_from_rcl
FN:11,_RNvNtCscmc0KBnNg4q_4givp5grasp17get_current_alpha
FN:82,_RNvNtCscmc0KBnNg4q_4givp5grasp22build_random_candidate
FN:100,_RNvNtCscmc0KBnNg4q_4givp5grasp25build_heuristic_candidate
FN:72,_RNvNtCscmc0KBnNg4q_4givp5grasp26sample_integer_from_bounds
FN:128,_RINvNtCscmc0KBnNg4q_4givp5grasp15construct_graspNCINvNtB4_9impl_core3runNCNvNtBP_5testss_35test_run_with_invalid_config_errors0E0EB4_
FN:128,_RINvNtCscmc0KBnNg4q_4givp5grasp15construct_graspNCNvNtB2_5testss_54test_construct_grasp_expired_deadline_breaks_fill_loop0EB4_
FN:27,_RINvNtCscmc0KBnNg4q_4givp5grasp19evaluate_with_cacheNCINvNtB4_9impl_core3runNCNvNtBT_5testss_35test_run_with_invalid_config_errors0E0EB4_
FN:27,_RINvNtCscmc0KBnNg4q_4givp5grasp19evaluate_with_cacheNCNvNtB2_5testss_54test_construct_grasp_expired_deadline_breaks_fill_loop0EB4_
FN:27,_RINvNtCscmc0KBnNg4q_4givp5grasp19evaluate_with_cacheNCNvNtNtB4_2pr5testss_23test_backward_path_wins0EB4_
FN:27,_RINvNtCscmc0KBnNg4q_4givp5grasp19evaluate_with_cacheNCNvNtNtB4_2pr5testss_39test_expired_deadline_breaks_inner_loop0EB4_
FN:27,_RINvNtCscmc0KBnNg4q_4givp5grasp19evaluate_with_cacheNCNvNtNtB4_2pr5testss_44test_identical_solutions_returns_immediately0EB4_
FN:27,_RINvNtCscmc0KBnNg4q_4givp5grasp19evaluate_with_cacheNCNvNtNtB4_3vnd5testss_45test_local_search_vnd_expired_deadline_breaks0EB4_
FN:27,_RINvNtCscmc0KBnNg4q_4givp5grasp19evaluate_with_cacheNCNvNtNtB4_3vnd5testss_46test_neighborhood_flip_expired_deadline_breaks0EB4_
FN:27,_RINvNtCscmc0KBnNg4q_4givp5grasp19evaluate_with_cacheNCNvNtNtB4_3vnd5testss_46test_neighborhood_swap_expired_deadline_breaks0EB4_
FN:27,_RINvNtCscmc0KBnNg4q_4givp5grasp19evaluate_with_cacheNCNvNtNtB4_3vnd5testss_51test_neighborhood_multiflip_expired_deadline_breaks0EB4_
FN:27,_RINvNtCscmc0KBnNg4q_4givp5grasp19evaluate_with_cacheNCNvNtNtB4_9impl_core5testss_47test_do_path_relinking_expired_deadline_returns0EB4_
FN:176,_RNCINvNtCscmc0KBnNg4q_4givp5grasp15construct_graspNCINvNtB6_9impl_core3runNCNvNtBR_5testss_35test_run_with_invalid_config_errors0E0E0B6_
FN:187,_RNCINvNtCscmc0KBnNg4q_4givp5grasp15construct_graspNCINvNtB6_9impl_core3runNCNvNtBR_5testss_35test_run_with_invalid_config_errors0E0Es0_0B6_
FN:182,_RNCINvNtCscmc0KBnNg4q_4givp5grasp15construct_graspNCINvNtB6_9impl_core3runNCNvNtBR_5testss_35test_run_with_invalid_config_errors0E0Es_0B6_
FN:176,_RNCINvNtCscmc0KBnNg4q_4givp5grasp15construct_graspNCNvNtB4_5testss_54test_construct_grasp_expired_deadline_breaks_fill_loop0E0B6_
FN:187,_RNCINvNtCscmc0KBnNg4q_4givp5grasp15construct_graspNCNvNtB4_5testss_54test_construct_grasp_expired_deadline_breaks_fill_loop0Es0_0B6_
FN:182,_RNCINvNtCscmc0KBnNg4q_4givp5grasp15construct_graspNCNvNtB4_5testss_54test_construct_grasp_expired_deadline_breaks_fill_loop0Es_0B6_
FN:179,_RNCNCINvNtCscmc0KBnNg4q_4givp5grasp15construct_graspNCINvNtB8_9impl_core3runNCNvNtBT_5testss_35test_run_with_invalid_config_errors0E0E00B8_
FN:179,_RNCNCINvNtCscmc0KBnNg4q_4givp5grasp15construct_graspNCNvNtB6_5testss_54test_construct_grasp_expired_deadline_breaks_fill_loop0E00B8_
FN:60,_RNCNvNtCscmc0KBnNg4q_4givp5grasp15select_from_rcl0B5_
FN:61,_RNCNvNtCscmc0KBnNg4q_4givp5grasp15select_from_rcls_0B5_
FN:204,_RNvNtNtCscmc0KBnNg4q_4givp5grasp5testss_39test_select_from_rcl_empty_returns_none
FN:210,_RNvNtNtCscmc0KBnNg4q_4givp5grasp5testss_54test_construct_grasp_expired_deadline_breaks_fill_loop
FN:217,_RNCNCNvNtNtCscmc0KBnNg4q_4givp5grasp5testss_54test_construct_grasp_expired_deadline_breaks_fill_loop00B9_
FN:217,_RNCNvNtNtCscmc0KBnNg4q_4givp5grasp5testss_54test_construct_grasp_expired_deadline_breaks_fill_loop0B7_
FN:128,_RINvNtCsjFw2tM2VfHa_4givp5grasp15construct_graspNCINvNtB4_9impl_core3runNCNvNtCsejRbqt38Bgr_9test_givp5testss_13test_maximize0E0EB1e_
FN:128,_RINvNtCsjFw2tM2VfHa_4givp5grasp15construct_graspNCINvNtB4_9impl_core3runNCNvNtCsejRbqt38Bgr_9test_givp5testss_24test_panicking_objective0E0EB1e_
FN:128,_RINvNtCsjFw2tM2VfHa_4givp5grasp15construct_graspNCINvNtB4_9impl_core3runNvNtCsejRbqt38Bgr_9test_givp5tests10rosenbrockE0EB1c_
FN:128,_RINvNtCsjFw2tM2VfHa_4givp5grasp15construct_graspNCINvNtB4_9impl_core3runNvNtCsejRbqt38Bgr_9test_givp5tests6sphereE0EB1c_
FN:27,_RINvNtCsjFw2tM2VfHa_4givp5grasp19evaluate_with_cacheNCINvNtB4_9impl_core3runNCNvNtCsejRbqt38Bgr_9test_givp5testss_13test_maximize0E0EB1i_
FN:27,_RINvNtCsjFw2tM2VfHa_4givp5grasp19evaluate_with_cacheNCINvNtB4_9impl_core3runNCNvNtCsejRbqt38Bgr_9test_givp5testss_24test_panicking_objective0E0EB1i_
FN:27,_RINvNtCsjFw2tM2VfHa_4givp5grasp19evaluate_with_cacheNCINvNtB4_9impl_core3runNvNtCsejRbqt38Bgr_9test_givp5tests10rosenbrockE0EB1g_
FN:27,_RINvNtCsjFw2tM2VfHa_4givp5grasp19evaluate_with_cacheNCINvNtB4_9impl_core3runNvNtCsejRbqt38Bgr_9test_givp5tests6sphereE0EB1g_
FN:176,_RNCINvNtCsjFw2tM2VfHa_4givp5grasp15construct_graspNCINvNtB6_9impl_core3runNCNvNtCsejRbqt38Bgr_9test_givp5testss_13test_maximize0E0E0B1g_
FN:187,_RNCINvNtCsjFw2tM2VfHa_4givp5grasp15construct_graspNCINvNtB6_9impl_core3runNCNvNtCsejRbqt38Bgr_9test_givp5testss_13test_maximize0E0Es0_0B1g_
FN:182,_RNCINvNtCsjFw2tM2VfHa_4givp5grasp15construct_graspNCINvNtB6_9impl_core3runNCNvNtCsejRbqt38Bgr_9test_givp5testss_13test_maximize0E0Es_0B1g_
FN:176,_RNCINvNtCsjFw2tM2VfHa_4givp5grasp15construct_graspNCINvNtB6_9impl_core3runNCNvNtCsejRbqt38Bgr_9test_givp5testss_24test_panicking_objective0E0E0B1g_
FN:187,_RNCINvNtCsjFw2tM2VfHa_4givp5grasp15construct_graspNCINvNtB6_9impl_core3runNCNvNtCsejRbqt38Bgr_9test_givp5testss_24test_panicking_objective0E0Es0_0B1g_
FN:182,_RNCINvNtCsjFw2tM2VfHa_4givp5grasp15construct_graspNCINvNtB6_9impl_core3runNCNvNtCsejRbqt38Bgr_9test_givp5testss_24test_panicking_objective0E0Es_0B1g_
FN:176,_RNCINvNtCsjFw2tM2VfHa_4givp5grasp15construct_graspNCINvNtB6_9impl_core3runNvNtCsejRbqt38Bgr_9test_givp5tests10rosenbrockE0E0B1e_
FN:187,_RNCINvNtCsjFw2tM2VfHa_4givp5grasp15construct_graspNCINvNtB6_9impl_core3runNvNtCsejRbqt38Bgr_9test_givp5tests10rosenbrockE0Es0_0B1e_
FN:182,_RNCINvNtCsjFw2tM2VfHa_4givp5grasp15construct_graspNCINvNtB6_9impl_core3runNvNtCsejRbqt38Bgr_9test_givp5tests10rosenbrockE0Es_0B1e_
FN:176,_RNCINvNtCsjFw2tM2VfHa_4givp5grasp15construct_graspNCINvNtB6_9impl_core3runNvNtCsejRbqt38Bgr_9test_givp5tests6sphereE0E0B1e_
FN:187,_RNCINvNtCsjFw2tM2VfHa_4givp5grasp15construct_graspNCINvNtB6_9impl_core3runNvNtCsejRbqt38Bgr_9test_givp5tests6sphereE0Es0_0B1e_
FN:182,_RNCINvNtCsjFw2tM2VfHa_4givp5grasp15construct_graspNCINvNtB6_9impl_core3runNvNtCsejRbqt38Bgr_9test_givp5tests6sphereE0Es_0B1e_
FN:179,_RNCNCINvNtCsjFw2tM2VfHa_4givp5grasp15construct_graspNCINvNtB8_9impl_core3runNCNvNtCsejRbqt38Bgr_9test_givp5testss_13test_maximize0E0E00B1i_
FN:179,_RNCNCINvNtCsjFw2tM2VfHa_4givp5grasp15construct_graspNCINvNtB8_9impl_core3runNCNvNtCsejRbqt38Bgr_9test_givp5testss_24test_panicking_objective0E0E00B1i_
FN:179,_RNCNCINvNtCsjFw2tM2VfHa_4givp5grasp15construct_graspNCINvNtB8_9impl_core3runNvNtCsejRbqt38Bgr_9test_givp5tests10rosenbrockE0E00B1g_
FN:179,_RNCNCINvNtCsjFw2tM2VfHa_4givp5grasp15construct_graspNCINvNtB8_9impl_core3runNvNtCsejRbqt38Bgr_9test_givp5tests6sphereE0E00B1g_
FNDA:0,_RINvNtCsjFw2tM2VfHa_4givp5grasp15construct_graspNCINvNtB4_9impl_core3runFG_RL0_SdEdE0ECskYZbkf9ThA5_4givp
FNDA:0,_RINvNtCsjFw2tM2VfHa_4givp5grasp19evaluate_with_cacheNCINvNtB4_9impl_core3runFG_RL0_SdEdE0ECskYZbkf9ThA5_4givp
FNDA:0,_RNCINvNtCsjFw2tM2VfHa_4givp5grasp15construct_graspNCINvNtB6_9impl_core3runFG_RL0_SdEdE0E0CskYZbkf9ThA5_4givp
FNDA:0,_RNCINvNtCsjFw2tM2VfHa_4givp5grasp15construct_graspNCINvNtB6_9impl_core3runFG_RL0_SdEdE0Es0_0CskYZbkf9ThA5_4givp
FNDA:0,_RNCINvNtCsjFw2tM2VfHa_4givp5grasp15construct_graspNCINvNtB6_9impl_core3runFG_RL0_SdEdE0Es_0CskYZbkf9ThA5_4givp
FNDA:0,_RNCNCINvNtCsjFw2tM2VfHa_4givp5grasp15construct_graspNCINvNtB8_9impl_core3runFG_RL0_SdEdE0E00CskYZbkf9ThA5_4givp
FNDA:2729,_RNvNtCsjFw2tM2VfHa_4givp5grasp15select_from_rcl
FNDA:1980,_RNvNtCsjFw2tM2VfHa_4givp5grasp17get_current_alpha
FNDA:51298,_RNvNtCsjFw2tM2VfHa_4givp5grasp22build_random_candidate
FNDA:2729,_RNvNtCsjFw2tM2VfHa_4givp5grasp25build_heuristic_candidate
FNDA:3660,_RNvNtCsjFw2tM2VfHa_4givp5grasp26sample_integer_from_bounds
FNDA:0,_RINvNtCsjFw2tM2VfHa_4givp5grasp15construct_grasppEB4_
FNDA:0,_RINvNtCsjFw2tM2VfHa_4givp5grasp19evaluate_with_cachepEB4_
FNDA:0,_RNCINvNtCsjFw2tM2VfHa_4givp5grasp15construct_grasppE0B6_
FNDA:0,_RNCINvNtCsjFw2tM2VfHa_4givp5grasp15construct_grasppEs0_0B6_
FNDA:0,_RNCINvNtCsjFw2tM2VfHa_4givp5grasp15construct_grasppEs_0B6_
FNDA:0,_RNCNCINvNtCsjFw2tM2VfHa_4givp5grasp15construct_grasppE00B8_
FNDA:54028,_RNCNvNtCsjFw2tM2VfHa_4givp5grasp15select_from_rcl0B5_
FNDA:13767,_RNCNvNtCsjFw2tM2VfHa_4givp5grasp15select_from_rcls_0B5_
FNDA:2,_RNvNtCscmc0KBnNg4q_4givp5grasp15select_from_rcl
FNDA:0,_RNvNtCscmc0KBnNg4q_4givp5grasp17get_current_alpha
FNDA:0,_RNvNtCscmc0KBnNg4q_4givp5grasp22build_random_candidate
FNDA:1,_RNvNtCscmc0KBnNg4q_4givp5grasp25build_heuristic_candidate
FNDA:0,_RNvNtCscmc0KBnNg4q_4givp5grasp26sample_integer_from_bounds
FNDA:0,_RINvNtCscmc0KBnNg4q_4givp5grasp15construct_graspNCINvNtB4_9impl_core3runNCNvNtBP_5testss_35test_run_with_invalid_config_errors0E0EB4_
FNDA:1,_RINvNtCscmc0KBnNg4q_4givp5grasp15construct_graspNCNvNtB2_5testss_54test_construct_grasp_expired_deadline_breaks_fill_loop0EB4_
FNDA:0,_RINvNtCscmc0KBnNg4q_4givp5grasp19evaluate_with_cacheNCINvNtB4_9impl_core3runNCNvNtBT_5testss_35test_run_with_invalid_config_errors0E0EB4_
FNDA:1,_RINvNtCscmc0KBnNg4q_4givp5grasp19evaluate_with_cacheNCNvNtB2_5testss_54test_construct_grasp_expired_deadline_breaks_fill_loop0EB4_
FNDA:14,_RINvNtCscmc0KBnNg4q_4givp5grasp19evaluate_with_cacheNCNvNtNtB4_2pr5testss_23test_backward_path_wins0EB4_
FNDA:2,_RINvNtCscmc0KBnNg4q_4givp5grasp19evaluate_with_cacheNCNvNtNtB4_2pr5testss_39test_expired_deadline_breaks_inner_loop0EB4_
FNDA:1,_RINvNtCscmc0KBnNg4q_4givp5grasp19evaluate_with_cacheNCNvNtNtB4_2pr5testss_44test_identical_solutions_returns_immediately0EB4_
FNDA:0,_RINvNtCscmc0KBnNg4q_4givp5grasp19evaluate_with_cacheNCNvNtNtB4_3vnd5testss_45test_local_search_vnd_expired_deadline_breaks0EB4_
FNDA:0,_RINvNtCscmc0KBnNg4q_4givp5grasp19evaluate_with_cacheNCNvNtNtB4_3vnd5testss_46test_neighborhood_flip_expired_deadline_breaks0EB4_
FNDA:0,_RINvNtCscmc0KBnNg4q_4givp5grasp19evaluate_with_cacheNCNvNtNtB4_3vnd5testss_46test_neighborhood_swap_expired_deadline_breaks0EB4_
FNDA:0,_RINvNtCscmc0KBnNg4q_4givp5grasp19evaluate_with_cacheNCNvNtNtB4_3vnd5testss_51test_neighborhood_multiflip_expired_deadline_breaks0EB4_
FNDA:0,_RINvNtCscmc0KBnNg4q_4givp5grasp19evaluate_with_cacheNCNvNtNtB4_9impl_core5testss_47test_do_path_relinking_expired_deadline_returns0EB4_
FNDA:0,_RNCINvNtCscmc0KBnNg4q_4givp5grasp15construct_graspNCINvNtB6_9impl_core3runNCNvNtBR_5testss_35test_run_with_invalid_config_errors0E0E0B6_
FNDA:0,_RNCINvNtCscmc0KBnNg4q_4givp5grasp15construct_graspNCINvNtB6_9impl_core3runNCNvNtBR_5testss_35test_run_with_invalid_config_errors0E0Es0_0B6_
FNDA:0,_RNCINvNtCscmc0KBnNg4q_4givp5grasp15construct_graspNCINvNtB6_9impl_core3runNCNvNtBR_5testss_35test_run_with_invalid_config_errors0E0Es_0B6_
FNDA:0,_RNCINvNtCscmc0KBnNg4q_4givp5grasp15construct_graspNCNvNtB4_5testss_54test_construct_grasp_expired_deadline_breaks_fill_loop0E0B6_
FNDA:1,_RNCINvNtCscmc0KBnNg4q_4givp5grasp15construct_graspNCNvNtB4_5testss_54test_construct_grasp_expired_deadline_breaks_fill_loop0Es0_0B6_
FNDA:0,_RNCINvNtCscmc0KBnNg4q_4givp5grasp15construct_graspNCNvNtB4_5testss_54test_construct_grasp_expired_deadline_breaks_fill_loop0Es_0B6_
FNDA:0,_RNCNCINvNtCscmc0KBnNg4q_4givp5grasp15construct_graspNCINvNtB8_9impl_core3runNCNvNtBT_5testss_35test_run_with_invalid_config_errors0E0E00B8_
FNDA:0,_RNCNCINvNtCscmc0KBnNg4q_4givp5grasp15construct_graspNCNvNtB6_5testss_54test_construct_grasp_expired_deadline_breaks_fill_loop0E00B8_
FNDA:1,_RNCNvNtCscmc0KBnNg4q_4givp5grasp15select_from_rcl0B5_
FNDA:1,_RNCNvNtCscmc0KBnNg4q_4givp5grasp15select_from_rcls_0B5_
FNDA:1,_RNvNtNtCscmc0KBnNg4q_4givp5grasp5testss_39test_select_from_rcl_empty_returns_none
FNDA:1,_RNvNtNtCscmc0KBnNg4q_4givp5grasp5testss_54test_construct_grasp_expired_deadline_breaks_fill_loop
FNDA:2,_RNCNCNvNtNtCscmc0KBnNg4q_4givp5grasp5testss_54test_construct_grasp_expired_deadline_breaks_fill_loop00B9_
FNDA:1,_RNCNvNtNtCscmc0KBnNg4q_4givp5grasp5testss_54test_construct_grasp_expired_deadline_breaks_fill_loop0B7_
FNDA:23,_RINvNtCsjFw2tM2VfHa_4givp5grasp15construct_graspNCINvNtB4_9impl_core3runNCNvNtCsejRbqt38Bgr_9test_givp5testss_13test_maximize0E0EB1e_
FNDA:8,_RINvNtCsjFw2tM2VfHa_4givp5grasp15construct_graspNCINvNtB4_9impl_core3runNCNvNtCsejRbqt38Bgr_9test_givp5testss_24test_panicking_objective0E0EB1e_
FNDA:53,_RINvNtCsjFw2tM2VfHa_4givp5grasp15construct_graspNCINvNtB4_9impl_core3runNvNtCsejRbqt38Bgr_9test_givp5tests10rosenbrockE0EB1c_
FNDA:2645,_RINvNtCsjFw2tM2VfHa_4givp5grasp15construct_graspNCINvNtB4_9impl_core3runNvNtCsejRbqt38Bgr_9test_givp5tests6sphereE0EB1c_
FNDA:27701,_RINvNtCsjFw2tM2VfHa_4givp5grasp19evaluate_with_cacheNCINvNtB4_9impl_core3runNCNvNtCsejRbqt38Bgr_9test_givp5testss_13test_maximize0E0EB1i_
FNDA:5050,_RINvNtCsjFw2tM2VfHa_4givp5grasp19evaluate_with_cacheNCINvNtB4_9impl_core3runNCNvNtCsejRbqt38Bgr_9test_givp5testss_24test_panicking_objective0E0EB1i_
FNDA:70714,_RINvNtCsjFw2tM2VfHa_4givp5grasp19evaluate_with_cacheNCINvNtB4_9impl_core3runNvNtCsejRbqt38Bgr_9test_givp5tests10rosenbrockE0EB1g_
FNDA:3036142,_RINvNtCsjFw2tM2VfHa_4givp5grasp19evaluate_with_cacheNCINvNtB4_9impl_core3runNvNtCsejRbqt38Bgr_9test_givp5tests6sphereE0EB1g_
FNDA:0,_RNCINvNtCsjFw2tM2VfHa_4givp5grasp15construct_graspNCINvNtB6_9impl_core3runNCNvNtCsejRbqt38Bgr_9test_givp5testss_13test_maximize0E0E0B1g_
FNDA:460,_RNCINvNtCsjFw2tM2VfHa_4givp5grasp15construct_graspNCINvNtB6_9impl_core3runNCNvNtCsejRbqt38Bgr_9test_givp5testss_13test_maximize0E0Es0_0B1g_
FNDA:0,_RNCINvNtCsjFw2tM2VfHa_4givp5grasp15construct_graspNCINvNtB6_9impl_core3runNCNvNtCsejRbqt38Bgr_9test_givp5testss_13test_maximize0E0Es_0B1g_
FNDA:0,_RNCINvNtCsjFw2tM2VfHa_4givp5grasp15construct_graspNCINvNtB6_9impl_core3runNCNvNtCsejRbqt38Bgr_9test_givp5testss_24test_panicking_objective0E0E0B1g_
FNDA:160,_RNCINvNtCsjFw2tM2VfHa_4givp5grasp15construct_graspNCINvNtB6_9impl_core3runNCNvNtCsejRbqt38Bgr_9test_givp5testss_24test_panicking_objective0E0Es0_0B1g_
FNDA:0,_RNCINvNtCsjFw2tM2VfHa_4givp5grasp15construct_graspNCINvNtB6_9impl_core3runNCNvNtCsejRbqt38Bgr_9test_givp5testss_24test_panicking_objective0E0Es_0B1g_
FNDA:0,_RNCINvNtCsjFw2tM2VfHa_4givp5grasp15construct_graspNCINvNtB6_9impl_core3runNvNtCsejRbqt38Bgr_9test_givp5tests10rosenbrockE0E0B1e_
FNDA:1060,_RNCINvNtCsjFw2tM2VfHa_4givp5grasp15construct_graspNCINvNtB6_9impl_core3runNvNtCsejRbqt38Bgr_9test_givp5tests10rosenbrockE0Es0_0B1e_
FNDA:0,_RNCINvNtCsjFw2tM2VfHa_4givp5grasp15construct_graspNCINvNtB6_9impl_core3runNvNtCsejRbqt38Bgr_9test_givp5tests10rosenbrockE0Es_0B1e_
FNDA:23,_RNCINvNtCsjFw2tM2VfHa_4givp5grasp15construct_graspNCINvNtB6_9impl_core3runNvNtCsejRbqt38Bgr_9test_givp5tests6sphereE0E0B1e_
FNDA:52164,_RNCINvNtCsjFw2tM2VfHa_4givp5grasp15construct_graspNCINvNtB6_9impl_core3runNvNtCsejRbqt38Bgr_9test_givp5tests6sphereE0Es0_0B1e_
FNDA:0,_RNCINvNtCsjFw2tM2VfHa_4givp5grasp15construct_graspNCINvNtB6_9impl_core3runNvNtCsejRbqt38Bgr_9test_givp5tests6sphereE0Es_0B1e_
FNDA:0,_RNCNCINvNtCsjFw2tM2VfHa_4givp5grasp15construct_graspNCINvNtB8_9impl_core3runNCNvNtCsejRbqt38Bgr_9test_givp5testss_13test_maximize0E0E00B1i_
FNDA:0,_RNCNCINvNtCsjFw2tM2VfHa_4givp5grasp15construct_graspNCINvNtB8_9impl_core3runNCNvNtCsejRbqt38Bgr_9test_givp5testss_24test_panicking_objective0E0E00B1i_
FNDA:0,_RNCNCINvNtCsjFw2tM2VfHa_4givp5grasp15construct_graspNCINvNtB8_9impl_core3runNvNtCsejRbqt38Bgr_9test_givp5tests10rosenbrockE0E00B1g_
FNDA:184,_RNCNCINvNtCsjFw2tM2VfHa_4givp5grasp15construct_graspNCINvNtB8_9impl_core3runNvNtCsejRbqt38Bgr_9test_givp5tests6sphereE0E00B1g_
FNF:17
FNH:16
DA:11,1980
DA:12,1980
DA:13,1980
DA:14,1980
DA:15,1980
DA:16,1980
DA:17,1980
DA:18,1980
DA:19,1980
DA:20,10
DA:21,1970
DA:22,1970
DA:23,1970
DA:24,1980
DA:27,3139625
DA:28,3139625
DA:29,3139625
DA:30,3139625
DA:31,3139625
DA:32,3139625
DA:33,3139625
DA:34,3139625
DA:35,3139625
DA:36,3139625
DA:37,3023221
DA:38,240281
DA:39,2782940
DA:40,2782940
DA:41,2782940
DA:42,2782940
DA:44,116404
DA:46,3139625
DA:49,2731
DA:50,2731
DA:51,1
DA:52,2730
DA:53,2730
DA:54,2730
DA:55,2730
DA:56,2730
DA:57,2730
DA:58,2730
DA:59,2730
DA:60,54029
DA:61,13768
DA:62,2730
DA:63,2730
DA:64,2730
DA:65,8
DA:66,2722
DA:67,2722
DA:68,2722
DA:69,2731
DA:72,3660
DA:73,3660
DA:74,3660
DA:75,3660
DA:76,840
DA:77,2820
DA:78,2820
DA:79,3660
DA:82,51298
DA:83,51298
DA:84,51298
DA:85,51298
DA:86,51298
DA:87,51298
DA:88,51298
DA:89,51298
DA:90,131092
DA:91,131092
DA:92,131092
DA:93,51298
DA:94,3477
DA:95,3477
DA:96,51298
DA:97,51298
DA:100,2730
DA:101,2730
DA:102,2730
DA:103,2730
DA:104,2730
DA:105,2730
DA:106,2730
DA:107,2730
DA:108,7047
DA:109,7047
DA:110,7047
DA:111,7047
DA:112,7047
DA:113,7047
DA:114,2730
DA:115,183
DA:116,183
DA:117,2730
DA:118,2730
DA:128,2730
DA:129,2730
DA:130,2730
DA:131,2730
DA:132,2730
DA:133,2730
DA:134,2730
DA:135,2730
DA:136,2730
DA:137,2730
DA:138,2730
DA:139,2730
DA:140,2730
DA:141,2730
DA:142,2730
DA:143,2730
DA:144,2730
DA:145,2730
DA:148,2730
DA:149,1
DA:150,1
DA:151,1
DA:152,2729
DA:154,2730
DA:155,2730
DA:156,2730
DA:157,2730
DA:158,2730
DA:160,54028
DA:161,51299
DA:162,1
DA:163,51298
DA:164,51298
DA:165,51298
DA:166,51298
DA:170,2730
DA:172,23
DA:173,23
DA:174,23
DA:176,23
DA:177,23
DA:178,23
DA:179,184
DA:180,23
DA:181,23
DA:182,0
DA:185,2707
DA:186,2707
DA:187,53845
DA:188,2707
DA:192,2730
DA:193,2730
DA:194,2730
DA:204,1
DA:205,1
DA:206,1
DA:207,1
DA:210,1
DA:211,1
DA:212,1
DA:213,1
DA:214,1
DA:215,1
DA:216,1
DA:217,2
DA:218,1
DA:219,1
DA:220,1
DA:221,1
DA:222,1
DA:223,1
DA:224,1
BRF:0
BRH:0
LF:177
LH:173
end_of_record
SF:/workspace/rust/src/helpers.rs
FN:22,_RINvNtCsjFw2tM2VfHa_4givp7helpers13safe_evaluateNCINvNtB4_9impl_core3runFG_RL0_SdEdE0ECskYZbkf9ThA5_4givp
FN:26,_RNCINvNtCsjFw2tM2VfHa_4givp7helpers13safe_evaluateNCINvNtB6_9impl_core3runFG_RL0_SdEdE0E0CskYZbkf9ThA5_4givp
FN:50,_RNvNtCsjFw2tM2VfHa_4givp7helpers22normalize_integer_tail
FN:57,_RNvNtCsjFw2tM2VfHa_4givp7helpers5clamp
FN:14,_RNvNtCsjFw2tM2VfHa_4givp7helpers7expired
FN:34,_RNvNtCsjFw2tM2VfHa_4givp7helpers7new_rng
FN:9,_RNvNtCsjFw2tM2VfHa_4givp7helpers8get_half
FN:43,_RNvNtCsjFw2tM2VfHa_4givp7helpers9child_rng
FN:22,_RINvNtCsjFw2tM2VfHa_4givp7helpers13safe_evaluatepEB4_
FN:26,_RNCINvNtCsjFw2tM2VfHa_4givp7helpers13safe_evaluatepE0B6_
FN:50,_RNvNtCscmc0KBnNg4q_4givp7helpers22normalize_integer_tail
FN:57,_RNvNtCscmc0KBnNg4q_4givp7helpers5clamp
FN:14,_RNvNtCscmc0KBnNg4q_4givp7helpers7expired
FN:34,_RNvNtCscmc0KBnNg4q_4givp7helpers7new_rng
FN:9,_RNvNtCscmc0KBnNg4q_4givp7helpers8get_half
FN:43,_RNvNtCscmc0KBnNg4q_4givp7helpers9child_rng
FN:22,_RINvNtCscmc0KBnNg4q_4givp7helpers13safe_evaluateNCINvNtB4_9impl_core3runNCNvNtBP_5testss_35test_run_with_invalid_config_errors0E0EB4_
FN:22,_RINvNtCscmc0KBnNg4q_4givp7helpers13safe_evaluateNCNvNtNtB4_2pr5testss_23test_backward_path_wins0EB4_
FN:22,_RINvNtCscmc0KBnNg4q_4givp7helpers13safe_evaluateNCNvNtNtB4_2pr5testss_39test_expired_deadline_breaks_inner_loop0EB4_
FN:22,_RINvNtCscmc0KBnNg4q_4givp7helpers13safe_evaluateNCNvNtNtB4_2pr5testss_44test_identical_solutions_returns_immediately0EB4_
FN:22,_RINvNtCscmc0KBnNg4q_4givp7helpers13safe_evaluateNCNvNtNtB4_3vnd5testss_45test_local_search_vnd_expired_deadline_breaks0EB4_
FN:22,_RINvNtCscmc0KBnNg4q_4givp7helpers13safe_evaluateNCNvNtNtB4_3vnd5testss_46test_neighborhood_flip_expired_deadline_breaks0EB4_
FN:22,_RINvNtCscmc0KBnNg4q_4givp7helpers13safe_evaluateNCNvNtNtB4_3vnd5testss_46test_neighborhood_swap_expired_deadline_breaks0EB4_
FN:22,_RINvNtCscmc0KBnNg4q_4givp7helpers13safe_evaluateNCNvNtNtB4_3vnd5testss_51test_neighborhood_multiflip_expired_deadline_breaks0EB4_
FN:22,_RINvNtCscmc0KBnNg4q_4givp7helpers13safe_evaluateNCNvNtNtB4_5grasp5testss_54test_construct_grasp_expired_deadline_breaks_fill_loop0EB4_
FN:22,_RINvNtCscmc0KBnNg4q_4givp7helpers13safe_evaluateNCNvNtNtB4_9impl_core5testss_47test_do_path_relinking_expired_deadline_returns0EB4_
FN:26,_RNCINvNtCscmc0KBnNg4q_4givp7helpers13safe_evaluateNCINvNtB6_9impl_core3runNCNvNtBR_5testss_35test_run_with_invalid_config_errors0E0E0B6_
FN:26,_RNCINvNtCscmc0KBnNg4q_4givp7helpers13safe_evaluateNCNvNtNtB6_2pr5testss_23test_backward_path_wins0E0B6_
FN:26,_RNCINvNtCscmc0KBnNg4q_4givp7helpers13safe_evaluateNCNvNtNtB6_2pr5testss_39test_expired_deadline_breaks_inner_loop0E0B6_
FN:26,_RNCINvNtCscmc0KBnNg4q_4givp7helpers13safe_evaluateNCNvNtNtB6_2pr5testss_44test_identical_solutions_returns_immediately0E0B6_
FN:26,_RNCINvNtCscmc0KBnNg4q_4givp7helpers13safe_evaluateNCNvNtNtB6_3vnd5testss_45test_local_search_vnd_expired_deadline_breaks0E0B6_
FN:26,_RNCINvNtCscmc0KBnNg4q_4givp7helpers13safe_evaluateNCNvNtNtB6_3vnd5testss_46test_neighborhood_flip_expired_deadline_breaks0E0B6_
FN:26,_RNCINvNtCscmc0KBnNg4q_4givp7helpers13safe_evaluateNCNvNtNtB6_3vnd5testss_46test_neighborhood_swap_expired_deadline_breaks0E0B6_
FN:26,_RNCINvNtCscmc0KBnNg4q_4givp7helpers13safe_evaluateNCNvNtNtB6_3vnd5testss_51test_neighborhood_multiflip_expired_deadline_breaks0E0B6_
FN:26,_RNCINvNtCscmc0KBnNg4q_4givp7helpers13safe_evaluateNCNvNtNtB6_5grasp5testss_54test_construct_grasp_expired_deadline_breaks_fill_loop0E0B6_
FN:26,_RNCINvNtCscmc0KBnNg4q_4givp7helpers13safe_evaluateNCNvNtNtB6_9impl_core5testss_47test_do_path_relinking_expired_deadline_returns0E0B6_
FN:22,_RINvNtCsjFw2tM2VfHa_4givp7helpers13safe_evaluateNCINvNtB4_9impl_core3runNCNvNtCsejRbqt38Bgr_9test_givp5testss_13test_maximize0E0EB1e_
FN:22,_RINvNtCsjFw2tM2VfHa_4givp7helpers13safe_evaluateNCINvNtB4_9impl_core3runNCNvNtCsejRbqt38Bgr_9test_givp5testss_24test_panicking_objective0E0EB1e_
FN:22,_RINvNtCsjFw2tM2VfHa_4givp7helpers13safe_evaluateNCINvNtB4_9impl_core3runNvNtCsejRbqt38Bgr_9test_givp5tests10rosenbrockE0EB1c_
FN:22,_RINvNtCsjFw2tM2VfHa_4givp7helpers13safe_evaluateNCINvNtB4_9impl_core3runNvNtCsejRbqt38Bgr_9test_givp5tests6sphereE0EB1c_
FN:26,_RNCINvNtCsjFw2tM2VfHa_4givp7helpers13safe_evaluateNCINvNtB6_9impl_core3runNCNvNtCsejRbqt38Bgr_9test_givp5testss_13test_maximize0E0E0B1g_
FN:26,_RNCINvNtCsjFw2tM2VfHa_4givp7helpers13safe_evaluateNCINvNtB6_9impl_core3runNCNvNtCsejRbqt38Bgr_9test_givp5testss_24test_panicking_objective0E0E0B1g_
FN:26,_RNCINvNtCsjFw2tM2VfHa_4givp7helpers13safe_evaluateNCINvNtB6_9impl_core3runNvNtCsejRbqt38Bgr_9test_givp5tests10rosenbrockE0E0B1e_
FN:26,_RNCINvNtCsjFw2tM2VfHa_4givp7helpers13safe_evaluateNCINvNtB6_9impl_core3runNvNtCsejRbqt38Bgr_9test_givp5tests6sphereE0E0B1e_
FNDA:0,_RINvNtCsjFw2tM2VfHa_4givp7helpers13safe_evaluateNCINvNtB4_9impl_core3runFG_RL0_SdEdE0ECskYZbkf9ThA5_4givp
FNDA:0,_RNCINvNtCsjFw2tM2VfHa_4givp7helpers13safe_evaluateNCINvNtB6_9impl_core3runFG_RL0_SdEdE0E0CskYZbkf9ThA5_4givp
FNDA:1966602,_RNvNtCsjFw2tM2VfHa_4givp7helpers22normalize_integer_tail
FNDA:5258374,_RNvNtCsjFw2tM2VfHa_4givp7helpers5clamp
FNDA:3648684,_RNvNtCsjFw2tM2VfHa_4givp7helpers7expired
FNDA:345,_RNvNtCsjFw2tM2VfHa_4givp7helpers7new_rng
FNDA:345,_RNvNtCsjFw2tM2VfHa_4givp7helpers8get_half
FNDA:2790,_RNvNtCsjFw2tM2VfHa_4givp7helpers9child_rng
FNDA:0,_RINvNtCsjFw2tM2VfHa_4givp7helpers13safe_evaluatepEB4_
FNDA:0,_RNCINvNtCsjFw2tM2VfHa_4givp7helpers13safe_evaluatepE0B6_
FNDA:1,_RNvNtCscmc0KBnNg4q_4givp7helpers22normalize_integer_tail
FNDA:2,_RNvNtCscmc0KBnNg4q_4givp7helpers5clamp
FNDA:14,_RNvNtCscmc0KBnNg4q_4givp7helpers7expired
FNDA:0,_RNvNtCscmc0KBnNg4q_4givp7helpers7new_rng
FNDA:0,_RNvNtCscmc0KBnNg4q_4givp7helpers8get_half
FNDA:0,_RNvNtCscmc0KBnNg4q_4givp7helpers9child_rng
FNDA:0,_RINvNtCscmc0KBnNg4q_4givp7helpers13safe_evaluateNCINvNtB4_9impl_core3runNCNvNtBP_5testss_35test_run_with_invalid_config_errors0E0EB4_
FNDA:14,_RINvNtCscmc0KBnNg4q_4givp7helpers13safe_evaluateNCNvNtNtB4_2pr5testss_23test_backward_path_wins0EB4_
FNDA:2,_RINvNtCscmc0KBnNg4q_4givp7helpers13safe_evaluateNCNvNtNtB4_2pr5testss_39test_expired_deadline_breaks_inner_loop0EB4_
FNDA:1,_RINvNtCscmc0KBnNg4q_4givp7helpers13safe_evaluateNCNvNtNtB4_2pr5testss_44test_identical_solutions_returns_immediately0EB4_
FNDA:0,_RINvNtCscmc0KBnNg4q_4givp7helpers13safe_evaluateNCNvNtNtB4_3vnd5testss_45test_local_search_vnd_expired_deadline_breaks0EB4_
FNDA:0,_RINvNtCscmc0KBnNg4q_4givp7helpers13safe_evaluateNCNvNtNtB4_3vnd5testss_46test_neighborhood_flip_expired_deadline_breaks0EB4_
FNDA:0,_RINvNtCscmc0KBnNg4q_4givp7helpers13safe_evaluateNCNvNtNtB4_3vnd5testss_46test_neighborhood_swap_expired_deadline_breaks0EB4_
FNDA:0,_RINvNtCscmc0KBnNg4q_4givp7helpers13safe_evaluateNCNvNtNtB4_3vnd5testss_51test_neighborhood_multiflip_expired_deadline_breaks0EB4_
FNDA:1,_RINvNtCscmc0KBnNg4q_4givp7helpers13safe_evaluateNCNvNtNtB4_5grasp5testss_54test_construct_grasp_expired_deadline_breaks_fill_loop0EB4_
FNDA:0,_RINvNtCscmc0KBnNg4q_4givp7helpers13safe_evaluateNCNvNtNtB4_9impl_core5testss_47test_do_path_relinking_expired_deadline_returns0EB4_
FNDA:0,_RNCINvNtCscmc0KBnNg4q_4givp7helpers13safe_evaluateNCINvNtB6_9impl_core3runNCNvNtBR_5testss_35test_run_with_invalid_config_errors0E0E0B6_
FNDA:14,_RNCINvNtCscmc0KBnNg4q_4givp7helpers13safe_evaluateNCNvNtNtB6_2pr5testss_23test_backward_path_wins0E0B6_
FNDA:2,_RNCINvNtCscmc0KBnNg4q_4givp7helpers13safe_evaluateNCNvNtNtB6_2pr5testss_39test_expired_deadline_breaks_inner_loop0E0B6_
FNDA:1,_RNCINvNtCscmc0KBnNg4q_4givp7helpers13safe_evaluateNCNvNtNtB6_2pr5testss_44test_identical_solutions_returns_immediately0E0B6_
FNDA:0,_RNCINvNtCscmc0KBnNg4q_4givp7helpers13safe_evaluateNCNvNtNtB6_3vnd5testss_45test_local_search_vnd_expired_deadline_breaks0E0B6_
FNDA:0,_RNCINvNtCscmc0KBnNg4q_4givp7helpers13safe_evaluateNCNvNtNtB6_3vnd5testss_46test_neighborhood_flip_expired_deadline_breaks0E0B6_
FNDA:0,_RNCINvNtCscmc0KBnNg4q_4givp7helpers13safe_evaluateNCNvNtNtB6_3vnd5testss_46test_neighborhood_swap_expired_deadline_breaks0E0B6_
FNDA:0,_RNCINvNtCscmc0KBnNg4q_4givp7helpers13safe_evaluateNCNvNtNtB6_3vnd5testss_51test_neighborhood_multiflip_expired_deadline_breaks0E0B6_
FNDA:1,_RNCINvNtCscmc0KBnNg4q_4givp7helpers13safe_evaluateNCNvNtNtB6_5grasp5testss_54test_construct_grasp_expired_deadline_breaks_fill_loop0E0B6_
FNDA:0,_RNCINvNtCscmc0KBnNg4q_4givp7helpers13safe_evaluateNCNvNtNtB6_9impl_core5testss_47test_do_path_relinking_expired_deadline_returns0E0B6_
FNDA:27616,_RINvNtCsjFw2tM2VfHa_4givp7helpers13safe_evaluateNCINvNtB4_9impl_core3runNCNvNtCsejRbqt38Bgr_9test_givp5testss_13test_maximize0E0EB1e_
FNDA:5037,_RINvNtCsjFw2tM2VfHa_4givp7helpers13safe_evaluateNCINvNtB4_9impl_core3runNCNvNtCsejRbqt38Bgr_9test_givp5testss_24test_panicking_objective0E0EB1e_
FNDA:70129,_RINvNtCsjFw2tM2VfHa_4givp7helpers13safe_evaluateNCINvNtB4_9impl_core3runNvNtCsejRbqt38Bgr_9test_givp5tests10rosenbrockE0EB1c_
FNDA:2796728,_RINvNtCsjFw2tM2VfHa_4givp7helpers13safe_evaluateNCINvNtB4_9impl_core3runNvNtCsejRbqt38Bgr_9test_givp5tests6sphereE0EB1c_
FNDA:27616,_RNCINvNtCsjFw2tM2VfHa_4givp7helpers13safe_evaluateNCINvNtB6_9impl_core3runNCNvNtCsejRbqt38Bgr_9test_givp5testss_13test_maximize0E0E0B1g_
FNDA:5037,_RNCINvNtCsjFw2tM2VfHa_4givp7helpers13safe_evaluateNCINvNtB6_9impl_core3runNCNvNtCsejRbqt38Bgr_9test_givp5testss_24test_panicking_objective0E0E0B1g_
FNDA:70129,_RNCINvNtCsjFw2tM2VfHa_4givp7helpers13safe_evaluateNCINvNtB6_9impl_core3runNvNtCsejRbqt38Bgr_9test_givp5tests10rosenbrockE0E0B1e_
FNDA:2796728,_RNCINvNtCsjFw2tM2VfHa_4givp7helpers13safe_evaluateNCINvNtB6_9impl_core3runNvNtCsejRbqt38Bgr_9test_givp5tests6sphereE0E0B1e_
FNF:8
FNH:8
DA:9,345
DA:10,345
DA:11,345
DA:14,3648698
DA:15,3648698
DA:16,40191
DA:17,3608507
DA:19,3648698
DA:22,2899528
DA:23,2899528
DA:24,2899528
DA:25,2899528
DA:26,2899528
DA:27,2894491
DA:28,2894491
DA:29,5037
DA:31,2899528
DA:34,345
DA:36,345
DA:37,344
DA:38,1
DA:40,345
DA:43,2790
DA:45,2790
DA:46,2790
DA:47,2790
DA:50,1966603
DA:51,1966603
DA:52,149244
DA:53,149244
DA:54,1966603
DA:57,5258376
DA:58,5258376
DA:59,5258376
BRF:0
BRH:0
LF:35
LH:34
end_of_record
SF:/workspace/rust/src/ils.rs
FN:48,_RINvNtCsjFw2tM2VfHa_4givp3ils10ils_searchNCINvNtB4_9impl_core3runFG_RL0_SdEdE0ECskYZbkf9ThA5_4givp
FN:48,_RINvNtCsjFw2tM2VfHa_4givp3ils10ils_searchpEB4_
FN:12,_RNvNtCsjFw2tM2VfHa_4givp3ils16perturb_solution
FN:48,_RINvNtCscmc0KBnNg4q_4givp3ils10ils_searchNCINvNtB4_9impl_core3runNCNvNtBI_5testss_35test_run_with_invalid_config_errors0E0EB4_
FN:12,_RNvNtCscmc0KBnNg4q_4givp3ils16perturb_solution
FN:48,_RINvNtCsjFw2tM2VfHa_4givp3ils10ils_searchNCINvNtB4_9impl_core3runNCNvNtCsejRbqt38Bgr_9test_givp5testss_13test_maximize0E0EB17_
FN:48,_RINvNtCsjFw2tM2VfHa_4givp3ils10ils_searchNCINvNtB4_9impl_core3runNCNvNtCsejRbqt38Bgr_9test_givp5testss_24test_panicking_objective0E0EB17_
FN:48,_RINvNtCsjFw2tM2VfHa_4givp3ils10ils_searchNCINvNtB4_9impl_core3runNvNtCsejRbqt38Bgr_9test_givp5tests10rosenbrockE0EB15_
FN:48,_RINvNtCsjFw2tM2VfHa_4givp3ils10ils_searchNCINvNtB4_9impl_core3runNvNtCsejRbqt38Bgr_9test_givp5tests6sphereE0EB15_
FNDA:0,_RINvNtCsjFw2tM2VfHa_4givp3ils10ils_searchNCINvNtB4_9impl_core3runFG_RL0_SdEdE0ECskYZbkf9ThA5_4givp
FNDA:0,_RINvNtCsjFw2tM2VfHa_4givp3ils10ils_searchpEB4_
FNDA:23841,_RNvNtCsjFw2tM2VfHa_4givp3ils16perturb_solution
FNDA:0,_RINvNtCscmc0KBnNg4q_4givp3ils10ils_searchNCINvNtB4_9impl_core3runNCNvNtBI_5testss_35test_run_with_invalid_config_errors0E0EB4_
FNDA:0,_RNvNtCscmc0KBnNg4q_4givp3ils16perturb_solution
FNDA:22,_RINvNtCsjFw2tM2VfHa_4givp3ils10ils_searchNCINvNtB4_9impl_core3runNCNvNtCsejRbqt38Bgr_9test_givp5testss_13test_maximize0E0EB17_
FNDA:7,_RINvNtCsjFw2tM2VfHa_4givp3ils10ils_searchNCINvNtB4_9impl_core3runNCNvNtCsejRbqt38Bgr_9test_givp5testss_24test_panicking_objective0E0EB17_
FNDA:52,_RINvNtCsjFw2tM2VfHa_4givp3ils10ils_searchNCINvNtB4_9impl_core3runNvNtCsejRbqt38Bgr_9test_givp5tests10rosenbrockE0EB15_
FNDA:2304,_RINvNtCsjFw2tM2VfHa_4givp3ils10ils_searchNCINvNtB4_9impl_core3runNvNtCsejRbqt38Bgr_9test_givp5tests6sphereE0EB15_
FNF:2
FNH:2
DA:12,23841
DA:13,23841
DA:14,23841
DA:15,23841
DA:16,23841
DA:17,23841
DA:18,23841
DA:19,23841
DA:20,23841
DA:21,23841
DA:22,23841
DA:23,23841
DA:24,23841
DA:25,24933
DA:26,24933
DA:27,24933
DA:28,24933
DA:30,24933
DA:31,24933
DA:32,497
DA:33,497
DA:34,497
DA:35,24436
DA:36,24436
DA:37,24436
DA:38,24436
DA:39,24436
DA:42,23841
DA:43,23841
DA:44,23841
DA:48,2385
DA:49,2385
DA:50,2385
DA:51,2385
DA:52,2385
DA:53,2385
DA:54,2385
DA:55,2385
DA:56,2385
DA:57,2385
DA:58,2385
DA:59,2385
DA:60,2385
DA:61,2385
DA:62,2385
DA:63,2385
DA:64,2385
DA:65,2385
DA:66,2385
DA:68,23842
DA:69,23842
DA:70,1
DA:71,23841
DA:72,23841
DA:73,23841
DA:74,23841
DA:75,23841
DA:76,23841
DA:77,23841
DA:78,23841
DA:79,23841
DA:80,23841
DA:81,23841
DA:82,23841
DA:83,23841
DA:84,23841
DA:85,23841
DA:86,23841
DA:87,23841
DA:88,23841
DA:89,23841
DA:90,23841
DA:91,23841
DA:92,23841
DA:93,23841
DA:94,23841
DA:95,23841
DA:96,5560
DA:97,5560
DA:98,18281
DA:99,133
DA:100,133
DA:101,133
DA:102,18148
DA:105,2385
DA:106,2385
DA:107,2385
BRF:0
BRH:0
LF:87
LH:87
end_of_record
SF:/workspace/rust/src/impl_core.rs
FN:322,_RINvNtCsjFw2tM2VfHa_4givp9impl_core17do_path_relinkingNCINvB2_3runFG_RL0_SdEdE0ECskYZbkf9ThA5_4givp
FN:98,_RINvNtCsjFw2tM2VfHa_4givp9impl_core24initialize_best_solutionNCINvB2_3runFG_RL0_SdEdE0ECskYZbkf9ThA5_4givp
FN:137,_RINvNtCsjFw2tM2VfHa_4givp9impl_core27build_and_improve_candidateNCINvB2_3runFG_RL0_SdEdE0ECskYZbkf9ThA5_4givp
FN:250,_RINvNtCsjFw2tM2VfHa_4givp9impl_core29maybe_restart_from_stagnationNCINvB2_3runFG_RL0_SdEdE0ECskYZbkf9ThA5_4givp
FN:372,_RINvNtCsjFw2tM2VfHa_4givp9impl_core3runFG_RL0_SdEdECskYZbkf9ThA5_4givp
FN:385,_RNCINvNtCsjFw2tM2VfHa_4givp9impl_core3runFG_RL0_SdEdE0CskYZbkf9ThA5_4givp
FN:491,_RNCINvNtCsjFw2tM2VfHa_4givp9impl_core3runFG_RL0_SdEdEs_0CskYZbkf9ThA5_4givp
FN:322,_RINvNtCsjFw2tM2VfHa_4givp9impl_core17do_path_relinkingpEB4_
FN:98,_RINvNtCsjFw2tM2VfHa_4givp9impl_core24initialize_best_solutionpEB4_
FN:137,_RINvNtCsjFw2tM2VfHa_4givp9impl_core27build_and_improve_candidatepEB4_
FN:250,_RINvNtCsjFw2tM2VfHa_4givp9impl_core29maybe_restart_from_stagnationpEB4_
FN:372,_RINvNtCsjFw2tM2VfHa_4givp9impl_core3runpEB4_
FN:385,_RNCINvNtCsjFw2tM2VfHa_4givp9impl_core3runpE0B6_
FN:491,_RNCINvNtCsjFw2tM2VfHa_4givp9impl_core3runpEs_0B6_
FN:73,_RNvNtCsjFw2tM2VfHa_4givp9impl_core11build_cache
FN:205,_RNvNtCsjFw2tM2VfHa_4givp9impl_core11update_best
FN:89,_RNvNtCsjFw2tM2VfHa_4givp9impl_core14build_deadline
FN:19,_RNvNtCsjFw2tM2VfHa_4givp9impl_core15validate_bounds
FN:242,_RNvNtCsjFw2tM2VfHa_4givp9impl_core18should_path_relink
FN:39,_RNvNtCsjFw2tM2VfHa_4givp9impl_core21validate_single_bound
FN:53,_RNvNtCsjFw2tM2VfHa_4givp9impl_core22validate_initial_guess
FN:219,_RNvNtCsjFw2tM2VfHa_4givp9impl_core24update_convergence_state
FN:81,_RNvNtCsjFw2tM2VfHa_4givp9impl_core25build_convergence_monitor
FN:73,_RNvNtCscmc0KBnNg4q_4givp9impl_core11build_cache
FN:205,_RNvNtCscmc0KBnNg4q_4givp9impl_core11update_best
FN:89,_RNvNtCscmc0KBnNg4q_4givp9impl_core14build_deadline
FN:19,_RNvNtCscmc0KBnNg4q_4givp9impl_core15validate_bounds
FN:242,_RNvNtCscmc0KBnNg4q_4givp9impl_core18should_path_relink
FN:39,_RNvNtCscmc0KBnNg4q_4givp9impl_core21validate_single_bound
FN:53,_RNvNtCscmc0KBnNg4q_4givp9impl_core22validate_initial_guess
FN:219,_RNvNtCscmc0KBnNg4q_4givp9impl_core24update_convergence_state
FN:81,_RNvNtCscmc0KBnNg4q_4givp9impl_core25build_convergence_monitor
FN:322,_RINvNtCscmc0KBnNg4q_4givp9impl_core17do_path_relinkingNCINvB2_3runNCNvNtB2_5testss_35test_run_with_invalid_config_errors0E0EB4_
FN:322,_RINvNtCscmc0KBnNg4q_4givp9impl_core17do_path_relinkingNCNvNtB2_5testss_47test_do_path_relinking_expired_deadline_returns0EB4_
FN:98,_RINvNtCscmc0KBnNg4q_4givp9impl_core24initialize_best_solutionNCINvB2_3runNCNvNtB2_5testss_35test_run_with_invalid_config_errors0E0EB4_
FN:137,_RINvNtCscmc0KBnNg4q_4givp9impl_core27build_and_improve_candidateNCINvB2_3runNCNvNtB2_5testss_35test_run_with_invalid_config_errors0E0EB4_
FN:250,_RINvNtCscmc0KBnNg4q_4givp9impl_core29maybe_restart_from_stagnationNCINvB2_3runNCNvNtB2_5testss_35test_run_with_invalid_config_errors0E0EB4_
FN:372,_RINvNtCscmc0KBnNg4q_4givp9impl_core3runNCNvNtB2_5testss_35test_run_with_invalid_config_errors0EB4_
FN:385,_RNCINvNtCscmc0KBnNg4q_4givp9impl_core3runNCNvNtB4_5testss_35test_run_with_invalid_config_errors0E0B6_
FN:491,_RNCINvNtCscmc0KBnNg4q_4givp9impl_core3runNCNvNtB4_5testss_35test_run_with_invalid_config_errors0Es_0B6_
FN:524,_RNvNtNtCscmc0KBnNg4q_4givp9impl_core5testss_35test_run_with_invalid_config_errors
FN:535,_RNvNtNtCscmc0KBnNg4q_4givp9impl_core5testss_47test_do_path_relinking_expired_deadline_returns
FN:537,_RNCNCNvNtNtCscmc0KBnNg4q_4givp9impl_core5testss_47test_do_path_relinking_expired_deadline_returns00B9_
FN:526,_RNCNvNtNtCscmc0KBnNg4q_4givp9impl_core5testss_35test_run_with_invalid_config_errors0B7_
FN:537,_RNCNvNtNtCscmc0KBnNg4q_4givp9impl_core5testss_47test_do_path_relinking_expired_deadline_returns0B7_
FN:322,_RINvNtCsjFw2tM2VfHa_4givp9impl_core17do_path_relinkingNCINvB2_3runNCNvNtCsejRbqt38Bgr_9test_givp5testss_13test_maximize0E0EB18_
FN:322,_RINvNtCsjFw2tM2VfHa_4givp9impl_core17do_path_relinkingNCINvB2_3runNCNvNtCsejRbqt38Bgr_9test_givp5testss_24test_panicking_objective0E0EB18_
FN:322,_RINvNtCsjFw2tM2VfHa_4givp9impl_core17do_path_relinkingNCINvB2_3runNvNtCsejRbqt38Bgr_9test_givp5tests10rosenbrockE0EB16_
FN:322,_RINvNtCsjFw2tM2VfHa_4givp9impl_core17do_path_relinkingNCINvB2_3runNvNtCsejRbqt38Bgr_9test_givp5tests6sphereE0EB16_
FN:98,_RINvNtCsjFw2tM2VfHa_4givp9impl_core24initialize_best_solutionNCINvB2_3runNCNvNtCsejRbqt38Bgr_9test_givp5testss_13test_maximize0E0EB1f_
FN:98,_RINvNtCsjFw2tM2VfHa_4givp9impl_core24initialize_best_solutionNCINvB2_3runNCNvNtCsejRbqt38Bgr_9test_givp5testss_24test_panicking_objective0E0EB1f_
FN:98,_RINvNtCsjFw2tM2VfHa_4givp9impl_core24initialize_best_solutionNCINvB2_3runNvNtCsejRbqt38Bgr_9test_givp5tests10rosenbrockE0EB1d_
FN:98,_RINvNtCsjFw2tM2VfHa_4givp9impl_core24initialize_best_solutionNCINvB2_3runNvNtCsejRbqt38Bgr_9test_givp5tests6sphereE0EB1d_
FN:137,_RINvNtCsjFw2tM2VfHa_4givp9impl_core27build_and_improve_candidateNCINvB2_3runNCNvNtCsejRbqt38Bgr_9test_givp5testss_13test_maximize0E0EB1i_
FN:137,_RINvNtCsjFw2tM2VfHa_4givp9impl_core27build_and_improve_candidateNCINvB2_3runNCNvNtCsejRbqt38Bgr_9test_givp5testss_24test_panicking_objective0E0EB1i_
FN:137,_RINvNtCsjFw2tM2VfHa_4givp9impl_core27build_and_improve_candidateNCINvB2_3runNvNtCsejRbqt38Bgr_9test_givp5tests10rosenbrockE0EB1g_
FN:137,_RINvNtCsjFw2tM2VfHa_4givp9impl_core27build_and_improve_candidateNCINvB2_3runNvNtCsejRbqt38Bgr_9test_givp5tests6sphereE0EB1g_
FN:250,_RINvNtCsjFw2tM2VfHa_4givp9impl_core29maybe_restart_from_stagnationNCINvB2_3runNCNvNtCsejRbqt38Bgr_9test_givp5testss_13test_maximize0E0EB1k_
FN:250,_RINvNtCsjFw2tM2VfHa_4givp9impl_core29maybe_restart_from_stagnationNCINvB2_3runNCNvNtCsejRbqt38Bgr_9test_givp5testss_24test_panicking_objective0E0EB1k_
FN:250,_RINvNtCsjFw2tM2VfHa_4givp9impl_core29maybe_restart_from_stagnationNCINvB2_3runNvNtCsejRbqt38Bgr_9test_givp5tests10rosenbrockE0EB1i_
FN:250,_RINvNtCsjFw2tM2VfHa_4givp9impl_core29maybe_restart_from_stagnationNCINvB2_3runNvNtCsejRbqt38Bgr_9test_givp5tests6sphereE0EB1i_
FN:372,_RINvNtCsjFw2tM2VfHa_4givp9impl_core3runNCNvNtCsejRbqt38Bgr_9test_givp5testss_13test_maximize0EBH_
FN:372,_RINvNtCsjFw2tM2VfHa_4givp9impl_core3runNCNvNtCsejRbqt38Bgr_9test_givp5testss_24test_panicking_objective0EBH_
FN:372,_RINvNtCsjFw2tM2VfHa_4givp9impl_core3runNvNtCsejRbqt38Bgr_9test_givp5tests10rosenbrockEBF_
FN:372,_RINvNtCsjFw2tM2VfHa_4givp9impl_core3runNvNtCsejRbqt38Bgr_9test_givp5tests6sphereEBF_
FN:385,_RNCINvNtCsjFw2tM2VfHa_4givp9impl_core3runNCNvNtCsejRbqt38Bgr_9test_givp5testss_13test_maximize0E0BJ_
FN:491,_RNCINvNtCsjFw2tM2VfHa_4givp9impl_core3runNCNvNtCsejRbqt38Bgr_9test_givp5testss_13test_maximize0Es_0BJ_
FN:385,_RNCINvNtCsjFw2tM2VfHa_4givp9impl_core3runNCNvNtCsejRbqt38Bgr_9test_givp5testss_24test_panicking_objective0E0BJ_
FN:491,_RNCINvNtCsjFw2tM2VfHa_4givp9impl_core3runNCNvNtCsejRbqt38Bgr_9test_givp5testss_24test_panicking_objective0Es_0BJ_
FN:385,_RNCINvNtCsjFw2tM2VfHa_4givp9impl_core3runNvNtCsejRbqt38Bgr_9test_givp5tests10rosenbrockE0BH_
FN:491,_RNCINvNtCsjFw2tM2VfHa_4givp9impl_core3runNvNtCsejRbqt38Bgr_9test_givp5tests10rosenbrockEs_0BH_
FN:385,_RNCINvNtCsjFw2tM2VfHa_4givp9impl_core3runNvNtCsejRbqt38Bgr_9test_givp5tests6sphereE0BH_
FN:491,_RNCINvNtCsjFw2tM2VfHa_4givp9impl_core3runNvNtCsejRbqt38Bgr_9test_givp5tests6sphereEs_0BH_
FNDA:0,_RINvNtCsjFw2tM2VfHa_4givp9impl_core17do_path_relinkingNCINvB2_3runFG_RL0_SdEdE0ECskYZbkf9ThA5_4givp
FNDA:0,_RINvNtCsjFw2tM2VfHa_4givp9impl_core24initialize_best_solutionNCINvB2_3runFG_RL0_SdEdE0ECskYZbkf9ThA5_4givp
FNDA:0,_RINvNtCsjFw2tM2VfHa_4givp9impl_core27build_and_improve_candidateNCINvB2_3runFG_RL0_SdEdE0ECskYZbkf9ThA5_4givp
FNDA:0,_RINvNtCsjFw2tM2VfHa_4givp9impl_core29maybe_restart_from_stagnationNCINvB2_3runFG_RL0_SdEdE0ECskYZbkf9ThA5_4givp
FNDA:0,_RINvNtCsjFw2tM2VfHa_4givp9impl_core3runFG_RL0_SdEdECskYZbkf9ThA5_4givp
FNDA:0,_RNCINvNtCsjFw2tM2VfHa_4givp9impl_core3runFG_RL0_SdEdE0CskYZbkf9ThA5_4givp
FNDA:0,_RNCINvNtCsjFw2tM2VfHa_4givp9impl_core3runFG_RL0_SdEdEs_0CskYZbkf9ThA5_4givp
FNDA:0,_RINvNtCsjFw2tM2VfHa_4givp9impl_core17do_path_relinkingpEB4_
FNDA:0,_RINvNtCsjFw2tM2VfHa_4givp9impl_core24initialize_best_solutionpEB4_
FNDA:0,_RINvNtCsjFw2tM2VfHa_4givp9impl_core27build_and_improve_candidatepEB4_
FNDA:0,_RINvNtCsjFw2tM2VfHa_4givp9impl_core29maybe_restart_from_stagnationpEB4_
FNDA:0,_RINvNtCsjFw2tM2VfHa_4givp9impl_core3runpEB4_
FNDA:0,_RNCINvNtCsjFw2tM2VfHa_4givp9impl_core3runpE0B6_
FNDA:0,_RNCINvNtCsjFw2tM2VfHa_4givp9impl_core3runpEs_0B6_
FNDA:345,_RNvNtCsjFw2tM2VfHa_4givp9impl_core11build_cache
FNDA:1980,_RNvNtCsjFw2tM2VfHa_4givp9impl_core11update_best
FNDA:345,_RNvNtCsjFw2tM2VfHa_4givp9impl_core14build_deadline
FNDA:350,_RNvNtCsjFw2tM2VfHa_4givp9impl_core15validate_bounds
FNDA:1980,_RNvNtCsjFw2tM2VfHa_4givp9impl_core18should_path_relink
FNDA:841,_RNvNtCsjFw2tM2VfHa_4givp9impl_core21validate_single_bound
FNDA:3,_RNvNtCsjFw2tM2VfHa_4givp9impl_core22validate_initial_guess
FNDA:1980,_RNvNtCsjFw2tM2VfHa_4givp9impl_core24update_convergence_state
FNDA:345,_RNvNtCsjFw2tM2VfHa_4givp9impl_core25build_convergence_monitor
FNDA:0,_RNvNtCscmc0KBnNg4q_4givp9impl_core11build_cache
FNDA:0,_RNvNtCscmc0KBnNg4q_4givp9impl_core11update_best
FNDA:0,_RNvNtCscmc0KBnNg4q_4givp9impl_core14build_deadline
FNDA:0,_RNvNtCscmc0KBnNg4q_4givp9impl_core15validate_bounds
FNDA:0,_RNvNtCscmc0KBnNg4q_4givp9impl_core18should_path_relink
FNDA:0,_RNvNtCscmc0KBnNg4q_4givp9impl_core21validate_single_bound
FNDA:0,_RNvNtCscmc0KBnNg4q_4givp9impl_core22validate_initial_guess
FNDA:0,_RNvNtCscmc0KBnNg4q_4givp9impl_core24update_convergence_state
FNDA:0,_RNvNtCscmc0KBnNg4q_4givp9impl_core25build_convergence_monitor
FNDA:0,_RINvNtCscmc0KBnNg4q_4givp9impl_core17do_path_relinkingNCINvB2_3runNCNvNtB2_5testss_35test_run_with_invalid_config_errors0E0EB4_
FNDA:1,_RINvNtCscmc0KBnNg4q_4givp9impl_core17do_path_relinkingNCNvNtB2_5testss_47test_do_path_relinking_expired_deadline_returns0EB4_
FNDA:0,_RINvNtCscmc0KBnNg4q_4givp9impl_core24initialize_best_solutionNCINvB2_3runNCNvNtB2_5testss_35test_run_with_invalid_config_errors0E0EB4_
FNDA:0,_RINvNtCscmc0KBnNg4q_4givp9impl_core27build_and_improve_candidateNCINvB2_3runNCNvNtB2_5testss_35test_run_with_invalid_config_errors0E0EB4_
FNDA:0,_RINvNtCscmc0KBnNg4q_4givp9impl_core29maybe_restart_from_stagnationNCINvB2_3runNCNvNtB2_5testss_35test_run_with_invalid_config_errors0E0EB4_
FNDA:1,_RINvNtCscmc0KBnNg4q_4givp9impl_core3runNCNvNtB2_5testss_35test_run_with_invalid_config_errors0EB4_
FNDA:0,_RNCINvNtCscmc0KBnNg4q_4givp9impl_core3runNCNvNtB4_5testss_35test_run_with_invalid_config_errors0E0B6_
FNDA:0,_RNCINvNtCscmc0KBnNg4q_4givp9impl_core3runNCNvNtB4_5testss_35test_run_with_invalid_config_errors0Es_0B6_
FNDA:1,_RNvNtNtCscmc0KBnNg4q_4givp9impl_core5testss_35test_run_with_invalid_config_errors
FNDA:1,_RNvNtNtCscmc0KBnNg4q_4givp9impl_core5testss_47test_do_path_relinking_expired_deadline_returns
FNDA:2,_RNCNCNvNtNtCscmc0KBnNg4q_4givp9impl_core5testss_47test_do_path_relinking_expired_deadline_returns00B9_
FNDA:0,_RNCNvNtNtCscmc0KBnNg4q_4givp9impl_core5testss_35test_run_with_invalid_config_errors0B7_
FNDA:1,_RNCNvNtNtCscmc0KBnNg4q_4givp9impl_core5testss_47test_do_path_relinking_expired_deadline_returns0B7_
FNDA:2,_RINvNtCsjFw2tM2VfHa_4givp9impl_core17do_path_relinkingNCINvB2_3runNCNvNtCsejRbqt38Bgr_9test_givp5testss_13test_maximize0E0EB18_
FNDA:0,_RINvNtCsjFw2tM2VfHa_4givp9impl_core17do_path_relinkingNCINvB2_3runNCNvNtCsejRbqt38Bgr_9test_givp5testss_24test_panicking_objective0E0EB18_
FNDA:6,_RINvNtCsjFw2tM2VfHa_4givp9impl_core17do_path_relinkingNCINvB2_3runNvNtCsejRbqt38Bgr_9test_givp5tests10rosenbrockE0EB16_
FNDA:53,_RINvNtCsjFw2tM2VfHa_4givp9impl_core17do_path_relinkingNCINvB2_3runNvNtCsejRbqt38Bgr_9test_givp5tests6sphereE0EB16_
FNDA:1,_RINvNtCsjFw2tM2VfHa_4givp9impl_core24initialize_best_solutionNCINvB2_3runNCNvNtCsejRbqt38Bgr_9test_givp5testss_13test_maximize0E0EB1f_
FNDA:1,_RINvNtCsjFw2tM2VfHa_4givp9impl_core24initialize_best_solutionNCINvB2_3runNCNvNtCsejRbqt38Bgr_9test_givp5testss_24test_panicking_objective0E0EB1f_
FNDA:1,_RINvNtCsjFw2tM2VfHa_4givp9impl_core24initialize_best_solutionNCINvB2_3runNvNtCsejRbqt38Bgr_9test_givp5tests10rosenbrockE0EB1d_
FNDA:342,_RINvNtCsjFw2tM2VfHa_4givp9impl_core24initialize_best_solutionNCINvB2_3runNvNtCsejRbqt38Bgr_9test_givp5tests6sphereE0EB1d_
FNDA:20,_RINvNtCsjFw2tM2VfHa_4givp9impl_core27build_and_improve_candidateNCINvB2_3runNCNvNtCsejRbqt38Bgr_9test_givp5testss_13test_maximize0E0EB1i_
FNDA:5,_RINvNtCsjFw2tM2VfHa_4givp9impl_core27build_and_improve_candidateNCINvB2_3runNCNvNtCsejRbqt38Bgr_9test_givp5testss_24test_panicking_objective0E0EB1i_
FNDA:50,_RINvNtCsjFw2tM2VfHa_4givp9impl_core27build_and_improve_candidateNCINvB2_3runNvNtCsejRbqt38Bgr_9test_givp5tests10rosenbrockE0EB1g_
FNDA:1905,_RINvNtCsjFw2tM2VfHa_4givp9impl_core27build_and_improve_candidateNCINvB2_3runNvNtCsejRbqt38Bgr_9test_givp5tests6sphereE0EB1g_
FNDA:20,_RINvNtCsjFw2tM2VfHa_4givp9impl_core29maybe_restart_from_stagnationNCINvB2_3runNCNvNtCsejRbqt38Bgr_9test_givp5testss_13test_maximize0E0EB1k_
FNDA:5,_RINvNtCsjFw2tM2VfHa_4givp9impl_core29maybe_restart_from_stagnationNCINvB2_3runNCNvNtCsejRbqt38Bgr_9test_givp5testss_24test_panicking_objective0E0EB1k_
FNDA:50,_RINvNtCsjFw2tM2VfHa_4givp9impl_core29maybe_restart_from_stagnationNCINvB2_3runNvNtCsejRbqt38Bgr_9test_givp5tests10rosenbrockE0EB1i_
FNDA:1905,_RINvNtCsjFw2tM2VfHa_4givp9impl_core29maybe_restart_from_stagnationNCINvB2_3runNvNtCsejRbqt38Bgr_9test_givp5tests6sphereE0EB1i_
FNDA:1,_RINvNtCsjFw2tM2VfHa_4givp9impl_core3runNCNvNtCsejRbqt38Bgr_9test_givp5testss_13test_maximize0EBH_
FNDA:1,_RINvNtCsjFw2tM2VfHa_4givp9impl_core3runNCNvNtCsejRbqt38Bgr_9test_givp5testss_24test_panicking_objective0EBH_
FNDA:1,_RINvNtCsjFw2tM2VfHa_4givp9impl_core3runNvNtCsejRbqt38Bgr_9test_givp5tests10rosenbrockEBF_
FNDA:347,_RINvNtCsjFw2tM2VfHa_4givp9impl_core3runNvNtCsejRbqt38Bgr_9test_givp5tests6sphereEBF_
FNDA:27616,_RNCINvNtCsjFw2tM2VfHa_4givp9impl_core3runNCNvNtCsejRbqt38Bgr_9test_givp5testss_13test_maximize0E0BJ_
FNDA:20,_RNCINvNtCsjFw2tM2VfHa_4givp9impl_core3runNCNvNtCsejRbqt38Bgr_9test_givp5testss_13test_maximize0Es_0BJ_
FNDA:5037,_RNCINvNtCsjFw2tM2VfHa_4givp9impl_core3runNCNvNtCsejRbqt38Bgr_9test_givp5testss_24test_panicking_objective0E0BJ_
FNDA:5,_RNCINvNtCsjFw2tM2VfHa_4givp9impl_core3runNCNvNtCsejRbqt38Bgr_9test_givp5testss_24test_panicking_objective0Es_0BJ_
FNDA:70129,_RNCINvNtCsjFw2tM2VfHa_4givp9impl_core3runNvNtCsejRbqt38Bgr_9test_givp5tests10rosenbrockE0BH_
FNDA:50,_RNCINvNtCsjFw2tM2VfHa_4givp9impl_core3runNvNtCsejRbqt38Bgr_9test_givp5tests10rosenbrockEs_0BH_
FNDA:2796728,_RNCINvNtCsjFw2tM2VfHa_4givp9impl_core3runNvNtCsejRbqt38Bgr_9test_givp5tests6sphereE0BH_
FNDA:1895,_RNCINvNtCsjFw2tM2VfHa_4givp9impl_core3runNvNtCsejRbqt38Bgr_9test_givp5tests6sphereEs_0BH_
FNF:21
FNH:20
DA:19,350
DA:20,350
DA:21,350
DA:22,350
DA:23,350
DA:24,1
DA:25,349
DA:26,349
DA:27,349
DA:28,841
DA:29,841
DA:30,839
DA:31,839
DA:33,347
DA:34,3
DA:35,344
DA:36,345
DA:37,350
DA:39,841
DA:40,841
DA:41,1
DA:42,1
DA:43,1
DA:44,840
DA:45,840
DA:46,1
DA:47,1
DA:48,1
DA:49,839
DA:50,839
DA:51,841
DA:53,3
DA:54,3
DA:55,1
DA:56,1
DA:57,1
DA:58,1
DA:59,1
DA:60,2
DA:62,4
DA:63,4
DA:64,1
DA:65,1
DA:66,1
DA:67,3
DA:70,1
DA:71,3
DA:73,345
DA:74,345
DA:75,342
DA:77,3
DA:79,345
DA:81,345
DA:82,345
DA:83,344
DA:85,1
DA:87,345
DA:89,345
DA:90,345
DA:91,1
DA:93,344
DA:95,345
DA:98,345
DA:99,345
DA:100,345
DA:101,345
DA:102,345
DA:103,345
DA:104,345
DA:105,345
DA:106,345
DA:107,345
DA:108,345
DA:109,345
DA:110,345
DA:111,345
DA:112,345
DA:113,1
DA:114,1
DA:115,1
DA:116,1
DA:117,344
DA:118,344
DA:119,344
DA:120,344
DA:121,344
DA:122,344
DA:123,344
DA:124,344
DA:125,344
DA:126,344
DA:127,344
DA:128,344
DA:129,344
DA:130,344
DA:131,344
DA:132,344
DA:133,344
DA:134,345
DA:137,1980
DA:138,1980
DA:139,1980
DA:140,1980
DA:141,1980
DA:142,1980
DA:143,1980
DA:144,1980
DA:145,1980
DA:146,1980
DA:147,1980
DA:148,1980
DA:149,1980
DA:150,1980
DA:151,1980
DA:152,1980
DA:153,1980
DA:154,1980
DA:155,345
DA:157,1635
DA:159,1980
DA:160,1980
DA:161,1980
DA:162,1980
DA:163,1980
DA:164,1980
DA:165,1980
DA:166,1980
DA:167,1980
DA:168,1980
DA:169,1980
DA:170,1980
DA:171,1980
DA:172,1980
DA:173,1980
DA:174,1980
DA:175,1980
DA:176,1980
DA:177,1980
DA:178,1980
DA:179,1980
DA:180,1980
DA:181,1980
DA:182,1980
DA:183,1980
DA:184,1980
DA:185,1980
DA:186,1980
DA:187,1980
DA:188,1980
DA:189,1980
DA:190,1980
DA:191,1980
DA:192,1980
DA:193,1980
DA:194,1980
DA:195,1980
DA:196,1980
DA:197,1980
DA:198,1980
DA:199,1980
DA:200,1980
DA:201,1980
DA:202,1980
DA:203,1980
DA:205,1980
DA:206,1980
DA:207,1980
DA:208,1980
DA:209,1980
DA:210,1980
DA:211,1980
DA:212,730
DA:213,730
DA:214,730
DA:215,1250
DA:216,1250
DA:217,1980
DA:219,1980
DA:220,1980
DA:221,1980
DA:222,1980
DA:223,1980
DA:224,1980
DA:225,1980
DA:226,1980
DA:228,1970
DA:229,1970
DA:230,0
DA:231,0
DA:232,0
DA:233,0
DA:234,0
DA:235,0
DA:236,0
DA:237,1970
DA:238,1970
DA:239,1970
DA:240,1980
DA:242,1980
DA:243,1980
DA:244,1970
DA:245,1626
DA:246,68
DA:247,1980
DA:250,1980
DA:251,1980
DA:252,1980
DA:253,1980
DA:254,1980
DA:255,1980
DA:256,1980
DA:257,1980
DA:258,1980
DA:259,1980
DA:260,1980
DA:261,1980
DA:262,1980
DA:263,1980
DA:264,1980
DA:265,1980
DA:266,1980
DA:267,1980
DA:268,1575
DA:269,405
DA:270,405
DA:271,405
DA:272,405
DA:273,405
DA:274,405
DA:275,405
DA:276,405
DA:277,405
DA:278,405
DA:279,405
DA:280,405
DA:281,405
DA:282,405
DA:283,405
DA:284,405
DA:285,405
DA:286,405
DA:287,405
DA:288,405
DA:289,405
DA:290,405
DA:291,405
DA:292,405
DA:293,405
DA:294,405
DA:295,405
DA:296,405
DA:297,405
DA:298,405
DA:299,405
DA:300,405
DA:301,405
DA:302,405
DA:303,405
DA:304,405
DA:305,405
DA:306,405
DA:307,405
DA:308,405
DA:309,405
DA:310,405
DA:311,405
DA:312,405
DA:313,405
DA:314,48
DA:315,48
DA:316,357
DA:317,405
DA:318,1980
DA:322,62
DA:323,62
DA:324,62
DA:325,62
DA:326,62
DA:327,62
DA:328,62
DA:329,62
DA:330,62
DA:331,62
DA:332,62
DA:333,62
DA:334,62
DA:335,62
DA:336,62
DA:337,62
DA:338,62
DA:339,62
DA:340,129
DA:341,129
DA:342,104
DA:343,1
DA:344,103
DA:345,103
DA:346,103
DA:347,103
DA:348,103
DA:349,103
DA:350,103
DA:351,103
DA:352,103
DA:353,103
DA:354,103
DA:355,103
DA:356,103
DA:357,103
DA:358,103
DA:359,103
DA:360,103
DA:361,103
DA:362,103
DA:363,103
DA:364,6
DA:365,6
DA:366,97
DA:369,62
DA:372,351
DA:373,351
DA:374,351
DA:375,351
DA:376,351
DA:378,350
DA:379,345
DA:380,345
DA:381,345
DA:382,345
DA:383,345
DA:384,345
DA:385,2899510
DA:386,2899510
DA:387,2899510
DA:388,2899510
DA:389,27616
DA:391,2871894
DA:393,2899510
DA:395,345
DA:396,345
DA:397,345
DA:398,345
DA:399,345
DA:400,345
DA:401,345
DA:402,345
DA:403,345
DA:404,345
DA:405,345
DA:406,345
DA:407,344
DA:408,344
DA:410,345
DA:411,345
DA:412,345
DA:415,1981
DA:416,1981
DA:417,1
DA:418,1
DA:419,1980
DA:420,1980
DA:421,1980
DA:422,1980
DA:423,1980
DA:424,1980
DA:425,1980
DA:426,1980
DA:427,1980
DA:428,1980
DA:429,1980
DA:430,1980
DA:431,1980
DA:432,1980
DA:433,1980
DA:434,1980
DA:435,1980
DA:436,1980
DA:437,730
DA:438,1250
DA:439,1250
DA:440,1250
DA:443,1980
DA:444,1970
DA:445,1970
DA:448,1980
DA:449,1980
DA:450,1980
DA:451,1980
DA:452,1980
DA:453,1980
DA:454,1980
DA:455,1980
DA:456,1980
DA:457,1980
DA:458,61
DA:459,61
DA:460,61
DA:461,61
DA:462,61
DA:463,61
DA:464,61
DA:465,61
DA:466,61
DA:467,61
DA:468,61
DA:469,61
DA:470,61
DA:471,61
DA:472,1919
DA:474,1980
DA:475,1980
DA:476,1980
DA:477,1980
DA:478,1980
DA:479,1980
DA:480,1980
DA:481,1980
DA:482,1980
DA:483,1980
DA:484,1980
DA:485,1980
DA:486,1980
DA:487,1980
DA:488,1980
DA:489,1980
DA:490,1980
DA:491,1980
DA:492,1
DA:493,1
DA:494,1979
DA:495,1979
DA:496,1979
DA:497,343
DA:498,1636
DA:502,345
DA:504,345
DA:505,345
DA:506,345
DA:507,345
DA:508,345
DA:509,345
DA:510,345
DA:511,345
DA:512,345
DA:513,345
DA:514,351
DA:524,1
DA:525,1
DA:526,1
DA:527,1
DA:528,1
DA:529,1
DA:530,1
DA:531,1
DA:532,1
DA:535,1
DA:536,1
DA:537,2
DA:538,1
DA:539,1
DA:540,1
DA:541,1
DA:542,1
DA:543,1
DA:544,1
DA:545,1
DA:546,1
DA:547,1
DA:548,1
DA:549,1
DA:550,1
DA:551,1
DA:552,1
DA:553,1
DA:554,1
DA:555,1
DA:556,1
DA:557,1
DA:558,1
DA:559,1
DA:560,1
DA:561,1
BRF:0
BRH:0
LF:487
LH:477
end_of_record
SF:/workspace/rust/src/lib.rs
FN:49,_RINvCsjFw2tM2VfHa_4givp4givpFG_RL0_SdEdECskYZbkf9ThA5_4givp
FN:49,_RINvCsjFw2tM2VfHa_4givp4givppEB2_
FN:49,_RINvCscmc0KBnNg4q_4givp4givppEB2_
FN:49,_RINvCsjFw2tM2VfHa_4givp4givpNCNvNtCsejRbqt38Bgr_9test_givp5testss_13test_maximize0EBw_
FN:49,_RINvCsjFw2tM2VfHa_4givp4givpNCNvNtCsejRbqt38Bgr_9test_givp5testss_24test_panicking_objective0EBw_
FN:49,_RINvCsjFw2tM2VfHa_4givp4givpNvNtCsejRbqt38Bgr_9test_givp5tests10rosenbrockEBu_
FN:49,_RINvCsjFw2tM2VfHa_4givp4givpNvNtCsejRbqt38Bgr_9test_givp5tests6sphereEBu_
FNDA:0,_RINvCsjFw2tM2VfHa_4givp4givpFG_RL0_SdEdECskYZbkf9ThA5_4givp
FNDA:0,_RINvCsjFw2tM2VfHa_4givp4givppEB2_
FNDA:0,_RINvCscmc0KBnNg4q_4givp4givppEB2_
FNDA:1,_RINvCsjFw2tM2VfHa_4givp4givpNCNvNtCsejRbqt38Bgr_9test_givp5testss_13test_maximize0EBw_
FNDA:1,_RINvCsjFw2tM2VfHa_4givp4givpNCNvNtCsejRbqt38Bgr_9test_givp5testss_24test_panicking_objective0EBw_
FNDA:1,_RINvCsjFw2tM2VfHa_4givp4givpNvNtCsejRbqt38Bgr_9test_givp5tests10rosenbrockEBu_
FNDA:347,_RINvCsjFw2tM2VfHa_4givp4givpNvNtCsejRbqt38Bgr_9test_givp5tests6sphereEBu_
FNF:1
FNH:1
DA:49,350
DA:50,350
DA:51,350
DA:52,350
DA:53,350
DA:54,350
BRF:0
BRH:0
LF:6
LH:6
end_of_record
SF:/workspace/rust/src/pr.rs
FN:14,_RINvNtCsjFw2tM2VfHa_4givp2pr19path_relinking_bestNCINvNtB4_9impl_core3runFG_RL0_SdEdE0ECskYZbkf9ThA5_4givp
FN:63,_RINvNtCsjFw2tM2VfHa_4givp2pr28bidirectional_path_relinkingNCINvNtB4_9impl_core3runFG_RL0_SdEdE0ECskYZbkf9ThA5_4givp
FN:77,_RNCINvNtCsjFw2tM2VfHa_4givp2pr28bidirectional_path_relinkingNCINvNtB6_9impl_core3runFG_RL0_SdEdE0E0CskYZbkf9ThA5_4givp
FN:87,_RNCINvNtCsjFw2tM2VfHa_4givp2pr28bidirectional_path_relinkingNCINvNtB6_9impl_core3runFG_RL0_SdEdE0Es_0CskYZbkf9ThA5_4givp
FN:14,_RINvNtCsjFw2tM2VfHa_4givp2pr19path_relinking_bestpEB4_
FN:63,_RINvNtCsjFw2tM2VfHa_4givp2pr28bidirectional_path_relinkingpEB4_
FN:77,_RNCINvNtCsjFw2tM2VfHa_4givp2pr28bidirectional_path_relinkingpE0B6_
FN:87,_RNCINvNtCsjFw2tM2VfHa_4givp2pr28bidirectional_path_relinkingpEs_0B6_
FN:14,_RINvNtCscmc0KBnNg4q_4givp2pr19path_relinking_bestNCINvNtB4_9impl_core3runNCNvNtBQ_5testss_35test_run_with_invalid_config_errors0E0EB4_
FN:14,_RINvNtCscmc0KBnNg4q_4givp2pr19path_relinking_bestNCNvNtB2_5testss_23test_backward_path_wins0EB4_
FN:14,_RINvNtCscmc0KBnNg4q_4givp2pr19path_relinking_bestNCNvNtB2_5testss_39test_expired_deadline_breaks_inner_loop0EB4_
FN:14,_RINvNtCscmc0KBnNg4q_4givp2pr19path_relinking_bestNCNvNtB2_5testss_44test_identical_solutions_returns_immediately0EB4_
FN:14,_RINvNtCscmc0KBnNg4q_4givp2pr19path_relinking_bestNCNvNtNtB4_9impl_core5testss_47test_do_path_relinking_expired_deadline_returns0EB4_
FN:63,_RINvNtCscmc0KBnNg4q_4givp2pr28bidirectional_path_relinkingNCINvNtB4_9impl_core3runNCNvNtBZ_5testss_35test_run_with_invalid_config_errors0E0EB4_
FN:63,_RINvNtCscmc0KBnNg4q_4givp2pr28bidirectional_path_relinkingNCNvNtB2_5testss_23test_backward_path_wins0EB4_
FN:63,_RINvNtCscmc0KBnNg4q_4givp2pr28bidirectional_path_relinkingNCNvNtB2_5testss_39test_expired_deadline_breaks_inner_loop0EB4_
FN:63,_RINvNtCscmc0KBnNg4q_4givp2pr28bidirectional_path_relinkingNCNvNtB2_5testss_44test_identical_solutions_returns_immediately0EB4_
FN:63,_RINvNtCscmc0KBnNg4q_4givp2pr28bidirectional_path_relinkingNCNvNtNtB4_9impl_core5testss_47test_do_path_relinking_expired_deadline_returns0EB4_
FN:77,_RNCINvNtCscmc0KBnNg4q_4givp2pr28bidirectional_path_relinkingNCINvNtB6_9impl_core3runNCNvNtB11_5testss_35test_run_with_invalid_config_errors0E0E0B6_
FN:87,_RNCINvNtCscmc0KBnNg4q_4givp2pr28bidirectional_path_relinkingNCINvNtB6_9impl_core3runNCNvNtB11_5testss_35test_run_with_invalid_config_errors0E0Es_0B6_
FN:77,_RNCINvNtCscmc0KBnNg4q_4givp2pr28bidirectional_path_relinkingNCNvNtB4_5testss_23test_backward_path_wins0E0B6_
FN:87,_RNCINvNtCscmc0KBnNg4q_4givp2pr28bidirectional_path_relinkingNCNvNtB4_5testss_23test_backward_path_wins0Es_0B6_
FN:77,_RNCINvNtCscmc0KBnNg4q_4givp2pr28bidirectional_path_relinkingNCNvNtB4_5testss_39test_expired_deadline_breaks_inner_loop0E0B6_
FN:87,_RNCINvNtCscmc0KBnNg4q_4givp2pr28bidirectional_path_relinkingNCNvNtB4_5testss_39test_expired_deadline_breaks_inner_loop0Es_0B6_
FN:77,_RNCINvNtCscmc0KBnNg4q_4givp2pr28bidirectional_path_relinkingNCNvNtB4_5testss_44test_identical_solutions_returns_immediately0E0B6_
FN:87,_RNCINvNtCscmc0KBnNg4q_4givp2pr28bidirectional_path_relinkingNCNvNtB4_5testss_44test_identical_solutions_returns_immediately0Es_0B6_
FN:77,_RNCINvNtCscmc0KBnNg4q_4givp2pr28bidirectional_path_relinkingNCNvNtNtB6_9impl_core5testss_47test_do_path_relinking_expired_deadline_returns0E0B6_
FN:87,_RNCINvNtCscmc0KBnNg4q_4givp2pr28bidirectional_path_relinkingNCNvNtNtB6_9impl_core5testss_47test_do_path_relinking_expired_deadline_returns0Es_0B6_
FN:146,_RNCNCNvNtNtCscmc0KBnNg4q_4givp2pr5testss_39test_expired_deadline_breaks_inner_loop00B9_
FN:160,_RNCNvNtNtCscmc0KBnNg4q_4givp2pr5testss_23test_backward_path_wins0B7_
FN:146,_RNCNvNtNtCscmc0KBnNg4q_4givp2pr5testss_39test_expired_deadline_breaks_inner_loop0B7_
FN:128,_RNCNvNtNtCscmc0KBnNg4q_4givp2pr5testss_44test_identical_solutions_returns_immediately0B7_
FN:158,_RNvNtNtCscmc0KBnNg4q_4givp2pr5testss_23test_backward_path_wins
FN:141,_RNvNtNtCscmc0KBnNg4q_4givp2pr5testss_39test_expired_deadline_breaks_inner_loop
FN:124,_RNvNtNtCscmc0KBnNg4q_4givp2pr5testss_44test_identical_solutions_returns_immediately
FN:14,_RINvNtCsjFw2tM2VfHa_4givp2pr19path_relinking_bestNCINvNtB4_9impl_core3runNCNvNtCsejRbqt38Bgr_9test_givp5testss_13test_maximize0E0EB1f_
FN:14,_RINvNtCsjFw2tM2VfHa_4givp2pr19path_relinking_bestNCINvNtB4_9impl_core3runNCNvNtCsejRbqt38Bgr_9test_givp5testss_24test_panicking_objective0E0EB1f_
FN:14,_RINvNtCsjFw2tM2VfHa_4givp2pr19path_relinking_bestNCINvNtB4_9impl_core3runNvNtCsejRbqt38Bgr_9test_givp5tests10rosenbrockE0EB1d_
FN:14,_RINvNtCsjFw2tM2VfHa_4givp2pr19path_relinking_bestNCINvNtB4_9impl_core3runNvNtCsejRbqt38Bgr_9test_givp5tests6sphereE0EB1d_
FN:63,_RINvNtCsjFw2tM2VfHa_4givp2pr28bidirectional_path_relinkingNCINvNtB4_9impl_core3runNCNvNtCsejRbqt38Bgr_9test_givp5testss_13test_maximize0E0EB1o_
FN:63,_RINvNtCsjFw2tM2VfHa_4givp2pr28bidirectional_path_relinkingNCINvNtB4_9impl_core3runNCNvNtCsejRbqt38Bgr_9test_givp5testss_24test_panicking_objective0E0EB1o_
FN:63,_RINvNtCsjFw2tM2VfHa_4givp2pr28bidirectional_path_relinkingNCINvNtB4_9impl_core3runNvNtCsejRbqt38Bgr_9test_givp5tests10rosenbrockE0EB1m_
FN:63,_RINvNtCsjFw2tM2VfHa_4givp2pr28bidirectional_path_relinkingNCINvNtB4_9impl_core3runNvNtCsejRbqt38Bgr_9test_givp5tests6sphereE0EB1m_
FN:77,_RNCINvNtCsjFw2tM2VfHa_4givp2pr28bidirectional_path_relinkingNCINvNtB6_9impl_core3runNCNvNtCsejRbqt38Bgr_9test_givp5testss_13test_maximize0E0E0B1q_
FN:87,_RNCINvNtCsjFw2tM2VfHa_4givp2pr28bidirectional_path_relinkingNCINvNtB6_9impl_core3runNCNvNtCsejRbqt38Bgr_9test_givp5testss_13test_maximize0E0Es_0B1q_
FN:77,_RNCINvNtCsjFw2tM2VfHa_4givp2pr28bidirectional_path_relinkingNCINvNtB6_9impl_core3runNCNvNtCsejRbqt38Bgr_9test_givp5testss_24test_panicking_objective0E0E0B1q_
FN:87,_RNCINvNtCsjFw2tM2VfHa_4givp2pr28bidirectional_path_relinkingNCINvNtB6_9impl_core3runNCNvNtCsejRbqt38Bgr_9test_givp5testss_24test_panicking_objective0E0Es_0B1q_
FN:77,_RNCINvNtCsjFw2tM2VfHa_4givp2pr28bidirectional_path_relinkingNCINvNtB6_9impl_core3runNvNtCsejRbqt38Bgr_9test_givp5tests10rosenbrockE0E0B1o_
FN:87,_RNCINvNtCsjFw2tM2VfHa_4givp2pr28bidirectional_path_relinkingNCINvNtB6_9impl_core3runNvNtCsejRbqt38Bgr_9test_givp5tests10rosenbrockE0Es_0B1o_
FN:77,_RNCINvNtCsjFw2tM2VfHa_4givp2pr28bidirectional_path_relinkingNCINvNtB6_9impl_core3runNvNtCsejRbqt38Bgr_9test_givp5tests6sphereE0E0B1o_
FN:87,_RNCINvNtCsjFw2tM2VfHa_4givp2pr28bidirectional_path_relinkingNCINvNtB6_9impl_core3runNvNtCsejRbqt38Bgr_9test_givp5tests6sphereE0Es_0B1o_
FNDA:0,_RINvNtCsjFw2tM2VfHa_4givp2pr19path_relinking_bestNCINvNtB4_9impl_core3runFG_RL0_SdEdE0ECskYZbkf9ThA5_4givp
FNDA:0,_RINvNtCsjFw2tM2VfHa_4givp2pr28bidirectional_path_relinkingNCINvNtB4_9impl_core3runFG_RL0_SdEdE0ECskYZbkf9ThA5_4givp
FNDA:0,_RNCINvNtCsjFw2tM2VfHa_4givp2pr28bidirectional_path_relinkingNCINvNtB6_9impl_core3runFG_RL0_SdEdE0E0CskYZbkf9ThA5_4givp
FNDA:0,_RNCINvNtCsjFw2tM2VfHa_4givp2pr28bidirectional_path_relinkingNCINvNtB6_9impl_core3runFG_RL0_SdEdE0Es_0CskYZbkf9ThA5_4givp
FNDA:0,_RINvNtCsjFw2tM2VfHa_4givp2pr19path_relinking_bestpEB4_
FNDA:0,_RINvNtCsjFw2tM2VfHa_4givp2pr28bidirectional_path_relinkingpEB4_
FNDA:0,_RNCINvNtCsjFw2tM2VfHa_4givp2pr28bidirectional_path_relinkingpE0B6_
FNDA:0,_RNCINvNtCsjFw2tM2VfHa_4givp2pr28bidirectional_path_relinkingpEs_0B6_
FNDA:0,_RINvNtCscmc0KBnNg4q_4givp2pr19path_relinking_bestNCINvNtB4_9impl_core3runNCNvNtBQ_5testss_35test_run_with_invalid_config_errors0E0EB4_
FNDA:2,_RINvNtCscmc0KBnNg4q_4givp2pr19path_relinking_bestNCNvNtB2_5testss_23test_backward_path_wins0EB4_
FNDA:2,_RINvNtCscmc0KBnNg4q_4givp2pr19path_relinking_bestNCNvNtB2_5testss_39test_expired_deadline_breaks_inner_loop0EB4_
FNDA:0,_RINvNtCscmc0KBnNg4q_4givp2pr19path_relinking_bestNCNvNtB2_5testss_44test_identical_solutions_returns_immediately0EB4_
FNDA:0,_RINvNtCscmc0KBnNg4q_4givp2pr19path_relinking_bestNCNvNtNtB4_9impl_core5testss_47test_do_path_relinking_expired_deadline_returns0EB4_
FNDA:0,_RINvNtCscmc0KBnNg4q_4givp2pr28bidirectional_path_relinkingNCINvNtB4_9impl_core3runNCNvNtBZ_5testss_35test_run_with_invalid_config_errors0E0EB4_
FNDA:1,_RINvNtCscmc0KBnNg4q_4givp2pr28bidirectional_path_relinkingNCNvNtB2_5testss_23test_backward_path_wins0EB4_
FNDA:1,_RINvNtCscmc0KBnNg4q_4givp2pr28bidirectional_path_relinkingNCNvNtB2_5testss_39test_expired_deadline_breaks_inner_loop0EB4_
FNDA:1,_RINvNtCscmc0KBnNg4q_4givp2pr28bidirectional_path_relinkingNCNvNtB2_5testss_44test_identical_solutions_returns_immediately0EB4_
FNDA:0,_RINvNtCscmc0KBnNg4q_4givp2pr28bidirectional_path_relinkingNCNvNtNtB4_9impl_core5testss_47test_do_path_relinking_expired_deadline_returns0EB4_
FNDA:0,_RNCINvNtCscmc0KBnNg4q_4givp2pr28bidirectional_path_relinkingNCINvNtB6_9impl_core3runNCNvNtB11_5testss_35test_run_with_invalid_config_errors0E0E0B6_
FNDA:0,_RNCINvNtCscmc0KBnNg4q_4givp2pr28bidirectional_path_relinkingNCINvNtB6_9impl_core3runNCNvNtB11_5testss_35test_run_with_invalid_config_errors0E0Es_0B6_
FNDA:3,_RNCINvNtCscmc0KBnNg4q_4givp2pr28bidirectional_path_relinkingNCNvNtB4_5testss_23test_backward_path_wins0E0B6_
FNDA:0,_RNCINvNtCscmc0KBnNg4q_4givp2pr28bidirectional_path_relinkingNCNvNtB4_5testss_23test_backward_path_wins0Es_0B6_
FNDA:3,_RNCINvNtCscmc0KBnNg4q_4givp2pr28bidirectional_path_relinkingNCNvNtB4_5testss_39test_expired_deadline_breaks_inner_loop0E0B6_
FNDA:0,_RNCINvNtCscmc0KBnNg4q_4givp2pr28bidirectional_path_relinkingNCNvNtB4_5testss_39test_expired_deadline_breaks_inner_loop0Es_0B6_
FNDA:3,_RNCINvNtCscmc0KBnNg4q_4givp2pr28bidirectional_path_relinkingNCNvNtB4_5testss_44test_identical_solutions_returns_immediately0E0B6_
FNDA:0,_RNCINvNtCscmc0KBnNg4q_4givp2pr28bidirectional_path_relinkingNCNvNtB4_5testss_44test_identical_solutions_returns_immediately0Es_0B6_
FNDA:0,_RNCINvNtCscmc0KBnNg4q_4givp2pr28bidirectional_path_relinkingNCNvNtNtB6_9impl_core5testss_47test_do_path_relinking_expired_deadline_returns0E0B6_
FNDA:0,_RNCINvNtCscmc0KBnNg4q_4givp2pr28bidirectional_path_relinkingNCNvNtNtB6_9impl_core5testss_47test_do_path_relinking_expired_deadline_returns0Es_0B6_
FNDA:9,_RNCNCNvNtNtCscmc0KBnNg4q_4givp2pr5testss_39test_expired_deadline_breaks_inner_loop00B9_
FNDA:14,_RNCNvNtNtCscmc0KBnNg4q_4givp2pr5testss_23test_backward_path_wins0B7_
FNDA:3,_RNCNvNtNtCscmc0KBnNg4q_4givp2pr5testss_39test_expired_deadline_breaks_inner_loop0B7_
FNDA:1,_RNCNvNtNtCscmc0KBnNg4q_4givp2pr5testss_44test_identical_solutions_returns_immediately0B7_
FNDA:1,_RNvNtNtCscmc0KBnNg4q_4givp2pr5testss_23test_backward_path_wins
FNDA:1,_RNvNtNtCscmc0KBnNg4q_4givp2pr5testss_39test_expired_deadline_breaks_inner_loop
FNDA:1,_RNvNtNtCscmc0KBnNg4q_4givp2pr5testss_44test_identical_solutions_returns_immediately
FNDA:4,_RINvNtCsjFw2tM2VfHa_4givp2pr19path_relinking_bestNCINvNtB4_9impl_core3runNCNvNtCsejRbqt38Bgr_9test_givp5testss_13test_maximize0E0EB1f_
FNDA:0,_RINvNtCsjFw2tM2VfHa_4givp2pr19path_relinking_bestNCINvNtB4_9impl_core3runNCNvNtCsejRbqt38Bgr_9test_givp5testss_24test_panicking_objective0E0EB1f_
FNDA:96,_RINvNtCsjFw2tM2VfHa_4givp2pr19path_relinking_bestNCINvNtB4_9impl_core3runNvNtCsejRbqt38Bgr_9test_givp5tests10rosenbrockE0EB1d_
FNDA:106,_RINvNtCsjFw2tM2VfHa_4givp2pr19path_relinking_bestNCINvNtB4_9impl_core3runNvNtCsejRbqt38Bgr_9test_givp5tests6sphereE0EB1d_
FNDA:2,_RINvNtCsjFw2tM2VfHa_4givp2pr28bidirectional_path_relinkingNCINvNtB4_9impl_core3runNCNvNtCsejRbqt38Bgr_9test_givp5testss_13test_maximize0E0EB1o_
FNDA:0,_RINvNtCsjFw2tM2VfHa_4givp2pr28bidirectional_path_relinkingNCINvNtB4_9impl_core3runNCNvNtCsejRbqt38Bgr_9test_givp5testss_24test_panicking_objective0E0EB1o_
FNDA:48,_RINvNtCsjFw2tM2VfHa_4givp2pr28bidirectional_path_relinkingNCINvNtB4_9impl_core3runNvNtCsejRbqt38Bgr_9test_givp5tests10rosenbrockE0EB1m_
FNDA:53,_RINvNtCsjFw2tM2VfHa_4givp2pr28bidirectional_path_relinkingNCINvNtB4_9impl_core3runNvNtCsejRbqt38Bgr_9test_givp5tests6sphereE0EB1m_
FNDA:6,_RNCINvNtCsjFw2tM2VfHa_4givp2pr28bidirectional_path_relinkingNCINvNtB6_9impl_core3runNCNvNtCsejRbqt38Bgr_9test_givp5testss_13test_maximize0E0E0B1q_
FNDA:0,_RNCINvNtCsjFw2tM2VfHa_4givp2pr28bidirectional_path_relinkingNCINvNtB6_9impl_core3runNCNvNtCsejRbqt38Bgr_9test_givp5testss_13test_maximize0E0Es_0B1q_
FNDA:0,_RNCINvNtCsjFw2tM2VfHa_4givp2pr28bidirectional_path_relinkingNCINvNtB6_9impl_core3runNCNvNtCsejRbqt38Bgr_9test_givp5testss_24test_panicking_objective0E0E0B1q_
FNDA:0,_RNCINvNtCsjFw2tM2VfHa_4givp2pr28bidirectional_path_relinkingNCINvNtB6_9impl_core3runNCNvNtCsejRbqt38Bgr_9test_givp5testss_24test_panicking_objective0E0Es_0B1q_
FNDA:144,_RNCINvNtCsjFw2tM2VfHa_4givp2pr28bidirectional_path_relinkingNCINvNtB6_9impl_core3runNvNtCsejRbqt38Bgr_9test_givp5tests10rosenbrockE0E0B1o_
FNDA:0,_RNCINvNtCsjFw2tM2VfHa_4givp2pr28bidirectional_path_relinkingNCINvNtB6_9impl_core3runNvNtCsejRbqt38Bgr_9test_givp5tests10rosenbrockE0Es_0B1o_
FNDA:661,_RNCINvNtCsjFw2tM2VfHa_4givp2pr28bidirectional_path_relinkingNCINvNtB6_9impl_core3runNvNtCsejRbqt38Bgr_9test_givp5tests6sphereE0E0B1o_
FNDA:2808,_RNCINvNtCsjFw2tM2VfHa_4givp2pr28bidirectional_path_relinkingNCINvNtB6_9impl_core3runNvNtCsejRbqt38Bgr_9test_givp5tests6sphereE0Es_0B1o_
FNF:11
FNH:11
DA:14,210
DA:15,210
DA:16,210
DA:17,210
DA:18,210
DA:19,210
DA:20,210
DA:21,210
DA:22,210
DA:23,210
DA:24,210
DA:25,210
DA:26,210
DA:27,210
DA:28,210
DA:29,210
DA:31,1658
DA:32,1450
DA:33,2
DA:34,1448
DA:35,1448
DA:36,1448
DA:37,1448
DA:39,12892
DA:40,12892
DA:41,12892
DA:42,12892
DA:43,12892
DA:44,3380
DA:45,3380
DA:46,3380
DA:47,9512
DA:48,12892
DA:51,1448
DA:52,1448
DA:53,1448
DA:54,1448
DA:55,639
DA:56,639
DA:57,809
DA:59,210
DA:60,210
DA:63,106
DA:64,106
DA:65,106
DA:66,106
DA:67,106
DA:68,106
DA:69,106
DA:70,106
DA:71,106
DA:72,106
DA:73,106
DA:74,106
DA:75,106
DA:76,106
DA:77,820
DA:78,106
DA:79,106
DA:80,106
DA:81,1
DA:82,1
DA:83,105
DA:84,105
DA:85,105
DA:86,105
DA:87,2808
DA:88,2808
DA:89,2808
DA:90,2808
DA:91,2808
DA:92,18
DA:93,87
DA:96,622
DA:97,622
DA:98,622
DA:99,622
DA:102,105
DA:103,105
DA:104,105
DA:105,105
DA:106,105
DA:107,105
DA:108,105
DA:109,105
DA:110,104
DA:112,1
DA:114,106
DA:124,1
DA:125,1
DA:126,1
DA:127,1
DA:128,1
DA:129,1
DA:130,1
DA:131,1
DA:132,1
DA:133,1
DA:134,1
DA:135,1
DA:136,1
DA:137,1
DA:138,1
DA:141,1
DA:142,1
DA:143,1
DA:144,1
DA:145,1
DA:146,9
DA:147,1
DA:148,1
DA:149,1
DA:150,1
DA:151,1
DA:152,1
DA:158,1
DA:159,1
DA:160,14
DA:161,14
DA:162,14
DA:163,14
DA:164,14
DA:165,2
DA:166,1
DA:167,2
DA:168,2
DA:169,2
DA:170,2
DA:171,1
DA:172,2
DA:174,14
DA:175,1
DA:176,1
DA:177,1
DA:178,1
DA:179,1
DA:180,1
DA:181,1
DA:182,0
DA:184,1
DA:185,1
DA:186,1
DA:187,1
BRF:0
BRH:0
LF:150
LH:145
end_of_record
SF:/workspace/rust/src/result.rs
FN:20,_RNvMNtCsjFw2tM2VfHa_4givp6resultNtB2_17TerminationReason12from_message
FN:63,_RNvMs_NtCsjFw2tM2VfHa_4givp6resultNtB4_14OptimizeResult3new
FN:20,_RNvMNtCscmc0KBnNg4q_4givp6resultNtB2_17TerminationReason12from_message
FN:63,_RNvMs_NtCscmc0KBnNg4q_4givp6resultNtB4_14OptimizeResult3new
FNDA:352,_RNvMNtCsjFw2tM2VfHa_4givp6resultNtB2_17TerminationReason12from_message
FNDA:345,_RNvMs_NtCsjFw2tM2VfHa_4givp6resultNtB4_14OptimizeResult3new
FNDA:0,_RNvMNtCscmc0KBnNg4q_4givp6resultNtB2_17TerminationReason12from_message
FNDA:0,_RNvMs_NtCscmc0KBnNg4q_4givp6resultNtB4_14OptimizeResult3new
FNF:2
FNH:2
DA:20,352
DA:21,352
DA:22,352
DA:23,1
DA:24,351
DA:25,344
DA:26,7
DA:27,2
DA:28,5
DA:29,2
DA:30,3
DA:31,2
DA:33,1
DA:35,352
DA:63,345
DA:64,345
DA:65,345
DA:66,345
DA:67,345
DA:68,345
DA:69,345
DA:70,345
DA:71,345
DA:72,345
DA:73,345
DA:74,345
DA:75,345
BRF:0
BRH:0
LF:27
LH:27
end_of_record
SF:/workspace/rust/src/vnd.rs
FN:248,_RINvNtCsjFw2tM2VfHa_4givp3vnd16local_search_vndNCINvNtB4_9impl_core3runFG_RL0_SdEdE0ECskYZbkf9ThA5_4givp
FN:101,_RINvNtCsjFw2tM2VfHa_4givp3vnd17neighborhood_flipNCINvNtB4_9impl_core3runFG_RL0_SdEdE0ECskYZbkf9ThA5_4givp
FN:154,_RINvNtCsjFw2tM2VfHa_4givp3vnd17neighborhood_swapNCINvNtB4_9impl_core3runFG_RL0_SdEdE0ECskYZbkf9ThA5_4givp
FN:13,_RINvNtCsjFw2tM2VfHa_4givp3vnd17try_integer_movesNCINvNtB4_9impl_core3runFG_RL0_SdEdE0ECskYZbkf9ThA5_4givp
FN:50,_RINvNtCsjFw2tM2VfHa_4givp3vnd19try_continuous_moveNCINvNtB4_9impl_core3runFG_RL0_SdEdE0ECskYZbkf9ThA5_4givp
FN:201,_RINvNtCsjFw2tM2VfHa_4givp3vnd22neighborhood_multiflipNCINvNtB4_9impl_core3runFG_RL0_SdEdE0ECskYZbkf9ThA5_4givp
FN:118,_RNCINvNtCsjFw2tM2VfHa_4givp3vnd17neighborhood_flipNCINvNtB6_9impl_core3runFG_RL0_SdEdE0E0CskYZbkf9ThA5_4givp
FN:79,_RNvNtCsjFw2tM2VfHa_4givp3vnd13perturb_index
FN:248,_RINvNtCsjFw2tM2VfHa_4givp3vnd16local_search_vndpEB4_
FN:101,_RINvNtCsjFw2tM2VfHa_4givp3vnd17neighborhood_flippEB4_
FN:154,_RINvNtCsjFw2tM2VfHa_4givp3vnd17neighborhood_swappEB4_
FN:13,_RINvNtCsjFw2tM2VfHa_4givp3vnd17try_integer_movespEB4_
FN:50,_RINvNtCsjFw2tM2VfHa_4givp3vnd19try_continuous_movepEB4_
FN:201,_RINvNtCsjFw2tM2VfHa_4givp3vnd22neighborhood_multiflippEB4_
FN:118,_RNCINvNtCsjFw2tM2VfHa_4givp3vnd17neighborhood_flippE0B6_
FN:333,_RNCNCNvNtNtCscmc0KBnNg4q_4givp3vnd5testss_45test_local_search_vnd_expired_deadline_breaks00B9_
FN:351,_RNCNCNvNtNtCscmc0KBnNg4q_4givp3vnd5testss_46test_neighborhood_flip_expired_deadline_breaks00B9_
FN:376,_RNCNCNvNtNtCscmc0KBnNg4q_4givp3vnd5testss_46test_neighborhood_swap_expired_deadline_breaks00B9_
FN:392,_RNCNCNvNtNtCscmc0KBnNg4q_4givp3vnd5testss_51test_neighborhood_multiflip_expired_deadline_breaks00B9_
FN:333,_RNCNvNtNtCscmc0KBnNg4q_4givp3vnd5testss_45test_local_search_vnd_expired_deadline_breaks0B7_
FN:351,_RNCNvNtNtCscmc0KBnNg4q_4givp3vnd5testss_46test_neighborhood_flip_expired_deadline_breaks0B7_
FN:376,_RNCNvNtNtCscmc0KBnNg4q_4givp3vnd5testss_46test_neighborhood_swap_expired_deadline_breaks0B7_
FN:392,_RNCNvNtNtCscmc0KBnNg4q_4givp3vnd5testss_51test_neighborhood_multiflip_expired_deadline_breaks0B7_
FN:248,_RINvNtCscmc0KBnNg4q_4givp3vnd16local_search_vndNCINvNtB4_9impl_core3runNCNvNtBO_5testss_35test_run_with_invalid_config_errors0E0EB4_
FN:248,_RINvNtCscmc0KBnNg4q_4givp3vnd16local_search_vndNCNvNtB2_5testss_45test_local_search_vnd_expired_deadline_breaks0EB4_
FN:248,_RINvNtCscmc0KBnNg4q_4givp3vnd16local_search_vndNCNvNtNtB4_9impl_core5testss_47test_do_path_relinking_expired_deadline_returns0EB4_
FN:101,_RINvNtCscmc0KBnNg4q_4givp3vnd17neighborhood_flipNCINvNtB4_9impl_core3runNCNvNtBP_5testss_35test_run_with_invalid_config_errors0E0EB4_
FN:101,_RINvNtCscmc0KBnNg4q_4givp3vnd17neighborhood_flipNCNvNtB2_5testss_45test_local_search_vnd_expired_deadline_breaks0EB4_
FN:101,_RINvNtCscmc0KBnNg4q_4givp3vnd17neighborhood_flipNCNvNtB2_5testss_46test_neighborhood_flip_expired_deadline_breaks0EB4_
FN:101,_RINvNtCscmc0KBnNg4q_4givp3vnd17neighborhood_flipNCNvNtNtB4_9impl_core5testss_47test_do_path_relinking_expired_deadline_returns0EB4_
FN:154,_RINvNtCscmc0KBnNg4q_4givp3vnd17neighborhood_swapNCINvNtB4_9impl_core3runNCNvNtBP_5testss_35test_run_with_invalid_config_errors0E0EB4_
FN:154,_RINvNtCscmc0KBnNg4q_4givp3vnd17neighborhood_swapNCNvNtB2_5testss_45test_local_search_vnd_expired_deadline_breaks0EB4_
FN:154,_RINvNtCscmc0KBnNg4q_4givp3vnd17neighborhood_swapNCNvNtB2_5testss_46test_neighborhood_swap_expired_deadline_breaks0EB4_
FN:154,_RINvNtCscmc0KBnNg4q_4givp3vnd17neighborhood_swapNCNvNtNtB4_9impl_core5testss_47test_do_path_relinking_expired_deadline_returns0EB4_
FN:13,_RINvNtCscmc0KBnNg4q_4givp3vnd17try_integer_movesNCINvNtB4_9impl_core3runNCNvNtBP_5testss_35test_run_with_invalid_config_errors0E0EB4_
FN:13,_RINvNtCscmc0KBnNg4q_4givp3vnd17try_integer_movesNCNvNtB2_5testss_45test_local_search_vnd_expired_deadline_breaks0EB4_
FN:13,_RINvNtCscmc0KBnNg4q_4givp3vnd17try_integer_movesNCNvNtB2_5testss_46test_neighborhood_flip_expired_deadline_breaks0EB4_
FN:13,_RINvNtCscmc0KBnNg4q_4givp3vnd17try_integer_movesNCNvNtNtB4_9impl_core5testss_47test_do_path_relinking_expired_deadline_returns0EB4_
FN:50,_RINvNtCscmc0KBnNg4q_4givp3vnd19try_continuous_moveNCINvNtB4_9impl_core3runNCNvNtBR_5testss_35test_run_with_invalid_config_errors0E0EB4_
FN:50,_RINvNtCscmc0KBnNg4q_4givp3vnd19try_continuous_moveNCNvNtB2_5testss_45test_local_search_vnd_expired_deadline_breaks0EB4_
FN:50,_RINvNtCscmc0KBnNg4q_4givp3vnd19try_continuous_moveNCNvNtB2_5testss_46test_neighborhood_flip_expired_deadline_breaks0EB4_
FN:50,_RINvNtCscmc0KBnNg4q_4givp3vnd19try_continuous_moveNCNvNtNtB4_9impl_core5testss_47test_do_path_relinking_expired_deadline_returns0EB4_
FN:201,_RINvNtCscmc0KBnNg4q_4givp3vnd22neighborhood_multiflipNCINvNtB4_9impl_core3runNCNvNtBU_5testss_35test_run_with_invalid_config_errors0E0EB4_
FN:201,_RINvNtCscmc0KBnNg4q_4givp3vnd22neighborhood_multiflipNCNvNtB2_5testss_45test_local_search_vnd_expired_deadline_breaks0EB4_
FN:201,_RINvNtCscmc0KBnNg4q_4givp3vnd22neighborhood_multiflipNCNvNtB2_5testss_51test_neighborhood_multiflip_expired_deadline_breaks0EB4_
FN:201,_RINvNtCscmc0KBnNg4q_4givp3vnd22neighborhood_multiflipNCNvNtNtB4_9impl_core5testss_47test_do_path_relinking_expired_deadline_returns0EB4_
FN:118,_RNCINvNtCscmc0KBnNg4q_4givp3vnd17neighborhood_flipNCINvNtB6_9impl_core3runNCNvNtBR_5testss_35test_run_with_invalid_config_errors0E0E0B6_
FN:118,_RNCINvNtCscmc0KBnNg4q_4givp3vnd17neighborhood_flipNCNvNtB4_5testss_45test_local_search_vnd_expired_deadline_breaks0E0B6_
FN:118,_RNCINvNtCscmc0KBnNg4q_4givp3vnd17neighborhood_flipNCNvNtB4_5testss_46test_neighborhood_flip_expired_deadline_breaks0E0B6_
FN:118,_RNCINvNtCscmc0KBnNg4q_4givp3vnd17neighborhood_flipNCNvNtNtB6_9impl_core5testss_47test_do_path_relinking_expired_deadline_returns0E0B6_
FN:329,_RNvNtNtCscmc0KBnNg4q_4givp3vnd5testss_45test_local_search_vnd_expired_deadline_breaks
FN:347,_RNvNtNtCscmc0KBnNg4q_4givp3vnd5testss_46test_neighborhood_flip_expired_deadline_breaks
FN:373,_RNvNtNtCscmc0KBnNg4q_4givp3vnd5testss_46test_neighborhood_swap_expired_deadline_breaks
FN:389,_RNvNtNtCscmc0KBnNg4q_4givp3vnd5testss_51test_neighborhood_multiflip_expired_deadline_breaks
FN:79,_RNvNtCscmc0KBnNg4q_4givp3vnd13perturb_index
FN:248,_RINvNtCsjFw2tM2VfHa_4givp3vnd16local_search_vndNCINvNtB4_9impl_core3runNCNvNtCsejRbqt38Bgr_9test_givp5testss_13test_maximize0E0EB1d_
FN:248,_RINvNtCsjFw2tM2VfHa_4givp3vnd16local_search_vndNCINvNtB4_9impl_core3runNCNvNtCsejRbqt38Bgr_9test_givp5testss_24test_panicking_objective0E0EB1d_
FN:248,_RINvNtCsjFw2tM2VfHa_4givp3vnd16local_search_vndNCINvNtB4_9impl_core3runNvNtCsejRbqt38Bgr_9test_givp5tests10rosenbrockE0EB1b_
FN:248,_RINvNtCsjFw2tM2VfHa_4givp3vnd16local_search_vndNCINvNtB4_9impl_core3runNvNtCsejRbqt38Bgr_9test_givp5tests6sphereE0EB1b_
FN:101,_RINvNtCsjFw2tM2VfHa_4givp3vnd17neighborhood_flipNCINvNtB4_9impl_core3runNCNvNtCsejRbqt38Bgr_9test_givp5testss_13test_maximize0E0EB1e_
FN:101,_RINvNtCsjFw2tM2VfHa_4givp3vnd17neighborhood_flipNCINvNtB4_9impl_core3runNCNvNtCsejRbqt38Bgr_9test_givp5testss_24test_panicking_objective0E0EB1e_
FN:101,_RINvNtCsjFw2tM2VfHa_4givp3vnd17neighborhood_flipNCINvNtB4_9impl_core3runNvNtCsejRbqt38Bgr_9test_givp5tests10rosenbrockE0EB1c_
FN:101,_RINvNtCsjFw2tM2VfHa_4givp3vnd17neighborhood_flipNCINvNtB4_9impl_core3runNvNtCsejRbqt38Bgr_9test_givp5tests6sphereE0EB1c_
FN:154,_RINvNtCsjFw2tM2VfHa_4givp3vnd17neighborhood_swapNCINvNtB4_9impl_core3runNCNvNtCsejRbqt38Bgr_9test_givp5testss_13test_maximize0E0EB1e_
FN:154,_RINvNtCsjFw2tM2VfHa_4givp3vnd17neighborhood_swapNCINvNtB4_9impl_core3runNCNvNtCsejRbqt38Bgr_9test_givp5testss_24test_panicking_objective0E0EB1e_
FN:154,_RINvNtCsjFw2tM2VfHa_4givp3vnd17neighborhood_swapNCINvNtB4_9impl_core3runNvNtCsejRbqt38Bgr_9test_givp5tests10rosenbrockE0EB1c_
FN:154,_RINvNtCsjFw2tM2VfHa_4givp3vnd17neighborhood_swapNCINvNtB4_9impl_core3runNvNtCsejRbqt38Bgr_9test_givp5tests6sphereE0EB1c_
FN:13,_RINvNtCsjFw2tM2VfHa_4givp3vnd17try_integer_movesNCINvNtB4_9impl_core3runNCNvNtCsejRbqt38Bgr_9test_givp5testss_13test_maximize0E0EB1e_
FN:13,_RINvNtCsjFw2tM2VfHa_4givp3vnd17try_integer_movesNCINvNtB4_9impl_core3runNCNvNtCsejRbqt38Bgr_9test_givp5testss_24test_panicking_objective0E0EB1e_
FN:13,_RINvNtCsjFw2tM2VfHa_4givp3vnd17try_integer_movesNCINvNtB4_9impl_core3runNvNtCsejRbqt38Bgr_9test_givp5tests10rosenbrockE0EB1c_
FN:13,_RINvNtCsjFw2tM2VfHa_4givp3vnd17try_integer_movesNCINvNtB4_9impl_core3runNvNtCsejRbqt38Bgr_9test_givp5tests6sphereE0EB1c_
FN:50,_RINvNtCsjFw2tM2VfHa_4givp3vnd19try_continuous_moveNCINvNtB4_9impl_core3runNCNvNtCsejRbqt38Bgr_9test_givp5testss_13test_maximize0E0EB1g_
FN:50,_RINvNtCsjFw2tM2VfHa_4givp3vnd19try_continuous_moveNCINvNtB4_9impl_core3runNCNvNtCsejRbqt38Bgr_9test_givp5testss_24test_panicking_objective0E0EB1g_
FN:50,_RINvNtCsjFw2tM2VfHa_4givp3vnd19try_continuous_moveNCINvNtB4_9impl_core3runNvNtCsejRbqt38Bgr_9test_givp5tests10rosenbrockE0EB1e_
FN:50,_RINvNtCsjFw2tM2VfHa_4givp3vnd19try_continuous_moveNCINvNtB4_9impl_core3runNvNtCsejRbqt38Bgr_9test_givp5tests6sphereE0EB1e_
FN:201,_RINvNtCsjFw2tM2VfHa_4givp3vnd22neighborhood_multiflipNCINvNtB4_9impl_core3runNCNvNtCsejRbqt38Bgr_9test_givp5testss_13test_maximize0E0EB1j_
FN:201,_RINvNtCsjFw2tM2VfHa_4givp3vnd22neighborhood_multiflipNCINvNtB4_9impl_core3runNCNvNtCsejRbqt38Bgr_9test_givp5testss_24test_panicking_objective0E0EB1j_
FN:201,_RINvNtCsjFw2tM2VfHa_4givp3vnd22neighborhood_multiflipNCINvNtB4_9impl_core3runNvNtCsejRbqt38Bgr_9test_givp5tests10rosenbrockE0EB1h_
FN:201,_RINvNtCsjFw2tM2VfHa_4givp3vnd22neighborhood_multiflipNCINvNtB4_9impl_core3runNvNtCsejRbqt38Bgr_9test_givp5tests6sphereE0EB1h_
FN:118,_RNCINvNtCsjFw2tM2VfHa_4givp3vnd17neighborhood_flipNCINvNtB6_9impl_core3runNCNvNtCsejRbqt38Bgr_9test_givp5testss_13test_maximize0E0E0B1g_
FN:118,_RNCINvNtCsjFw2tM2VfHa_4givp3vnd17neighborhood_flipNCINvNtB6_9impl_core3runNCNvNtCsejRbqt38Bgr_9test_givp5testss_24test_panicking_objective0E0E0B1g_
FN:118,_RNCINvNtCsjFw2tM2VfHa_4givp3vnd17neighborhood_flipNCINvNtB6_9impl_core3runNvNtCsejRbqt38Bgr_9test_givp5tests10rosenbrockE0E0B1e_
FN:118,_RNCINvNtCsjFw2tM2VfHa_4givp3vnd17neighborhood_flipNCINvNtB6_9impl_core3runNvNtCsejRbqt38Bgr_9test_givp5tests6sphereE0E0B1e_
FNDA:0,_RINvNtCsjFw2tM2VfHa_4givp3vnd16local_search_vndNCINvNtB4_9impl_core3runFG_RL0_SdEdE0ECskYZbkf9ThA5_4givp
FNDA:0,_RINvNtCsjFw2tM2VfHa_4givp3vnd17neighborhood_flipNCINvNtB4_9impl_core3runFG_RL0_SdEdE0ECskYZbkf9ThA5_4givp
FNDA:0,_RINvNtCsjFw2tM2VfHa_4givp3vnd17neighborhood_swapNCINvNtB4_9impl_core3runFG_RL0_SdEdE0ECskYZbkf9ThA5_4givp
FNDA:0,_RINvNtCsjFw2tM2VfHa_4givp3vnd17try_integer_movesNCINvNtB4_9impl_core3runFG_RL0_SdEdE0ECskYZbkf9ThA5_4givp
FNDA:0,_RINvNtCsjFw2tM2VfHa_4givp3vnd19try_continuous_moveNCINvNtB4_9impl_core3runFG_RL0_SdEdE0ECskYZbkf9ThA5_4givp
FNDA:0,_RINvNtCsjFw2tM2VfHa_4givp3vnd22neighborhood_multiflipNCINvNtB4_9impl_core3runFG_RL0_SdEdE0ECskYZbkf9ThA5_4givp
FNDA:0,_RNCINvNtCsjFw2tM2VfHa_4givp3vnd17neighborhood_flipNCINvNtB6_9impl_core3runFG_RL0_SdEdE0E0CskYZbkf9ThA5_4givp
FNDA:4043447,_RNvNtCsjFw2tM2VfHa_4givp3vnd13perturb_index
FNDA:0,_RINvNtCsjFw2tM2VfHa_4givp3vnd16local_search_vndpEB4_
FNDA:0,_RINvNtCsjFw2tM2VfHa_4givp3vnd17neighborhood_flippEB4_
FNDA:0,_RINvNtCsjFw2tM2VfHa_4givp3vnd17neighborhood_swappEB4_
FNDA:0,_RINvNtCsjFw2tM2VfHa_4givp3vnd17try_integer_movespEB4_
FNDA:0,_RINvNtCsjFw2tM2VfHa_4givp3vnd19try_continuous_movepEB4_
FNDA:0,_RINvNtCsjFw2tM2VfHa_4givp3vnd22neighborhood_multiflippEB4_
FNDA:0,_RNCINvNtCsjFw2tM2VfHa_4givp3vnd17neighborhood_flippE0B6_
FNDA:2,_RNCNCNvNtNtCscmc0KBnNg4q_4givp3vnd5testss_45test_local_search_vnd_expired_deadline_breaks00B9_
FNDA:2,_RNCNCNvNtNtCscmc0KBnNg4q_4givp3vnd5testss_46test_neighborhood_flip_expired_deadline_breaks00B9_
FNDA:2,_RNCNCNvNtNtCscmc0KBnNg4q_4givp3vnd5testss_46test_neighborhood_swap_expired_deadline_breaks00B9_
FNDA:3,_RNCNCNvNtNtCscmc0KBnNg4q_4givp3vnd5testss_51test_neighborhood_multiflip_expired_deadline_breaks00B9_
FNDA:1,_RNCNvNtNtCscmc0KBnNg4q_4givp3vnd5testss_45test_local_search_vnd_expired_deadline_breaks0B7_
FNDA:1,_RNCNvNtNtCscmc0KBnNg4q_4givp3vnd5testss_46test_neighborhood_flip_expired_deadline_breaks0B7_
FNDA:1,_RNCNvNtNtCscmc0KBnNg4q_4givp3vnd5testss_46test_neighborhood_swap_expired_deadline_breaks0B7_
FNDA:1,_RNCNvNtNtCscmc0KBnNg4q_4givp3vnd5testss_51test_neighborhood_multiflip_expired_deadline_breaks0B7_
FNDA:0,_RINvNtCscmc0KBnNg4q_4givp3vnd16local_search_vndNCINvNtB4_9impl_core3runNCNvNtBO_5testss_35test_run_with_invalid_config_errors0E0EB4_
FNDA:1,_RINvNtCscmc0KBnNg4q_4givp3vnd16local_search_vndNCNvNtB2_5testss_45test_local_search_vnd_expired_deadline_breaks0EB4_
FNDA:0,_RINvNtCscmc0KBnNg4q_4givp3vnd16local_search_vndNCNvNtNtB4_9impl_core5testss_47test_do_path_relinking_expired_deadline_returns0EB4_
FNDA:0,_RINvNtCscmc0KBnNg4q_4givp3vnd17neighborhood_flipNCINvNtB4_9impl_core3runNCNvNtBP_5testss_35test_run_with_invalid_config_errors0E0EB4_
FNDA:0,_RINvNtCscmc0KBnNg4q_4givp3vnd17neighborhood_flipNCNvNtB2_5testss_45test_local_search_vnd_expired_deadline_breaks0EB4_
FNDA:1,_RINvNtCscmc0KBnNg4q_4givp3vnd17neighborhood_flipNCNvNtB2_5testss_46test_neighborhood_flip_expired_deadline_breaks0EB4_
FNDA:0,_RINvNtCscmc0KBnNg4q_4givp3vnd17neighborhood_flipNCNvNtNtB4_9impl_core5testss_47test_do_path_relinking_expired_deadline_returns0EB4_
FNDA:0,_RINvNtCscmc0KBnNg4q_4givp3vnd17neighborhood_swapNCINvNtB4_9impl_core3runNCNvNtBP_5testss_35test_run_with_invalid_config_errors0E0EB4_
FNDA:0,_RINvNtCscmc0KBnNg4q_4givp3vnd17neighborhood_swapNCNvNtB2_5testss_45test_local_search_vnd_expired_deadline_breaks0EB4_
FNDA:1,_RINvNtCscmc0KBnNg4q_4givp3vnd17neighborhood_swapNCNvNtB2_5testss_46test_neighborhood_swap_expired_deadline_breaks0EB4_
FNDA:0,_RINvNtCscmc0KBnNg4q_4givp3vnd17neighborhood_swapNCNvNtNtB4_9impl_core5testss_47test_do_path_relinking_expired_deadline_returns0EB4_
FNDA:0,_RINvNtCscmc0KBnNg4q_4givp3vnd17try_integer_movesNCINvNtB4_9impl_core3runNCNvNtBP_5testss_35test_run_with_invalid_config_errors0E0EB4_
FNDA:0,_RINvNtCscmc0KBnNg4q_4givp3vnd17try_integer_movesNCNvNtB2_5testss_45test_local_search_vnd_expired_deadline_breaks0EB4_
FNDA:0,_RINvNtCscmc0KBnNg4q_4givp3vnd17try_integer_movesNCNvNtB2_5testss_46test_neighborhood_flip_expired_deadline_breaks0EB4_
FNDA:0,_RINvNtCscmc0KBnNg4q_4givp3vnd17try_integer_movesNCNvNtNtB4_9impl_core5testss_47test_do_path_relinking_expired_deadline_returns0EB4_
FNDA:0,_RINvNtCscmc0KBnNg4q_4givp3vnd19try_continuous_moveNCINvNtB4_9impl_core3runNCNvNtBR_5testss_35test_run_with_invalid_config_errors0E0EB4_
FNDA:0,_RINvNtCscmc0KBnNg4q_4givp3vnd19try_continuous_moveNCNvNtB2_5testss_45test_local_search_vnd_expired_deadline_breaks0EB4_
FNDA:0,_RINvNtCscmc0KBnNg4q_4givp3vnd19try_continuous_moveNCNvNtB2_5testss_46test_neighborhood_flip_expired_deadline_breaks0EB4_
FNDA:0,_RINvNtCscmc0KBnNg4q_4givp3vnd19try_continuous_moveNCNvNtNtB4_9impl_core5testss_47test_do_path_relinking_expired_deadline_returns0EB4_
FNDA:0,_RINvNtCscmc0KBnNg4q_4givp3vnd22neighborhood_multiflipNCINvNtB4_9impl_core3runNCNvNtBU_5testss_35test_run_with_invalid_config_errors0E0EB4_
FNDA:0,_RINvNtCscmc0KBnNg4q_4givp3vnd22neighborhood_multiflipNCNvNtB2_5testss_45test_local_search_vnd_expired_deadline_breaks0EB4_
FNDA:1,_RINvNtCscmc0KBnNg4q_4givp3vnd22neighborhood_multiflipNCNvNtB2_5testss_51test_neighborhood_multiflip_expired_deadline_breaks0EB4_
FNDA:0,_RINvNtCscmc0KBnNg4q_4givp3vnd22neighborhood_multiflipNCNvNtNtB4_9impl_core5testss_47test_do_path_relinking_expired_deadline_returns0EB4_
FNDA:0,_RNCINvNtCscmc0KBnNg4q_4givp3vnd17neighborhood_flipNCINvNtB6_9impl_core3runNCNvNtBR_5testss_35test_run_with_invalid_config_errors0E0E0B6_
FNDA:0,_RNCINvNtCscmc0KBnNg4q_4givp3vnd17neighborhood_flipNCNvNtB4_5testss_45test_local_search_vnd_expired_deadline_breaks0E0B6_
FNDA:1,_RNCINvNtCscmc0KBnNg4q_4givp3vnd17neighborhood_flipNCNvNtB4_5testss_46test_neighborhood_flip_expired_deadline_breaks0E0B6_
FNDA:0,_RNCINvNtCscmc0KBnNg4q_4givp3vnd17neighborhood_flipNCNvNtNtB6_9impl_core5testss_47test_do_path_relinking_expired_deadline_returns0E0B6_
FNDA:1,_RNvNtNtCscmc0KBnNg4q_4givp3vnd5testss_45test_local_search_vnd_expired_deadline_breaks
FNDA:1,_RNvNtNtCscmc0KBnNg4q_4givp3vnd5testss_46test_neighborhood_flip_expired_deadline_breaks
FNDA:1,_RNvNtNtCscmc0KBnNg4q_4givp3vnd5testss_46test_neighborhood_swap_expired_deadline_breaks
FNDA:1,_RNvNtNtCscmc0KBnNg4q_4givp3vnd5testss_51test_neighborhood_multiflip_expired_deadline_breaks
FNDA:0,_RNvNtCscmc0KBnNg4q_4givp3vnd13perturb_index
FNDA:244,_RINvNtCsjFw2tM2VfHa_4givp3vnd16local_search_vndNCINvNtB4_9impl_core3runNCNvNtCsejRbqt38Bgr_9test_givp5testss_13test_maximize0E0EB1d_
FNDA:77,_RINvNtCsjFw2tM2VfHa_4givp3vnd16local_search_vndNCINvNtB4_9impl_core3runNCNvNtCsejRbqt38Bgr_9test_givp5testss_24test_panicking_objective0E0EB1d_
FNDA:620,_RINvNtCsjFw2tM2VfHa_4givp3vnd16local_search_vndNCINvNtB4_9impl_core3runNvNtCsejRbqt38Bgr_9test_givp5tests10rosenbrockE0EB1b_
FNDA:25388,_RINvNtCsjFw2tM2VfHa_4givp3vnd16local_search_vndNCINvNtB4_9impl_core3runNvNtCsejRbqt38Bgr_9test_givp5tests6sphereE0EB1b_
FNDA:3421,_RINvNtCsjFw2tM2VfHa_4givp3vnd17neighborhood_flipNCINvNtB4_9impl_core3runNCNvNtCsejRbqt38Bgr_9test_givp5testss_13test_maximize0E0EB1e_
FNDA:385,_RINvNtCsjFw2tM2VfHa_4givp3vnd17neighborhood_flipNCINvNtB4_9impl_core3runNCNvNtCsejRbqt38Bgr_9test_givp5testss_24test_panicking_objective0E0EB1e_
FNDA:8828,_RINvNtCsjFw2tM2VfHa_4givp3vnd17neighborhood_flipNCINvNtB4_9impl_core3runNvNtCsejRbqt38Bgr_9test_givp5tests10rosenbrockE0EB1c_
FNDA:341854,_RINvNtCsjFw2tM2VfHa_4givp3vnd17neighborhood_flipNCINvNtB4_9impl_core3runNvNtCsejRbqt38Bgr_9test_givp5tests6sphereE0EB1c_
FNDA:2315,_RINvNtCsjFw2tM2VfHa_4givp3vnd17neighborhood_swapNCINvNtB4_9impl_core3runNCNvNtCsejRbqt38Bgr_9test_givp5testss_13test_maximize0E0EB1e_
FNDA:385,_RINvNtCsjFw2tM2VfHa_4givp3vnd17neighborhood_swapNCINvNtB4_9impl_core3runNCNvNtCsejRbqt38Bgr_9test_givp5testss_24test_panicking_objective0E0EB1e_
FNDA:5506,_RINvNtCsjFw2tM2VfHa_4givp3vnd17neighborhood_swapNCINvNtB4_9impl_core3runNvNtCsejRbqt38Bgr_9test_givp5tests10rosenbrockE0EB1c_
FNDA:228837,_RINvNtCsjFw2tM2VfHa_4givp3vnd17neighborhood_swapNCINvNtB4_9impl_core3runNvNtCsejRbqt38Bgr_9test_givp5tests6sphereE0EB1c_
FNDA:0,_RINvNtCsjFw2tM2VfHa_4givp3vnd17try_integer_movesNCINvNtB4_9impl_core3runNCNvNtCsejRbqt38Bgr_9test_givp5testss_13test_maximize0E0EB1e_
FNDA:0,_RINvNtCsjFw2tM2VfHa_4givp3vnd17try_integer_movesNCINvNtB4_9impl_core3runNCNvNtCsejRbqt38Bgr_9test_givp5testss_24test_panicking_objective0E0EB1e_
FNDA:0,_RINvNtCsjFw2tM2VfHa_4givp3vnd17try_integer_movesNCINvNtB4_9impl_core3runNvNtCsejRbqt38Bgr_9test_givp5tests10rosenbrockE0EB1c_
FNDA:12987,_RINvNtCsjFw2tM2VfHa_4givp3vnd17try_integer_movesNCINvNtB4_9impl_core3runNvNtCsejRbqt38Bgr_9test_givp5tests6sphereE0EB1c_
FNDA:10263,_RINvNtCsjFw2tM2VfHa_4givp3vnd19try_continuous_moveNCINvNtB4_9impl_core3runNCNvNtCsejRbqt38Bgr_9test_givp5testss_13test_maximize0E0EB1g_
FNDA:770,_RINvNtCsjFw2tM2VfHa_4givp3vnd19try_continuous_moveNCINvNtB4_9impl_core3runNCNvNtCsejRbqt38Bgr_9test_givp5testss_24test_panicking_objective0E0EB1g_
FNDA:26484,_RINvNtCsjFw2tM2VfHa_4givp3vnd19try_continuous_moveNCINvNtB4_9impl_core3runNvNtCsejRbqt38Bgr_9test_givp5tests10rosenbrockE0EB1e_
FNDA:1106471,_RINvNtCsjFw2tM2VfHa_4givp3vnd19try_continuous_moveNCINvNtB4_9impl_core3runNvNtCsejRbqt38Bgr_9test_givp5tests6sphereE0EB1e_
FNDA:241,_RINvNtCsjFw2tM2VfHa_4givp3vnd22neighborhood_multiflipNCINvNtB4_9impl_core3runNCNvNtCsejRbqt38Bgr_9test_givp5testss_13test_maximize0E0EB1j_
FNDA:77,_RINvNtCsjFw2tM2VfHa_4givp3vnd22neighborhood_multiflipNCINvNtB4_9impl_core3runNCNvNtCsejRbqt38Bgr_9test_givp5testss_24test_panicking_objective0E0EB1j_
FNDA:619,_RINvNtCsjFw2tM2VfHa_4givp3vnd22neighborhood_multiflipNCINvNtB4_9impl_core3runNvNtCsejRbqt38Bgr_9test_givp5tests10rosenbrockE0EB1h_
FNDA:25274,_RINvNtCsjFw2tM2VfHa_4givp3vnd22neighborhood_multiflipNCINvNtB4_9impl_core3runNvNtCsejRbqt38Bgr_9test_givp5tests6sphereE0EB1h_
FNDA:8442,_RNCINvNtCsjFw2tM2VfHa_4givp3vnd17neighborhood_flipNCINvNtB6_9impl_core3runNCNvNtCsejRbqt38Bgr_9test_givp5testss_13test_maximize0E0E0B1g_
FNDA:385,_RNCINvNtCsjFw2tM2VfHa_4givp3vnd17neighborhood_flipNCINvNtB6_9impl_core3runNCNvNtCsejRbqt38Bgr_9test_givp5testss_24test_panicking_objective0E0E0B1g_
FNDA:22308,_RNCINvNtCsjFw2tM2VfHa_4givp3vnd17neighborhood_flipNCINvNtB6_9impl_core3runNvNtCsejRbqt38Bgr_9test_givp5tests10rosenbrockE0E0B1e_
FNDA:1911451,_RNCINvNtCsjFw2tM2VfHa_4givp3vnd17neighborhood_flipNCINvNtB6_9impl_core3runNvNtCsejRbqt38Bgr_9test_givp5tests6sphereE0E0B1e_
FNF:20
FNH:20
DA:13,12987
DA:14,12987
DA:15,12987
DA:16,12987
DA:17,12987
DA:18,12987
DA:19,12987
DA:20,12987
DA:21,12987
DA:22,12987
DA:23,12987
DA:24,12987
DA:25,12987
DA:26,12987
DA:27,12987
DA:28,12987
DA:30,51948
DA:31,38961
DA:32,38961
DA:33,24826
DA:34,14135
DA:35,14135
DA:36,14135
DA:37,14135
DA:38,14135
DA:39,574
DA:40,574
DA:41,13561
DA:42,13561
DA:43,13561
DA:45,12987
DA:46,12987
DA:50,1143988
DA:51,1143988
DA:52,1143988
DA:53,1143988
DA:54,1143988
DA:55,1143988
DA:56,1143988
DA:57,1143988
DA:58,1143988
DA:59,1143988
DA:60,1143988
DA:61,1143988
DA:62,1143988
DA:63,1143988
DA:64,1143988
DA:65,1143988
DA:66,1143988
DA:67,1143988
DA:68,1143988
DA:69,1143988
DA:70,1143988
DA:71,136357
DA:73,1007631
DA:74,1007631
DA:76,1143988
DA:79,4043447
DA:80,4043447
DA:81,4043447
DA:82,4043447
DA:83,4043447
DA:84,4043447
DA:85,4043447
DA:86,4043447
DA:87,4043447
DA:88,4043447
DA:89,103455
DA:90,103455
DA:91,103455
DA:92,3939992
DA:93,3939992
DA:94,3939992
DA:95,3939992
DA:96,3939992
DA:97,4043447
DA:101,354489
DA:102,354489
DA:103,354489
DA:104,354489
DA:105,354489
DA:106,354489
DA:107,354489
DA:108,354489
DA:109,354489
DA:110,354489
DA:111,354489
DA:112,354489
DA:113,354489
DA:114,354489
DA:115,354489
DA:116,354489
DA:117,354489
DA:118,1942587
DA:119,354489
DA:120,354489
DA:121,354489
DA:123,1511464
DA:124,1156976
DA:125,1
DA:126,1156975
DA:127,1156975
DA:128,12987
DA:130,1143988
DA:131,1143988
DA:132,1143988
DA:133,1143988
DA:134,1143988
DA:135,1143988
DA:136,1143988
DA:137,1143988
DA:138,1143988
DA:139,1143988
DA:140,1143988
DA:142,1156975
DA:143,136931
DA:144,136931
DA:145,136931
DA:146,136931
DA:147,1020044
DA:149,354489
DA:150,354489
DA:154,237044
DA:155,237044
DA:156,237044
DA:157,237044
DA:158,237044
DA:159,237044
DA:160,237044
DA:161,237044
DA:162,237044
DA:163,237044
DA:164,237044
DA:165,237044
DA:166,237044
DA:167,237044
DA:168,237044
DA:169,237044
DA:170,237044
DA:171,237044
DA:172,237044
DA:173,237044
DA:174,748022
DA:175,1
DA:176,748021
DA:177,748021
DA:178,748021
DA:179,748021
DA:180,169822
DA:181,578199
DA:182,578199
DA:183,578199
DA:184,578199
DA:185,578199
DA:186,578199
DA:187,578199
DA:188,578199
DA:189,7905
DA:190,7905
DA:191,570294
DA:192,570294
DA:193,570294
DA:194,570294
DA:196,237044
DA:197,237044
DA:201,26212
DA:202,26212
DA:203,26212
DA:204,26212
DA:205,26212
DA:206,26212
DA:207,26212
DA:208,26212
DA:209,26212
DA:210,26212
DA:211,26212
DA:212,26212
DA:213,26212
DA:214,26212
DA:215,26212
DA:216,26212
DA:217,26212
DA:218,26212
DA:220,1336745
DA:221,1310535
DA:222,2
DA:223,1310533
DA:224,1310533
DA:225,1310533
DA:227,2887049
DA:228,2887049
DA:229,2887049
DA:230,2887049
DA:231,2887049
DA:232,2887049
DA:233,2887049
DA:234,1310533
DA:235,1310533
DA:236,1310533
DA:237,7734
DA:238,7734
DA:239,1302799
DA:240,1302799
DA:241,1302799
DA:243,26212
DA:244,26212
DA:248,26330
DA:249,26330
DA:250,26330
DA:251,26330
DA:252,26330
DA:253,26330
DA:254,26330
DA:255,26330
DA:256,26330
DA:257,26330
DA:258,26330
DA:259,26330
DA:260,26330
DA:261,26330
DA:262,26330
DA:263,26330
DA:264,26330
DA:265,26330
DA:266,26330
DA:267,26330
DA:268,26330
DA:269,26330
DA:270,354489
DA:271,1
DA:272,354488
DA:275,1156975
DA:276,1156975
DA:277,1156975
DA:280,354488
DA:281,354488
DA:282,354488
DA:283,354488
DA:284,354488
DA:285,354488
DA:286,354488
DA:287,354488
DA:288,354488
DA:289,354488
DA:290,354488
DA:291,354488
DA:292,354488
DA:293,354488
DA:294,354488
DA:295,237043
DA:296,237043
DA:297,237043
DA:298,237043
DA:299,237043
DA:300,237043
DA:301,237043
DA:302,237043
DA:303,237043
DA:304,26211
DA:305,26211
DA:306,26211
DA:307,26211
DA:308,26211
DA:309,210832
DA:311,237043
DA:312,26329
DA:313,210714
DA:314,117445
DA:315,117445
DA:316,117445
DA:318,26330
DA:319,26330
DA:329,1
DA:330,1
DA:331,1
DA:332,1
DA:333,2
DA:334,1
DA:335,1
DA:336,1
DA:337,1
DA:338,1
DA:339,1
DA:340,1
DA:341,1
DA:342,1
DA:343,1
DA:344,1
DA:347,1
DA:348,1
DA:349,1
DA:350,1
DA:351,2
DA:352,1
DA:353,1
DA:354,1
DA:355,1
DA:356,1
DA:357,1
DA:358,1
DA:359,1
DA:360,1
DA:361,1
DA:362,1
DA:363,1
DA:364,1
DA:365,1
DA:366,1
DA:367,1
DA:368,1
DA:369,1
DA:370,1
DA:373,1
DA:374,1
DA:375,1
DA:376,2
DA:377,1
DA:378,1
DA:379,1
DA:380,1
DA:381,1
DA:382,1
DA:383,1
DA:384,1
DA:385,1
DA:386,1
DA:389,1
DA:390,1
DA:391,1
DA:392,3
DA:393,1
DA:394,1
DA:395,1
DA:396,1
DA:397,1
DA:398,1
DA:399,1
DA:400,1
DA:401,1
DA:402,1
BRF:0
BRH:0
LF:349
LH:346
end_of_record